 ArcCompareView

 Timestamp is 6080fc2e (Thu Apr 22 12:31:42 2021)

 Preferred load address is 0000000140000000

 Start         Length     Name                   Class
 0001:00000000 00000260H .text$di                CODE
 0001:00000260 00011280H .text$mn                CODE
 0001:000114e0 00000020H .text$mn$00             CODE
 0001:00011500 00000cf0H .text$x                 CODE
 0001:000121f0 00000042H .text$yd                CODE
 0002:00000000 00001300H .idata$5                DATA
 0002:00001300 00000010H .00cfg                  DATA
 0002:00001310 00000008H .CRT$XCA                DATA
 0002:00001318 00000008H .CRT$XCAA               DATA
 0002:00001320 00000088H .CRT$XCU                DATA
 0002:000013a8 00000008H .CRT$XCZ                DATA
 0002:000013b0 00000008H .CRT$XIA                DATA
 0002:000013b8 00000008H .CRT$XIAA               DATA
 0002:000013c0 00000008H .CRT$XIAC               DATA
 0002:000013c8 00000008H .CRT$XIC                DATA
 0002:000013d0 00000008H .CRT$XIZ                DATA
 0002:000013d8 00000008H .CRT$XLA                DATA
 0002:000013e0 00000008H .CRT$XLZ                DATA
 0002:000013e8 00000008H .CRT$XPA                DATA
 0002:000013f0 00000008H .CRT$XPZ                DATA
 0002:000013f8 00000008H .CRT$XTA                DATA
 0002:00001400 00000010H .CRT$XTZ                DATA
 0002:00001408 00000000H .gfids$y                DATA
 0002:00001410 000222b0H .rdata                  DATA
 0002:000236c0 00000030H .rdata$T                DATA
 0002:000236f0 00001a14H .rdata$r                DATA
 0002:00025104 00000364H .rdata$zzzdbg           DATA
 0002:00025468 00000008H .rtc$IAA                DATA
 0002:00025470 00000008H .rtc$IZZ                DATA
 0002:00025478 00000008H .rtc$TAA                DATA
 0002:00025480 00000008H .rtc$TZZ                DATA
 0002:00025488 00000004H .tls                    DATA
 0002:0002548c 00000004H .tls$                   DATA
 0002:00025490 00000010H .tls$ZZZ                DATA
 0002:000254a0 00003988H .xdata                  DATA
 0002:00028e28 000000ecH .xdata$x                DATA
 0002:00028f14 00000000H .edata                  DATA
 0002:00028f14 0000012cH .idata$2                DATA
 0002:00029040 00000018H .idata$3                DATA
 0002:00029058 00001300H .idata$4                DATA
 0002:0002a358 00006256H .idata$6                DATA
 0003:00000000 00000928H .data                   DATA
 0003:00000928 000006e8H .data$r                 DATA
 0003:00001010 000007e8H .bss                    DATA
 0004:00000000 00001038H .pdata                  DATA
 0005:00000000 000003f0H .rsrc$01                DATA
 0005:000003f0 0001e5e0H .rsrc$02                DATA

  Address         Publics by Value              Rva+Base               Lib:Object

 0000:00000000       __guard_iat_count          0000000000000000     <absolute>
 0000:00000000       __volatile_metadata        0000000000000000     <absolute>
 0000:00000000       __hybrid_code_map_count    0000000000000000     <absolute>
 0000:00000000       __guard_fids_count         0000000000000000     <absolute>
 0000:00000000       __guard_longjmp_count      0000000000000000     <absolute>
 0000:00000000       __guard_longjmp_table      0000000000000000     <absolute>
 0000:00000000       __hybrid_code_map          0000000000000000     <absolute>
 0000:00000000       __guard_iat_table          0000000000000000     <absolute>
 0000:00000000       ___safe_se_handler_count   0000000000000000     <absolute>
 0000:00000000       __enclave_config           0000000000000000     <absolute>
 0000:00000000       ___safe_se_handler_table   0000000000000000     <absolute>
 0000:00000000       __guard_fids_table         0000000000000000     <absolute>
 0000:00000000       __hybrid_auxiliary_iat     0000000000000000     <absolute>
 0000:00000000       __dynamic_value_reloc_table 0000000000000000     <absolute>
 0000:00000100       __guard_flags              0000000000000100     <absolute>
 0000:00000000       __ImageBase                0000000140000000     <linker-defined>
 0001:00000260       ??0CAppAssistWnd@@QEAA@PEAVIAppHandle@@@Z 0000000140001260 f   AppAssistWnd.obj
 0001:000002a0       ??_GCAppAssistWnd@@UEAAPEAXI@Z 00000001400012a0 f i AppAssistWnd.obj
 0001:000002a0       ??_ECAppAssistWnd@@UEAAPEAXI@Z 00000001400012a0 f i AppAssistWnd.obj
 0001:00000310       ?CreateWnd@CAppAssistWnd@@QEAAXPEAUHINSTANCE__@@PEB_W@Z 0000000140001310 f   AppAssistWnd.obj
 0001:00000440       ?DetroyWnd@CAppAssistWnd@@QEAAXXZ 0000000140001440 f   AppAssistWnd.obj
 0001:00000490       ?WindowProc@CAppAssistWnd@@KA_JPEAUHWND__@@I_K_J@Z 0000000140001490 f   AppAssistWnd.obj
 0001:000004f0       ??$_Buynode@U?$pair@W4PAGE_TYPE@AppMainWnd@@PEAVMyPanelBase@@@std@@@?$_Tree_comp_alloc@V?$_Tmap_traits@HPEAVMyPanelBase@@U?$less@H@std@@V?$allocator@U?$pair@$$CBHPEAVMyPanelBase@@@std@@@3@$0A@@std@@@std@@QEAAPEAU?$_Tree_node@U?$pair@$$CBHPEAVMyPanelBase@@@std@@PEAX@1@$$QEAU?$pair@W4PAGE_TYPE@AppMainWnd@@PEAVMyPanelBase@@@1@@Z 00000001400014f0 f i AppMainWnd.obj
 0001:000004f0       ??$_Buynode@U?$pair@W4PANEL_TYPE@ComparePage@@PEAVMyPanelBase@@@std@@@?$_Tree_comp_alloc@V?$_Tmap_traits@HPEAVMyPanelBase@@U?$less@H@std@@V?$allocator@U?$pair@$$CBHPEAVMyPanelBase@@@std@@@3@$0A@@std@@@std@@QEAAPEAU?$_Tree_node@U?$pair@$$CBHPEAVMyPanelBase@@@std@@PEAX@1@$$QEAU?$pair@W4PANEL_TYPE@ComparePage@@PEAVMyPanelBase@@@1@@Z 00000001400014f0 f i ComparePage.obj
 0001:00000530       ??$_Insert_at@AEAU?$pair@$$CBHPEAVMyPanelBase@@@std@@PEAU?$_Tree_node@U?$pair@$$CBHPEAVMyPanelBase@@@std@@PEAX@2@@?$_Tree@V?$_Tmap_traits@HPEAVMyPanelBase@@U?$less@H@std@@V?$allocator@U?$pair@$$CBHPEAVMyPanelBase@@@std@@@3@$0A@@std@@@std@@IEAA?AV?$_Tree_iterator@V?$_Tree_val@U?$_Tree_simple_types@U?$pair@$$CBHPEAVMyPanelBase@@@std@@@std@@@std@@@1@_NPEAU?$_Tree_node@U?$pair@$$CBHPEAVMyPanelBase@@@std@@PEAX@1@AEAU?$pair@$$CBHPEAVMyPanelBase@@@1@1@Z 0000000140001530 f i AppMainWnd.obj
 0001:000007b0       ??$_Insert_nohint@AEAU?$pair@$$CBHPEAVMyPanelBase@@@std@@PEAU?$_Tree_node@U?$pair@$$CBHPEAVMyPanelBase@@@std@@PEAX@2@@?$_Tree@V?$_Tmap_traits@HPEAVMyPanelBase@@U?$less@H@std@@V?$allocator@U?$pair@$$CBHPEAVMyPanelBase@@@std@@@3@$0A@@std@@@std@@IEAA?AU?$pair@V?$_Tree_iterator@V?$_Tree_val@U?$_Tree_simple_types@U?$pair@$$CBHPEAVMyPanelBase@@@std@@@std@@@std@@@std@@_N@1@_NAEAU?$pair@$$CBHPEAVMyPanelBase@@@1@PEAU?$_Tree_node@U?$pair@$$CBHPEAVMyPanelBase@@@std@@PEAX@1@@Z 00000001400017b0 f i AppMainWnd.obj
 0001:00000930       ??0?$QList@VQString@@@@QEAA@AEBV0@@Z 0000000140001930 f i AppMainWnd.obj
 0001:000009e0       ??0AppMainWnd@@QEAA@PEAVQWidget@@@Z 00000001400019e0 f   AppMainWnd.obj
 0001:00000b40       ??1?$QList@VQString@@@@QEAA@XZ 0000000140001b40 f i AppMainWnd.obj
 0001:00000bd0       ??1?$QList@VQUrl@@@@QEAA@XZ 0000000140001bd0 f i AppMainWnd.obj
 0001:00000c60       ??1?$basic_string@DU?$char_traits@D@std@@V?$allocator@D@2@@std@@QEAA@XZ 0000000140001c60 f i AppMainWnd.obj
 0001:00000cc0       ??1?$map@HPEAVMyPanelBase@@U?$less@H@std@@V?$allocator@U?$pair@$$CBHPEAVMyPanelBase@@@std@@@3@@std@@QEAA@XZ 0000000140001cc0 f i AppMainWnd.obj
 0001:00000ce0       ??1QStringList@@QEAA@XZ    0000000140001ce0 f i AppMainWnd.obj
 0001:00000cf0       ??4?$QList@VQString@@@@QEAAAEAV0@AEBV0@@Z 0000000140001cf0 f i AppMainWnd.obj
 0001:00000da0       ??H@YA?BVQString@@AEBV0@PEBD@Z 0000000140001da0 f i AppMainWnd.obj
 0001:00000e10       ??_EAppMainWnd@@WBA@EAAPEAXI@Z 0000000140001e10 f i AppMainWnd.obj
 0001:00000e1c       ??_EQFrame@@WBA@EAAPEAXI@Z 0000000140001e1c f i AppMainWnd.obj
 0001:00000e28       ??_EQGridLayout@@WBA@EAAPEAXI@Z 0000000140001e28 f i AppMainWnd.obj
 0001:00000e34       ??_EQWidget@@WBA@EAAPEAXI@Z 0000000140001e34 f i AppMainWnd.obj
 0001:00000e40       ??_EAppMainWnd@@UEAAPEAXI@Z 0000000140001e40 f i AppMainWnd.obj
 0001:00000e40       ??_GAppMainWnd@@UEAAPEAXI@Z 0000000140001e40 f i AppMainWnd.obj
 0001:00000ed0       ??_GQFrame@@UEAAPEAXI@Z    0000000140001ed0 f i AppMainWnd.obj
 0001:00000ed0       ??_EQFrame@@UEAAPEAXI@Z    0000000140001ed0 f i AppMainWnd.obj
 0001:00000f10       ??_EQGridLayout@@UEAAPEAXI@Z 0000000140001f10 f i AppMainWnd.obj
 0001:00000f10       ??_GQGridLayout@@UEAAPEAXI@Z 0000000140001f10 f i AppMainWnd.obj
 0001:00000f50       ??_GQWidget@@UEAAPEAXI@Z   0000000140001f50 f i AppMainWnd.obj
 0001:00000f50       ??_EQWidget@@UEAAPEAXI@Z   0000000140001f50 f i AppMainWnd.obj
 0001:00000f90       ?ActivePage@AppMainWnd@@QEAAXW4PAGE_TYPE@1@_N@Z 0000000140001f90 f   AppMainWnd.obj
 0001:00001130       ?CloseAppMainWnd@AppMainWnd@@UEAAXXZ 0000000140002130 f   AppMainWnd.obj
 0001:00001140       ?DoAutoFitIn@AppMainWnd@@QEAAXXZ 0000000140002140 f   AppMainWnd.obj
 0001:00001210       ?DoBatchFileConvert@AppMainWnd@@QEAAXXZ 0000000140002210 f   AppMainWnd.obj
 0001:000014c0       ?DoCmdOpenFiles@AppMainWnd@@QEAAXVQStringList@@@Z 00000001400024c0 f   AppMainWnd.obj
 0001:00001510       ?DoFileConvert@AppMainWnd@@QEAAXXZ 0000000140002510 f   AppMainWnd.obj
 0001:00001660       ?GetPageByType@AppMainWnd@@QEAAPEAVMyPanelBase@@W4PAGE_TYPE@1@@Z 0000000140002660 f   AppMainWnd.obj
 0001:000016b0       ?InitUI@AppMainWnd@@QEAAXW4PAGE_TYPE@1@@Z 00000001400026b0 f   AppMainWnd.obj
 0001:000017d0       ?OnFileSelected@AppMainWnd@@AEAAXVQStringList@@@Z 00000001400027d0 f   AppMainWnd.obj
 0001:000018e0       ?OpenFileDialog@AppMainWnd@@QEAAXXZ 00000001400028e0 f   AppMainWnd.obj
 0001:000018f0       ?RestoryAppMainWnd@AppMainWnd@@UEAAXXZ 00000001400028f0 f   AppMainWnd.obj
 0001:00001970       ?ShowFileInfo@AppMainWnd@@QEAAXXZ 0000000140002970 f   AppMainWnd.obj
 0001:00001a30       ?ShowTitleBar@AppMainWnd@@QEAAX_N@Z 0000000140002a30 f   AppMainWnd.obj
 0001:00001a70       ?SwitchPage@AppMainWnd@@QEAAXW4PAGE_TYPE@1@@Z 0000000140002a70 f   AppMainWnd.obj
 0001:00001b90       ?UpdateComparePageWnd@AppMainWnd@@QEAAX_N@Z 0000000140002b90 f   AppMainWnd.obj
 0001:00001d40       ?UpdateHomePageWnd@AppMainWnd@@QEAAXPEAVQPoint@@@Z 0000000140002d40 f   AppMainWnd.obj
 0001:00001e60       ?UpdateTitleBar@AppMainWnd@@QEAAXXZ 0000000140002e60 f   AppMainWnd.obj
 0001:00001e80       ?_Buyheadnode@?$_Tree_comp_alloc@V?$_Tmap_traits@HPEAVMyPanelBase@@U?$less@H@std@@V?$allocator@U?$pair@$$CBHPEAVMyPanelBase@@@std@@@3@$0A@@std@@@std@@QEAAPEAU?$_Tree_node@U?$pair@$$CBHPEAVMyPanelBase@@@std@@PEAX@2@XZ 0000000140002e80 f i AppMainWnd.obj
 0001:00001ec0       ?_Buynode0@?$_Tree_comp_alloc@V?$_Tmap_traits@HPEAVMyPanelBase@@U?$less@H@std@@V?$allocator@U?$pair@$$CBHPEAVMyPanelBase@@@std@@@3@$0A@@std@@@std@@QEAAPEAU?$_Tree_node@U?$pair@$$CBHPEAVMyPanelBase@@@std@@PEAX@2@XZ 0000000140002ec0 f i AppMainWnd.obj
 0001:00001f00       ?_Freenode0@?$_Tree_comp_alloc@V?$_Tmap_traits@HPEAVMyPanelBase@@U?$less@H@std@@V?$allocator@U?$pair@$$CBHPEAVMyPanelBase@@@std@@@3@$0A@@std@@@std@@QEAAXPEAU?$_Tree_node@U?$pair@$$CBHPEAVMyPanelBase@@@std@@PEAX@2@@Z 0000000140002f00 f i AppMainWnd.obj
 0001:00001f00       ?_Destroy_if_node@?$_Tree@V?$_Tmap_traits@HPEAVMyPanelBase@@U?$less@H@std@@V?$allocator@U?$pair@$$CBHPEAVMyPanelBase@@@std@@@3@$0A@@std@@@std@@IEAAXPEAU?$_Tree_node@U?$pair@$$CBHPEAVMyPanelBase@@@std@@PEAX@2@@Z 0000000140002f00 f i AppMainWnd.obj
 0001:00001f10       ?_Erase@?$_Tree@V?$_Tmap_traits@HPEAVMyPanelBase@@U?$less@H@std@@V?$allocator@U?$pair@$$CBHPEAVMyPanelBase@@@std@@@3@$0A@@std@@@std@@IEAAXPEAU?$_Tree_node@U?$pair@$$CBHPEAVMyPanelBase@@@std@@PEAX@2@@Z 0000000140002f10 f i AppMainWnd.obj
 0001:00001f70       ?_Rrotate@?$_Tree_val@U?$_Tree_simple_types@U?$pair@$$CBHPEAVMyPanelBase@@@std@@@std@@@std@@QEAAXPEAU?$_Tree_node@U?$pair@$$CBHPEAVMyPanelBase@@@std@@PEAX@2@@Z 0000000140002f70 f i AppMainWnd.obj
 0001:00001fd0       ?_Xlen@?$basic_string@DU?$char_traits@D@std@@V?$allocator@D@2@@std@@SAXXZ 0000000140002fd0 f i AppMainWnd.obj
 0001:00001ff0       ?append@?$QList@VQString@@@@QEAAXAEBVQString@@@Z 0000000140002ff0 f i AppMainWnd.obj
 0001:00002070       ?assign@?$basic_string@DU?$char_traits@D@std@@V?$allocator@D@2@@std@@QEAAAEAV12@QEBD_K@Z 0000000140003070 f i AppMainWnd.obj
 0001:000021c0       ?clear@?$_Tree@V?$_Tmap_traits@HPEAVMyPanelBase@@U?$less@H@std@@V?$allocator@U?$pair@$$CBHPEAVMyPanelBase@@@std@@@3@$0A@@std@@@std@@QEAAXXZ 00000001400031c0 f i AppMainWnd.obj
 0001:00002250       ?closeEvent@AppMainWnd@@MEAAXPEAVQCloseEvent@@@Z 0000000140003250 f   AppMainWnd.obj
 0001:000023e0       ?deallocate@?$allocator@U?$_Tree_node@U?$pair@$$CBHPEAVMyPanelBase@@@std@@PEAX@std@@@std@@QEAAXQEAU?$_Tree_node@U?$pair@$$CBHPEAVMyPanelBase@@@std@@PEAX@2@_K@Z 00000001400033e0 f i AppMainWnd.obj
 0001:00002430       ?detach_helper@?$QList@VQUrl@@@@AEAAXH@Z 0000000140003430 f i AppMainWnd.obj
 0001:00002500       ?detach_helper_grow@?$QList@VQString@@@@AEAAPEAUNode@1@HH@Z 0000000140003500 f i AppMainWnd.obj
 0001:00002620       ?dragEnterEvent@AppMainWnd@@MEAAXPEAVQDragEnterEvent@@@Z 0000000140003620 f   AppMainWnd.obj
 0001:00002690       ?dropEvent@AppMainWnd@@MEAAXPEAVQDropEvent@@@Z 0000000140003690 f   AppMainWnd.obj
 0001:00002870       ?keyPressEvent@AppMainWnd@@MEAAXPEAVQKeyEvent@@@Z 0000000140003870 f   AppMainWnd.obj
 0001:00002a20       ?OnExit@MenuManager@@AEAAXXZ 0000000140003a20 f   MenuManager.obj
 0001:00002a20       ?qt_static_metacall@ComparePage@@CAXPEAVQObject@@W4Call@QMetaObject@@HPEAPEAX@Z 0000000140003a20 f   moc_ComparePage.obj
 0001:00002a20       _initialize_invalid_parameter_handler 0000000140003a20 f   MSVCRT:invalid_parameter_handler.obj
 0001:00002a20       ?OnPanelMouseRelease@MyPanelBase@@MEAAXPEAVQMouseEvent@@@Z 0000000140003a20 f   ComparePage.obj
 0001:00002a20       _guard_check_icall_nop     0000000140003a20 f   MSVCRT:guard_support.obj
 0001:00002a20       ?qt_static_metacall@QUiLoader@@CAXPEAVQObject@@W4Call@QMetaObject@@HPEAPEAX@Z 0000000140003a20 f   Qt5UiTools:moc_quiloader.obj
 0001:00002a20       ?qt_static_metacall@DlgAbout@@CAXPEAVQObject@@W4Call@QMetaObject@@HPEAPEAX@Z 0000000140003a20 f   moc_DlgAbout.obj
 0001:00002a20       ?keyReleaseEvent@AppMainWnd@@MEAAXPEAVQKeyEvent@@@Z 0000000140003a20 f   AppMainWnd.obj
 0001:00002a20       ?OnPanelMouseMove@MyPanelBase@@MEAAXPEAVQMouseEvent@@@Z 0000000140003a20 f   ComparePage.obj
 0001:00002a20       _initialize_denormal_control 0000000140003a20 f   MSVCRT:denormal_control.obj
 0001:00002a20       ?OnPanelMousePress@MyPanelBase@@MEAAXPEAVQMouseEvent@@@Z 0000000140003a20 f   ComparePage.obj
 0001:00002a20       ?OnPanelResize@ComparePage@@UEAAXPEAVQResizeEvent@@@Z 0000000140003a20 f   ComparePage.obj
 0001:00002a20       ?qt_static_metacall@TranslationWatcher@QFormInternal@@CAXPEAVQObject@@W4Call@QMetaObject@@HPEAPEAX@Z 0000000140003a20 f   Qt5UiTools:quiloader.obj
 0001:00002a20       ?OnAbout@MenuManager@@AEAAXXZ 0000000140003a20 f   MenuManager.obj
 0001:00002a20       ?OnCutScreen_clicked@MainToolbarPanel@@QEAAX_N@Z 0000000140003a20 f   MainToolbarPanel.obj
 0001:00002a20       ?keyReleaseEvent@MyPanelBase@@UEAAXPEAVQKeyEvent@@@Z 0000000140003a20 f   ComparePage.obj
 0001:00002a20       ?OnPanelResize@CompareViewPanel@@UEAAXPEAVQResizeEvent@@@Z 0000000140003a20 f   CompareViewPanel.obj
 0001:00002a20       ?OnPanelResize@MyPanelBase@@MEAAXPEAVQResizeEvent@@@Z 0000000140003a20 f   ComparePage.obj
 0001:00002a20       ?qt_static_metacall@MyVideoSurface@@CAXPEAVQObject@@W4Call@QMetaObject@@HPEAPEAX@Z 0000000140003a20 f   moc_MyVideoSurface.obj
 0001:00002a20       ?OnClear@MenuManager@@AEAAXXZ 0000000140003a20 f   MenuManager.obj
 0001:00002a20       ?keyPressEvent@MyPanelBase@@UEAAXPEAVQKeyEvent@@@Z 0000000140003a20 f   ComparePage.obj
 0001:00002a20       ?OnSettingClicked@TitleBar@@AEAAX_N@Z 0000000140003a20 f   TitleBar.obj
 0001:00002a20       ?OnPanelMouseDoubleClick@MyPanelBase@@MEAAXPEAVQMouseEvent@@@Z 0000000140003a20 f   ComparePage.obj
 0001:00002a20       ?OnPanelMouseWheelEvent@MyPanelBase@@MEAAXPEAVQWheelEvent@@@Z 0000000140003a20 f   ComparePage.obj
 0001:00002a30       ?node_copy@?$QList@VQString@@@@AEAAXPEAUNode@1@00@Z 0000000140003a30 f i AppMainWnd.obj
 0001:00002a90       ?node_copy@?$QList@VQUrl@@@@AEAAXPEAUNode@1@00@Z 0000000140003a90 f i AppMainWnd.obj
 0001:00002af0       ?node_destruct@?$QList@VQString@@@@AEAAXPEAUNode@1@0@Z 0000000140003af0 f i AppMainWnd.obj
 0001:00002b30       ?node_destruct@?$QList@VQString@@@@AEAAXPEAUNode@1@@Z 0000000140003b30 f i AppMainWnd.obj
 0001:00002b40       ?resizeEvent@AppMainWnd@@MEAAXPEAVQResizeEvent@@@Z 0000000140003b40 f   AppMainWnd.obj
 0001:00002bb0       ?setupUi@Ui_AppMainWndClass@@QEAAXPEAVQMainWindow@@@Z 0000000140003bb0 f i AppMainWnd.obj
 0001:00003530       ?showEvent@AppMainWnd@@MEAAXPEAVQShowEvent@@@Z 0000000140004530 f   AppMainWnd.obj
 0001:00003590       ??0DlgAbout@@QEAA@PEAVQWidget@@V?$QFlags@W4WindowType@Qt@@@@@Z 0000000140004590 f   DlgAbout.obj
 0001:000035d8       ??_EDlgAbout@@WBA@EAAPEAXI@Z 00000001400045d8 f i DlgAbout.obj
 0001:000035e4       ??_EQPushButton@@WBA@EAAPEAXI@Z 00000001400045e4 f i DlgAbout.obj
 0001:000035f0       ??_EQScrollArea@@WBA@EAAPEAXI@Z 00000001400045f0 f i DlgAbout.obj
 0001:000035fc       ??_EQTextBrowser@@WBA@EAAPEAXI@Z 00000001400045fc f i DlgAbout.obj
 0001:00003610       ??_EDlgAbout@@UEAAPEAXI@Z  0000000140004610 f i DlgAbout.obj
 0001:00003610       ??_GDlgAbout@@UEAAPEAXI@Z  0000000140004610 f i DlgAbout.obj
 0001:00003660       ??_GQPushButton@@UEAAPEAXI@Z 0000000140004660 f i DlgAbout.obj
 0001:00003660       ??_EQPushButton@@UEAAPEAXI@Z 0000000140004660 f i DlgAbout.obj
 0001:000036a0       ??_GQScrollArea@@UEAAPEAXI@Z 00000001400046a0 f i DlgAbout.obj
 0001:000036a0       ??_EQScrollArea@@UEAAPEAXI@Z 00000001400046a0 f i DlgAbout.obj
 0001:000036e0       ??_EQTextBrowser@@UEAAPEAXI@Z 00000001400046e0 f i DlgAbout.obj
 0001:000036e0       ??_GQTextBrowser@@UEAAPEAXI@Z 00000001400046e0 f i DlgAbout.obj
 0001:00003720       ?closeEvent@DlgAbout@@MEAAXPEAVQCloseEvent@@@Z 0000000140004720 f   DlgAbout.obj
 0001:00003720       ?closeEvent@DlgHelp@@MEAAXPEAVQCloseEvent@@@Z 0000000140004720 f   DlgHelp.obj
 0001:00003730       ?resizeEvent@DlgAbout@@MEAAXPEAVQResizeEvent@@@Z 0000000140004730 f   DlgAbout.obj
 0001:00003730       ?resizeEvent@DlgHelp@@MEAAXPEAVQResizeEvent@@@Z 0000000140004730 f   DlgHelp.obj
 0001:00003740       ?setupUi@Ui_Dialog_about@@QEAAXPEAVQDialog@@@Z 0000000140004740 f i DlgAbout.obj
 0001:00003bc0       ?showEvent@DlgAbout@@MEAAXPEAVQShowEvent@@@Z 0000000140004bc0 f   DlgAbout.obj
 0001:00003bc0       ?showEvent@DlgHelp@@MEAAXPEAVQShowEvent@@@Z 0000000140004bc0 f   DlgHelp.obj
 0001:00003bd0       ??0DlgHelp@@QEAA@PEAVQWidget@@V?$QFlags@W4WindowType@Qt@@@@@Z 0000000140004bd0 f   DlgHelp.obj
 0001:00003c90       ??1DlgHelp@@UEAA@XZ        0000000140004c90 f   DlgHelp.obj
 0001:00003cac       ??_EDlgHelp@@WBA@EAAPEAXI@Z 0000000140004cac f i DlgHelp.obj
 0001:00003cb8       ??_EQLabel@@WBA@EAAPEAXI@Z 0000000140004cb8 f i DlgHelp.obj
 0001:00003cc4       ??_EQVBoxLayout@@WBA@EAAPEAXI@Z 0000000140004cc4 f i DlgHelp.obj
 0001:00003cd0       ??_EDlgHelp@@UEAAPEAXI@Z   0000000140004cd0 f i DlgHelp.obj
 0001:00003cd0       ??_GDlgHelp@@UEAAPEAXI@Z   0000000140004cd0 f i DlgHelp.obj
 0001:00003d20       ??_GQLabel@@UEAAPEAXI@Z    0000000140004d20 f i DlgHelp.obj
 0001:00003d20       ??_EQLabel@@UEAAPEAXI@Z    0000000140004d20 f i DlgHelp.obj
 0001:00003d60       ??_EQVBoxLayout@@UEAAPEAXI@Z 0000000140004d60 f i DlgHelp.obj
 0001:00003d60       ??_GQVBoxLayout@@UEAAPEAXI@Z 0000000140004d60 f i DlgHelp.obj
 0001:00003da0       ?OnBtnOK@DlgHelp@@AEAAX_N@Z 0000000140004da0 f   DlgHelp.obj
 0001:00003da0       ?OnBtnClose@DlgHelp@@AEAAX_N@Z 0000000140004da0 f   DlgHelp.obj
 0001:00003db0       ?setupUi@Ui_Dialog_setting@@QEAAXPEAVQDialog@@@Z 0000000140004db0 f i DlgHelp.obj
 0001:00004a30       ??0ComparePage@@QEAA@PEAVAppMainWnd@@HPEAVQWidget@@@Z 0000000140005a30 f   ComparePage.obj
 0001:00004a90       ??_EComparePage@@UEAAPEAXI@Z 0000000140005a90 f i ComparePage.obj
 0001:00004a90       ??_GComparePage@@UEAAPEAXI@Z 0000000140005a90 f i ComparePage.obj
 0001:00004b00       ?DoLoadNextFile@ComparePage@@QEAAXXZ 0000000140005b00 f   ComparePage.obj
 0001:00004b80       ?DoLoadPreFile@ComparePage@@QEAAXXZ 0000000140005b80 f   ComparePage.obj
 0001:00004c00       ?GetPanelByType@ComparePage@@QEAAPEAVMyPanelBase@@W4PANEL_TYPE@1@@Z 0000000140005c00 f   ComparePage.obj
 0001:00004c50       ?Init@ComparePage@@UEAAXXZ 0000000140005c50 f   ComparePage.obj
 0001:00004db0       ?IsShowed@MyPanelBase@@UEAA_NXZ 0000000140005db0 f i ComparePage.obj
 0001:00004dc0       ?SetCompareFiles@ComparePage@@QEAAXVQStringList@@_N@Z 0000000140005dc0 f   ComparePage.obj
 0001:00004e90       ?SetMode@MyPanelBase@@UEAAXH@Z 0000000140005e90 f i ComparePage.obj
 0001:00004ea0       ?Show@ComparePage@@UEAAX_N@Z 0000000140005ea0 f   ComparePage.obj
 0001:00004ef0       ?ShowPanel@ComparePage@@QEAAXW4PANEL_TYPE@1@_N@Z 0000000140005ef0 f   ComparePage.obj
 0001:00005050       ?UnInit@ComparePage@@UEAAXXZ 0000000140006050 f   ComparePage.obj
 0001:00005100       ?setupUi@Ui_edit_root@@QEAAXPEAVQWidget@@@Z 0000000140006100 f i ComparePage.obj
 0001:00005580       ??0FileBrowser@@QEAA@PEAVAppMainWnd@@@Z 0000000140006580 f   FileBrowser.obj
 0001:000055c0       ??_EFileBrowser@@UEAAPEAXI@Z 00000001400065c0 f i FileBrowser.obj
 0001:000055c0       ??_GFileBrowser@@UEAAPEAXI@Z 00000001400065c0 f i FileBrowser.obj
 0001:00005600       ?OpenFileDialog@FileBrowser@@QEAAXXZ 0000000140006600 f   FileBrowser.obj
 0001:00005a90       ??0HomePage@@QEAA@PEAVAppMainWnd@@HPEAVQWidget@@@Z 0000000140006a90 f   HomePage.obj
 0001:00005abc       ??_EQHBoxLayout@@WBA@EAAPEAXI@Z 0000000140006abc f i HomePage.obj
 0001:00005ac8       ??_EQRadioButton@@WBA@EAAPEAXI@Z 0000000140006ac8 f i HomePage.obj
 0001:00005ae0       ??_GHomePage@@UEAAPEAXI@Z  0000000140006ae0 f i HomePage.obj
 0001:00005ae0       ??_EHomePage@@UEAAPEAXI@Z  0000000140006ae0 f i HomePage.obj
 0001:00005b20       ??_EQHBoxLayout@@UEAAPEAXI@Z 0000000140006b20 f i HomePage.obj
 0001:00005b20       ??_GQHBoxLayout@@UEAAPEAXI@Z 0000000140006b20 f i HomePage.obj
 0001:00005b60       ??_EQRadioButton@@UEAAPEAXI@Z 0000000140006b60 f i HomePage.obj
 0001:00005b60       ??_GQRadioButton@@UEAAPEAXI@Z 0000000140006b60 f i HomePage.obj
 0001:00005ba0       ??_GQSpacerItem@@UEAAPEAXI@Z 0000000140006ba0 f i HomePage.obj
 0001:00005ba0       ??_EQSpacerItem@@UEAAPEAXI@Z 0000000140006ba0 f i HomePage.obj
 0001:00005be0       ?Init@HomePage@@UEAAXXZ    0000000140006be0 f   HomePage.obj
 0001:00005e20       ?OnBtnHelp@HomePage@@AEAAX_N@Z 0000000140006e20 f   HomePage.obj
 0001:00005ef0       ?OnBtnSelectFile@HomePage@@AEAAX_N@Z 0000000140006ef0 f   HomePage.obj
 0001:00005f00       ?OnPanelResize@TitleBar@@UEAAXPEAVQResizeEvent@@@Z 0000000140006f00 f   TitleBar.obj
 0001:00005f00       ?OnPanelResize@MainToolbarPanel@@MEAAXPEAVQResizeEvent@@@Z 0000000140006f00 f   MainToolbarPanel.obj
 0001:00005f00       ?OnPanelResize@HomePage@@UEAAXPEAVQResizeEvent@@@Z 0000000140006f00 f   HomePage.obj
 0001:00005f60       ?OnVideoModeToggled@HomePage@@AEAAXXZ 0000000140006f60 f   HomePage.obj
 0001:00005fa0       ?Show@MainToolbarPanel@@UEAAX_N@Z 0000000140006fa0 f   MainToolbarPanel.obj
 0001:00005fa0       ?Show@HomePage@@UEAAX_N@Z  0000000140006fa0 f   HomePage.obj
 0001:00005fb0       ?UnInit@HomePage@@UEAAXXZ  0000000140006fb0 f   HomePage.obj
 0001:00006000       ?retranslateUi@Ui_home_root@@QEAAXPEAVQWidget@@@Z 0000000140007000 f i HomePage.obj
 0001:00006220       ?setupUi@Ui_home_root@@QEAAXPEAVQWidget@@@Z 0000000140007220 f i HomePage.obj
 0001:000077d0       ??0CompareViewPanel@@QEAA@PEAVAppMainWnd@@HPEAVQWidget@@@Z 00000001400087d0 f   CompareViewPanel.obj
 0001:00007850       ??4?$QList@VQString@@@@QEAAAEAV0@$$QEAV0@@Z 0000000140008850 f i CompareViewPanel.obj
 0001:00007908       ??_EMyCompareViewCallback@@W7EAAPEAXI@Z 0000000140008908 f i CompareViewPanel.obj
 0001:00007920       ??_E?$MyAutoPtr@VAISFCompareView@ARC_AISF@@@@UEAAPEAXI@Z 0000000140008920 f i CompareViewPanel.obj
 0001:00007920       ??_G?$MyAutoPtr@VAISFCompareView@ARC_AISF@@@@UEAAPEAXI@Z 0000000140008920 f i CompareViewPanel.obj
 0001:00007980       ??_GAISFReferenceImp@@UEAAPEAXI@Z 0000000140008980 f i CompareViewPanel.obj
 0001:00007980       ??_EAISFReferenceImp@@UEAAPEAXI@Z 0000000140008980 f i CompareViewPanel.obj
 0001:000079b0       ??_GAISFReferenceInter@ARC_AISF@@UEAAPEAXI@Z 00000001400089b0 f i CompareViewPanel.obj
 0001:000079b0       ??_GIAISFCompareViewCallback@ARC_AISF@@UEAAPEAXI@Z 00000001400089b0 f i CompareViewPanel.obj
 0001:000079b0       ??_EAISFReferenceInter@ARC_AISF@@UEAAPEAXI@Z 00000001400089b0 f i CompareViewPanel.obj
 0001:000079b0       ??_EIAISFCompareViewCallback@ARC_AISF@@UEAAPEAXI@Z 00000001400089b0 f i CompareViewPanel.obj
 0001:000079e0       ??_ECompareViewPanel@@UEAAPEAXI@Z 00000001400089e0 f i CompareViewPanel.obj
 0001:000079e0       ??_GCompareViewPanel@@UEAAPEAXI@Z 00000001400089e0 f i CompareViewPanel.obj
 0001:00007a80       ??_GMyCompareViewCallback@@UEAAPEAXI@Z 0000000140008a80 f i CompareViewPanel.obj
 0001:00007a80       ??_EMyCompareViewCallback@@UEAAPEAXI@Z 0000000140008a80 f i CompareViewPanel.obj
 0001:00007ac0       ?AddRef@MyCompareViewCallback@@UEAAHXZ 0000000140008ac0 f i CompareViewPanel.obj
 0001:00007ad0       ?DoAutoFitIn@CompareViewPanel@@QEAAX_N@Z 0000000140008ad0 f   CompareViewPanel.obj
 0001:00007af0       ?DoDisplayFilebyIndex@CompareViewPanel@@AEAAXH@Z 0000000140008af0 f   CompareViewPanel.obj
 0001:00007db0       ?DoInitDrawWidget@CompareViewPanel@@QEAAXPEAVQWidget@@W4AISFCV_COMPAREVIEW_INDEX@ARC_AISF@@@Z 0000000140008db0 f   CompareViewPanel.obj
 0001:00008030       ?DoSingleImgViewInit@MyCompareViewCallback@@UEAAHPEAVQWidget@@W4AISFCV_COMPAREVIEW_INDEX@ARC_AISF@@@Z 0000000140009030 f   CompareViewPanel.obj
 0001:00008050       ?DoSingleImgViewUnInit@MyCompareViewCallback@@UEAAHPEAVQWidget@@W4AISFCV_COMPAREVIEW_INDEX@ARC_AISF@@@Z 0000000140009050 f   CompareViewPanel.obj
 0001:00008170       ?GetFileListbyPath@CompareViewPanel@@AEAAXPEAD@Z 0000000140009170 f   CompareViewPanel.obj
 0001:00008360       ?Init@CompareViewPanel@@UEAAXXZ 0000000140009360 f   CompareViewPanel.obj
 0001:000084b0       ?OnAddRectEnd@CompareViewPanel@@IEAAXH@Z 00000001400094b0 f   CompareViewPanel.obj
 0001:00008600       ?OnBtnNext_clicked@CompareViewPanel@@QEAAX_N@Z 0000000140009600 f   CompareViewPanel.obj
 0001:00008650       ?OnBtnPre_clicked@CompareViewPanel@@QEAAX_N@Z 0000000140009650 f   CompareViewPanel.obj
 0001:00008690       ?OnCompareViewDraw@MyCompareViewCallback@@UEAAHPEAUAISFCV_CompareViewDrawParam@ARC_AISF@@@Z 0000000140009690 f   CompareViewPanel.obj
 0001:00008790       ?QueryInterface@AISFReferenceImp@@UEAAHHPEAPEAX@Z 0000000140009790 f i CompareViewPanel.obj
 0001:000087a0       ?Release@MyCompareViewCallback@@UEAAHXZ 00000001400097a0 f i CompareViewPanel.obj
 0001:000087d0       ?ReleaseCompareView@CompareViewPanel@@AEAAXXZ 00000001400097d0 f   CompareViewPanel.obj
 0001:00008830       ?SetCompareFiles@CompareViewPanel@@QEAAXVQStringList@@_N@Z 0000000140009830 f   CompareViewPanel.obj
 0001:00008ab0       ?Show@CompareViewPanel@@UEAAX_N@Z 0000000140009ab0 f   CompareViewPanel.obj
 0001:00008af0       ?ShowCompareView@CompareViewPanel@@AEAAX_N@Z 0000000140009af0 f   CompareViewPanel.obj
 0001:00008c20       ?ShowFileInfo@CompareViewPanel@@QEAAX_N@Z 0000000140009c20 f   CompareViewPanel.obj
 0001:00008c40       ?UnInit@CompareViewPanel@@UEAAXXZ 0000000140009c40 f   CompareViewPanel.obj
 0001:00008cb0       ?UpdateDrawViewByViewIndex@CompareViewPanel@@AEAAXH@Z 0000000140009cb0 f   CompareViewPanel.obj
 0001:00008e20       ?UpdateFileSwitchBtnStatus@CompareViewPanel@@AEAAXXZ 0000000140009e20 f   CompareViewPanel.obj
 0001:00008eb0       ?clear@?$QList@VQString@@@@QEAAXXZ 0000000140009eb0 f i CompareViewPanel.obj
 0001:00008f60       ?setupUi@Ui_compare_root@@QEAAXPEAVQWidget@@@Z 0000000140009f60 f i CompareViewPanel.obj
 0001:00009770       __local_stdio_printf_options 000000014000a770 f i CompareViewPanel.obj
 0001:00009780       sprintf                    000000014000a780 f i CompareViewPanel.obj
 0001:000097e0       ?GetAppName@IniSetting@@SA?AVQString@@W4SETTING_TYPE@1@@Z 000000014000a7e0 f   IniSetting.obj
 0001:000098f0       ?GetAppSetFile@IniSetting@@CA?AVQString@@W4SETTING_TYPE@1@@Z 000000014000a8f0 f   IniSetting.obj
 0001:00009a20       ?GetImageExtFilter@IniSetting@@SA?AVQString@@W4SETTING_TYPE@1@@Z 000000014000aa20 f   IniSetting.obj
 0001:00009bc0       ?GetLastFilterType@IniSetting@@SAHPEBD@Z 000000014000abc0 f   IniSetting.obj
 0001:00009cd0       ?GetLastInputPath@IniSetting@@SA?AVQString@@PEBD@Z 000000014000acd0 f   IniSetting.obj
 0001:00009de0       ?GetUserConfigFile@IniSetting@@CA?AVQString@@PEBD@Z 000000014000ade0 f   IniSetting.obj
 0001:00009fa0       ?GetVideoExtFilter@IniSetting@@SA?AVQString@@W4SETTING_TYPE@1@@Z 000000014000afa0 f   IniSetting.obj
 0001:0000a140       ?IfShowDrawPanel@IniSetting@@SAHW4SETTING_TYPE@1@@Z 000000014000b140 f   IniSetting.obj
 0001:0000a240       ??0MainToolbarPanel@@QEAA@PEAVAppMainWnd@@HPEAVQWidget@@@Z 000000014000b240 f   MainToolbarPanel.obj
 0001:0000a264       ??_EQCheckBox@@WBA@EAAPEAXI@Z 000000014000b264 f i MainToolbarPanel.obj
 0001:0000a270       ??_GMainToolbarPanel@@UEAAPEAXI@Z 000000014000b270 f i MainToolbarPanel.obj
 0001:0000a270       ??_EMainToolbarPanel@@UEAAPEAXI@Z 000000014000b270 f i MainToolbarPanel.obj
 0001:0000a2b0       ??_GQCheckBox@@UEAAPEAXI@Z 000000014000b2b0 f i MainToolbarPanel.obj
 0001:0000a2b0       ??_EQCheckBox@@UEAAPEAXI@Z 000000014000b2b0 f i MainToolbarPanel.obj
 0001:0000a2f0       ?Init@MainToolbarPanel@@UEAAXXZ 000000014000b2f0 f   MainToolbarPanel.obj
 0001:0000a670       ?OnBatchConvert_clicked@MainToolbarPanel@@QEAAX_N@Z 000000014000b670 f   MainToolbarPanel.obj
 0001:0000a680       ?OnChkFitIn@MainToolbarPanel@@QEAAX_N@Z 000000014000b680 f   MainToolbarPanel.obj
 0001:0000a730       ?OnChkShowFileInfo@MainToolbarPanel@@QEAAX_N@Z 000000014000b730 f   MainToolbarPanel.obj
 0001:0000a7e0       ?OnConvert_clicked@MainToolbarPanel@@QEAAX_N@Z 000000014000b7e0 f   MainToolbarPanel.obj
 0001:0000a7f0       ?OnHome_clicked@MainToolbarPanel@@QEAAX_N@Z 000000014000b7f0 f   MainToolbarPanel.obj
 0001:0000a810       ?OnPanelMouseDoubleClick@MainToolbarPanel@@MEAAXPEAVQMouseEvent@@@Z 000000014000b810 f   MainToolbarPanel.obj
 0001:0000a880       ?SetFitInChecked@MainToolbarPanel@@QEAAX_N@Z 000000014000b880 f   MainToolbarPanel.obj
 0001:0000a8a0       ?UnInit@MainToolbarPanel@@UEAAXXZ 000000014000b8a0 f   MainToolbarPanel.obj
 0001:0000a8b0       ?retranslateUi@Ui_maintoolbar_root@@QEAAXPEAVQWidget@@@Z 000000014000b8b0 f i MainToolbarPanel.obj
 0001:0000abf0       ?setupUi@Ui_maintoolbar_root@@QEAAXPEAVQWidget@@@Z 000000014000bbf0 f i MainToolbarPanel.obj
 0001:0000bc10       ?UnInit@MenuManager@@QEAAXXZ 000000014000cc10 f   MenuManager.obj
 0001:0000bcc0       ??0MyPanelBase@@QEAA@PEAVAppMainWnd@@HPEAVQWidget@@@Z 000000014000ccc0 f   MyPanelBase.obj
 0001:0000bd30       ??1MyPanelBase@@UEAA@XZ    000000014000cd30 f   MyPanelBase.obj
 0001:0000bd50       ??_EMyPanelBase@@UEAAPEAXI@Z 000000014000cd50 f i MyPanelBase.obj
 0001:0000bd50       ??_GMyPanelBase@@UEAAPEAXI@Z 000000014000cd50 f i MyPanelBase.obj
 0001:0000bd90       ?Init@MyPanelBase@@UEAAXXZ 000000014000cd90 f   MyPanelBase.obj
 0001:0000bef0       ?Show@MyPanelBase@@UEAAX_N@Z 000000014000cef0 f   MyPanelBase.obj
 0001:0000bf30       ?UnInit@MyPanelBase@@UEAAXXZ 000000014000cf30 f   MyPanelBase.obj
 0001:0000bf50       ??0MyWidget@@QEAA@PEAVQWidget@@V?$QFlags@W4WindowType@Qt@@@@@Z 000000014000cf50 f   MyWidget.obj
 0001:0000bf98       ??_EMyWidget@@WBA@EAAPEAXI@Z 000000014000cf98 f i MyWidget.obj
 0001:0000bfb0       ??_GMyWidget@@UEAAPEAXI@Z  000000014000cfb0 f i MyWidget.obj
 0001:0000bfb0       ??_EMyWidget@@UEAAPEAXI@Z  000000014000cfb0 f i MyWidget.obj
 0001:0000c000       ?keyPressEvent@MyWidget@@MEAAXPEAVQKeyEvent@@@Z 000000014000d000 f   MyWidget.obj
 0001:0000c030       ?keyReleaseEvent@MyWidget@@MEAAXPEAVQKeyEvent@@@Z 000000014000d030 f   MyWidget.obj
 0001:0000c060       ?mouseDoubleClickEvent@MyWidget@@MEAAXPEAVQMouseEvent@@@Z 000000014000d060 f   MyWidget.obj
 0001:0000c090       ?mouseMoveEvent@MyWidget@@MEAAXPEAVQMouseEvent@@@Z 000000014000d090 f   MyWidget.obj
 0001:0000c0c0       ?mousePressEvent@MyWidget@@MEAAXPEAVQMouseEvent@@@Z 000000014000d0c0 f   MyWidget.obj
 0001:0000c0f0       ?mouseReleaseEvent@MyWidget@@MEAAXPEAVQMouseEvent@@@Z 000000014000d0f0 f   MyWidget.obj
 0001:0000c120       ?paintEvent@MyWidget@@MEAAXPEAVQPaintEvent@@@Z 000000014000d120 f   MyWidget.obj
 0001:0000c130       ?resizeEvent@MyWidget@@MEAAXPEAVQResizeEvent@@@Z 000000014000d130 f   MyWidget.obj
 0001:0000c160       ?wheelEvent@MyWidget@@MEAAXPEAVQWheelEvent@@@Z 000000014000d160 f   MyWidget.obj
 0001:0000c190       ?SetWidgetBackColor@QTUICommon@@SAXPEAVQWidget@@AEBVQColor@@@Z 000000014000d190 f   QTUICommon.obj
 0001:0000c230       ??0MyDrawWidget@@QEAA@HPEAVQWidget@@V?$QFlags@W4WindowType@Qt@@@@@Z 000000014000d230 f   MyDrawWidget.obj
 0001:0000c308       ??_EMyDrawWidget@@WBA@EAAPEAXI@Z 000000014000d308 f i MyDrawWidget.obj
 0001:0000c320       ??_EMyDrawWidget@@UEAAPEAXI@Z 000000014000d320 f i MyDrawWidget.obj
 0001:0000c320       ??_GMyDrawWidget@@UEAAPEAXI@Z 000000014000d320 f i MyDrawWidget.obj
 0001:0000c370       ?GetCurrentImgRect@MyDrawWidget@@QEAAPEAVQRect@@XZ 000000014000d370 f   MyDrawWidget.obj
 0001:0000c380       ?SetCurrentImgRect@MyDrawWidget@@QEAAXVQRect@@@Z 000000014000d380 f   MyDrawWidget.obj
 0001:0000c400       ?SetUpdateViewRect@MyDrawWidget@@QEAAXVQRect@@@Z 000000014000d400 f   MyDrawWidget.obj
 0001:0000c4a0       ?keyPressEvent@MyDrawWidget@@MEAAXPEAVQKeyEvent@@@Z 000000014000d4a0 f   MyDrawWidget.obj
 0001:0000c4b0       ?keyReleaseEvent@MyDrawWidget@@MEAAXPEAVQKeyEvent@@@Z 000000014000d4b0 f   MyDrawWidget.obj
 0001:0000c4c0       ?mouseDoubleClickEvent@MyDrawWidget@@MEAAXPEAVQMouseEvent@@@Z 000000014000d4c0 f   MyDrawWidget.obj
 0001:0000c4d0       ?mouseMoveEvent@MyDrawWidget@@MEAAXPEAVQMouseEvent@@@Z 000000014000d4d0 f   MyDrawWidget.obj
 0001:0000c530       ?mousePressEvent@MyDrawWidget@@MEAAXPEAVQMouseEvent@@@Z 000000014000d530 f   MyDrawWidget.obj
 0001:0000c590       ?mouseReleaseEvent@MyDrawWidget@@MEAAXPEAVQMouseEvent@@@Z 000000014000d590 f   MyDrawWidget.obj
 0001:0000c600       ?paintEvent@MyDrawWidget@@MEAAXPEAVQPaintEvent@@@Z 000000014000d600 f   MyDrawWidget.obj
 0001:0000c8a0       ?resizeEvent@MyDrawWidget@@MEAAXPEAVQResizeEvent@@@Z 000000014000d8a0 f   MyDrawWidget.obj
 0001:0000c910       ?wheelEvent@MyDrawWidget@@MEAAXPEAVQWheelEvent@@@Z 000000014000d910 f   MyDrawWidget.obj
 0001:0000c920       ??0TitleBar@@QEAA@PEAVAppMainWnd@@HPEAVQWidget@@@Z 000000014000d920 f   TitleBar.obj
 0001:0000c950       ??_GTitleBar@@UEAAPEAXI@Z  000000014000d950 f i TitleBar.obj
 0001:0000c950       ??_ETitleBar@@UEAAPEAXI@Z  000000014000d950 f i TitleBar.obj
 0001:0000c990       ?Init@TitleBar@@UEAAXXZ    000000014000d990 f   TitleBar.obj
 0001:0000cc90       ?OnAboutClicked@TitleBar@@AEAAX_N@Z 000000014000dc90 f   TitleBar.obj
 0001:0000ccf0       ?OnCloseClicked@TitleBar@@AEAAX_N@Z 000000014000dcf0 f   TitleBar.obj
 0001:0000cd10       ?OnMaxWndClicked@TitleBar@@AEAAX_N@Z 000000014000dd10 f   TitleBar.obj
 0001:0000cd90       ?OnMinWndClicked@TitleBar@@AEAAX_N@Z 000000014000dd90 f   TitleBar.obj
 0001:0000ce00       ?OnPanelMouseDoubleClick@TitleBar@@UEAAXPEAVQMouseEvent@@@Z 000000014000de00 f   TitleBar.obj
 0001:0000ce60       ?OnPanelMouseMove@TitleBar@@UEAAXPEAVQMouseEvent@@@Z 000000014000de60 f   TitleBar.obj
 0001:0000cec0       ?OnPanelMousePress@TitleBar@@UEAAXPEAVQMouseEvent@@@Z 000000014000dec0 f   TitleBar.obj
 0001:0000cf40       ?OnPanelMouseRelease@TitleBar@@UEAAXPEAVQMouseEvent@@@Z 000000014000df40 f   TitleBar.obj
 0001:0000cf50       ?Show@TitleBar@@UEAAX_N@Z  000000014000df50 f   TitleBar.obj
 0001:0000cf80       ?UnInit@TitleBar@@UEAAXXZ  000000014000df80 f   TitleBar.obj
 0001:0000cfc0       ?UpdateTitleBar@TitleBar@@QEAAXXZ 000000014000dfc0 f   TitleBar.obj
 0001:0000d0d0       ?retranslateUi@Ui_titlebar_root@@QEAAXPEAVQWidget@@@Z 000000014000e0d0 f i TitleBar.obj
 0001:0000d2a0       ?setupUi@Ui_titlebar_root@@QEAAXPEAVQWidget@@@Z 000000014000e2a0 f i TitleBar.obj
 0001:0000dbc0       ?ExceptionFilter@CrashDump@@SAJPEAU_EXCEPTION_POINTERS@@@Z 000000014000ebc0 f i main.obj
 0001:0000ddc0       ?detach_helper@?$QList@VQString@@@@AEAAXH@Z 000000014000edc0 f i main.obj
 0001:0000de90       main                       000000014000ee90 f   main.obj
 0001:0000e280       ?qt_static_metacall@MainToolbarPanel@@CAXPEAVQObject@@W4Call@QMetaObject@@HPEAPEAX@Z 000000014000f280 f   moc_MainToolbarPanel.obj
 0001:0000e310       ?metaObject@MainToolbarPanel@@UEBAPEBUQMetaObject@@XZ 000000014000f310 f   moc_MainToolbarPanel.obj
 0001:0000e330       ?qt_metacall@MainToolbarPanel@@UEAAHW4Call@QMetaObject@@HPEAPEAX@Z 000000014000f330 f   moc_MainToolbarPanel.obj
 0001:0000e440       ?qt_metacast@MainToolbarPanel@@UEAAPEAXPEBD@Z 000000014000f440 f   moc_MainToolbarPanel.obj
 0001:0000e490       ?AddRectEnd@MyDrawWidget@@QEAAXH@Z 000000014000f490 f   moc_MyDrawWidget.obj
 0001:0000e4d0       ?metaObject@MyDrawWidget@@UEBAPEBUQMetaObject@@XZ 000000014000f4d0 f   moc_MyDrawWidget.obj
 0001:0000e4f0       ?qt_metacall@MyDrawWidget@@UEAAHW4Call@QMetaObject@@HPEAPEAX@Z 000000014000f4f0 f   moc_MyDrawWidget.obj
 0001:0000e560       ?qt_metacast@MyDrawWidget@@UEAAPEAXPEBD@Z 000000014000f560 f   moc_MyDrawWidget.obj
 0001:0000e5b0       ?qt_static_metacall@MyDrawWidget@@CAXPEAVQObject@@W4Call@QMetaObject@@HPEAPEAX@Z 000000014000f5b0 f   moc_MyDrawWidget.obj
 0001:0000e630       ?metaObject@AppMainWnd@@UEBAPEBUQMetaObject@@XZ 000000014000f630 f   moc_AppMainWnd.obj
 0001:0000e650       ?qt_metacall@AppMainWnd@@UEAAHW4Call@QMetaObject@@HPEAPEAX@Z 000000014000f650 f   moc_AppMainWnd.obj
 0001:0000e6d0       ?qt_metacast@AppMainWnd@@UEAAPEAXPEBD@Z 000000014000f6d0 f   moc_AppMainWnd.obj
 0001:0000e720       ?qt_static_metacall@AppMainWnd@@CAXPEAVQObject@@W4Call@QMetaObject@@HPEAPEAX@Z 000000014000f720 f   moc_AppMainWnd.obj
 0001:0000e760       ?metaObject@DlgAbout@@UEBAPEBUQMetaObject@@XZ 000000014000f760 f   moc_DlgAbout.obj
 0001:0000e780       ?qt_metacall@DlgAbout@@UEAAHW4Call@QMetaObject@@HPEAPEAX@Z 000000014000f780 f   moc_DlgAbout.obj
 0001:0000e790       ?qt_metacast@DlgAbout@@UEAAPEAXPEBD@Z 000000014000f790 f   moc_DlgAbout.obj
 0001:0000e7e0       ?metaObject@DlgHelp@@UEBAPEBUQMetaObject@@XZ 000000014000f7e0 f   moc_DlgHelp.obj
 0001:0000e800       ?qt_metacall@DlgHelp@@UEAAHW4Call@QMetaObject@@HPEAPEAX@Z 000000014000f800 f   moc_DlgHelp.obj
 0001:0000e890       ?qt_metacast@DlgHelp@@UEAAPEAXPEBD@Z 000000014000f890 f   moc_DlgHelp.obj
 0001:0000e8e0       ?qt_static_metacall@DlgHelp@@CAXPEAVQObject@@W4Call@QMetaObject@@HPEAPEAX@Z 000000014000f8e0 f   moc_DlgHelp.obj
 0001:0000e910       ?qt_static_metacall@CompareViewPanel@@CAXPEAVQObject@@W4Call@QMetaObject@@HPEAPEAX@Z 000000014000f910 f   moc_CompareViewPanel.obj
 0001:0000e950       ?metaObject@CompareViewPanel@@UEBAPEBUQMetaObject@@XZ 000000014000f950 f   moc_CompareViewPanel.obj
 0001:0000e970       ?qt_metacall@CompareViewPanel@@UEAAHW4Call@QMetaObject@@HPEAPEAX@Z 000000014000f970 f   moc_CompareViewPanel.obj
 0001:0000ea10       ?qt_metacast@CompareViewPanel@@UEAAPEAXPEBD@Z 000000014000fa10 f   moc_CompareViewPanel.obj
 0001:0000ea60       ?qt_static_metacall@MenuManager@@CAXPEAVQObject@@W4Call@QMetaObject@@HPEAPEAX@Z 000000014000fa60 f   moc_MenuManager.obj
 0001:0000ea90       ?onMouseDoubleClickEvent@MyLabel@@QEAAXPEAVQMouseEvent@@@Z 000000014000fa90 f   moc_MyLabel.obj
 0001:0000ead0       ?onMouseMoveEvent@MyLabel@@QEAAXPEAVQMouseEvent@@@Z 000000014000fad0 f   moc_MyLabel.obj
 0001:0000eb10       ?onMousePressEvent@MyLabel@@QEAAXPEAVQMouseEvent@@@Z 000000014000fb10 f   moc_MyLabel.obj
 0001:0000eb50       ?onMouseReleaseEvent@MyLabel@@QEAAXPEAVQMouseEvent@@@Z 000000014000fb50 f   moc_MyLabel.obj
 0001:0000eb90       ?onResize@MyLabel@@QEAAXPEAVQResizeEvent@@@Z 000000014000fb90 f   moc_MyLabel.obj
 0001:0000ebd0       ?qt_static_metacall@MyLabel@@CAXPEAVQObject@@W4Call@QMetaObject@@HPEAPEAX@Z 000000014000fbd0 f   moc_MyLabel.obj
 0001:0000ed40       ?metaObject@MyPanelBase@@UEBAPEBUQMetaObject@@XZ 000000014000fd40 f   moc_MyPanelBase.obj
 0001:0000ed60       ?qt_metacall@MyPanelBase@@UEAAHW4Call@QMetaObject@@HPEAPEAX@Z 000000014000fd60 f   moc_MyPanelBase.obj
 0001:0000edd0       ?qt_metacast@MyPanelBase@@UEAAPEAXPEBD@Z 000000014000fdd0 f   moc_MyPanelBase.obj
 0001:0000ee20       ?qt_static_metacall@MyPanelBase@@CAXPEAVQObject@@W4Call@QMetaObject@@HPEAPEAX@Z 000000014000fe20 f   moc_MyPanelBase.obj
 0001:0000eed0       ?metaObject@MyWidget@@UEBAPEBUQMetaObject@@XZ 000000014000fed0 f   moc_MyWidget.obj
 0001:0000eef0       ?onKeyPressEvent@MyWidget@@QEAAXPEAVQKeyEvent@@@Z 000000014000fef0 f   moc_MyWidget.obj
 0001:0000ef30       ?onKeyReleaseEvent@MyWidget@@QEAAXPEAVQKeyEvent@@@Z 000000014000ff30 f   moc_MyWidget.obj
 0001:0000ef70       ?onMouseDoubleClickEvent@MyWidget@@QEAAXPEAVQMouseEvent@@@Z 000000014000ff70 f   moc_MyWidget.obj
 0001:0000efb0       ?onMouseMoveEvent@MyWidget@@QEAAXPEAVQMouseEvent@@@Z 000000014000ffb0 f   moc_MyWidget.obj
 0001:0000eff0       ?onMousePressEvent@MyWidget@@QEAAXPEAVQMouseEvent@@@Z 000000014000fff0 f   moc_MyWidget.obj
 0001:0000f030       ?onMouseReleaseEvent@MyWidget@@QEAAXPEAVQMouseEvent@@@Z 0000000140010030 f   moc_MyWidget.obj
 0001:0000f070       ?onMouseWheelEvent@MyWidget@@QEAAXPEAVQWheelEvent@@@Z 0000000140010070 f   moc_MyWidget.obj
 0001:0000f0b0       ?onResize@MyWidget@@QEAAXPEAVQResizeEvent@@@Z 00000001400100b0 f   moc_MyWidget.obj
 0001:0000f0f0       ?qt_metacall@MyWidget@@UEAAHW4Call@QMetaObject@@HPEAPEAX@Z 00000001400100f0 f   moc_MyWidget.obj
 0001:0000f160       ?qt_metacast@MyWidget@@UEAAPEAXPEBD@Z 0000000140010160 f   moc_MyWidget.obj
 0001:0000f1b0       ?qt_static_metacall@MyWidget@@CAXPEAVQObject@@W4Call@QMetaObject@@HPEAPEAX@Z 00000001400101b0 f   moc_MyWidget.obj
 0001:0000f360       ?FileSelected@FileBrowser@@QEAAXVQStringList@@@Z 0000000140010360 f   moc_FileBrowser.obj
 0001:0000f3b0       ?metaObject@FileBrowser@@UEBAPEBUQMetaObject@@XZ 00000001400103b0 f   moc_FileBrowser.obj
 0001:0000f3d0       ?qt_metacall@FileBrowser@@UEAAHW4Call@QMetaObject@@HPEAPEAX@Z 00000001400103d0 f   moc_FileBrowser.obj
 0001:0000f440       ?qt_metacast@FileBrowser@@UEAAPEAXPEBD@Z 0000000140010440 f   moc_FileBrowser.obj
 0001:0000f490       ?qt_static_metacall@FileBrowser@@CAXPEAVQObject@@W4Call@QMetaObject@@HPEAPEAX@Z 0000000140010490 f   moc_FileBrowser.obj
 0001:0000f530       ?metaObject@ComparePage@@UEBAPEBUQMetaObject@@XZ 0000000140010530 f   moc_ComparePage.obj
 0001:0000f550       ?qt_metacall@ComparePage@@UEAAHW4Call@QMetaObject@@HPEAPEAX@Z 0000000140010550 f   moc_ComparePage.obj
 0001:0000f560       ?qt_metacast@ComparePage@@UEAAPEAXPEBD@Z 0000000140010560 f   moc_ComparePage.obj
 0001:0000f5b0       ?qt_static_metacall@HomePage@@CAXPEAVQObject@@W4Call@QMetaObject@@HPEAPEAX@Z 00000001400105b0 f   moc_HomePage.obj
 0001:0000f5f0       ?metaObject@HomePage@@UEBAPEBUQMetaObject@@XZ 00000001400105f0 f   moc_HomePage.obj
 0001:0000f610       ?qt_metacall@HomePage@@UEAAHW4Call@QMetaObject@@HPEAPEAX@Z 0000000140010610 f   moc_HomePage.obj
 0001:0000f6b0       ?qt_metacast@HomePage@@UEAAPEAXPEBD@Z 00000001400106b0 f   moc_HomePage.obj
 0001:0000f700       ?qt_static_metacall@TitleBar@@CAXPEAVQObject@@W4Call@QMetaObject@@HPEAPEAX@Z 0000000140010700 f   moc_TitleBar.obj
 0001:0000f7a0       ?MaxWndClickedEvent@TitleBar@@QEAAX_N@Z 00000001400107a0 f   moc_TitleBar.obj
 0001:0000f7e0       ?metaObject@TitleBar@@UEBAPEBUQMetaObject@@XZ 00000001400107e0 f   moc_TitleBar.obj
 0001:0000f800       ?qt_metacall@TitleBar@@UEAAHW4Call@QMetaObject@@HPEAPEAX@Z 0000000140010800 f   moc_TitleBar.obj
 0001:0000f910       ?qt_metacast@TitleBar@@UEAAPEAXPEBD@Z 0000000140010910 f   moc_TitleBar.obj
 0001:0000f960       ?qt_static_metacall@QAbstractFormBuilderGadget@QFormInternal@@CAXPEAVQObject@@W4Call@QMetaObject@@HPEAPEAX@Z 0000000140010960 f   Qt5UiTools:moc_properties_p.obj
 0001:0000f9e4       ?resizeEvent@QWidget@@MEAAXPEAVQResizeEvent@@@Z 00000001400109e4 f   Qt5Widgets:Qt5Widgets.dll
 0001:0000f9ea       ?closeEvent@QWidget@@MEAAXPEAVQCloseEvent@@@Z 00000001400109ea f   Qt5Widgets:Qt5Widgets.dll
 0001:0000f9f0       ?showEvent@QWidget@@MEAAXPEAVQShowEvent@@@Z 00000001400109f0 f   Qt5Widgets:Qt5Widgets.dll
 0001:0000f9f6       ?actionEvent@QWidget@@MEAAXPEAVQActionEvent@@@Z 00000001400109f6 f   Qt5Widgets:Qt5Widgets.dll
 0001:0000f9fc       ?addItem@QGridLayout@@MEAAXPEAVQLayoutItem@@@Z 00000001400109fc f   Qt5Widgets:Qt5Widgets.dll
 0001:0000fa02       ?changeEvent@QFrame@@MEAAXPEAVQEvent@@@Z 0000000140010a02 f   Qt5Widgets:Qt5Widgets.dll
 0001:0000fa08       ?changeEvent@QWidget@@MEAAXPEAVQEvent@@@Z 0000000140010a08 f   Qt5Widgets:Qt5Widgets.dll
 0001:0000fa0e       ?childEvent@QLayout@@MEAAXPEAVQChildEvent@@@Z 0000000140010a0e f   Qt5Widgets:Qt5Widgets.dll
 0001:0000fa14       ?contextMenuEvent@QMainWindow@@MEAAXPEAVQContextMenuEvent@@@Z 0000000140010a14 f   Qt5Widgets:Qt5Widgets.dll
 0001:0000fa1a       ?contextMenuEvent@QWidget@@MEAAXPEAVQContextMenuEvent@@@Z 0000000140010a1a f   Qt5Widgets:Qt5Widgets.dll
 0001:0000fa20       ?controlTypes@QLayout@@UEBA?AV?$QFlags@W4ControlType@QSizePolicy@@@@XZ 0000000140010a20 f   Qt5Widgets:Qt5Widgets.dll
 0001:0000fa26       ?count@QGridLayout@@UEBAHXZ 0000000140010a26 f   Qt5Widgets:Qt5Widgets.dll
 0001:0000fa2c       ?createPopupMenu@QMainWindow@@UEAAPEAVQMenu@@XZ 0000000140010a2c f   Qt5Widgets:Qt5Widgets.dll
 0001:0000fa32       ?devType@QWidget@@UEBAHXZ  0000000140010a32 f   Qt5Widgets:Qt5Widgets.dll
 0001:0000fa38       ?dragEnterEvent@QWidget@@MEAAXPEAVQDragEnterEvent@@@Z 0000000140010a38 f   Qt5Widgets:Qt5Widgets.dll
 0001:0000fa3e       ?dragLeaveEvent@QWidget@@MEAAXPEAVQDragLeaveEvent@@@Z 0000000140010a3e f   Qt5Widgets:Qt5Widgets.dll
 0001:0000fa44       ?dragMoveEvent@QWidget@@MEAAXPEAVQDragMoveEvent@@@Z 0000000140010a44 f   Qt5Widgets:Qt5Widgets.dll
 0001:0000fa4a       ?dropEvent@QWidget@@MEAAXPEAVQDropEvent@@@Z 0000000140010a4a f   Qt5Widgets:Qt5Widgets.dll
 0001:0000fa50       ?enterEvent@QWidget@@MEAAXPEAVQEvent@@@Z 0000000140010a50 f   Qt5Widgets:Qt5Widgets.dll
 0001:0000fa56       ?event@QFrame@@MEAA_NPEAVQEvent@@@Z 0000000140010a56 f   Qt5Widgets:Qt5Widgets.dll
 0001:0000fa5c       ?event@QMainWindow@@MEAA_NPEAVQEvent@@@Z 0000000140010a5c f   Qt5Widgets:Qt5Widgets.dll
 0001:0000fa62       ?event@QWidget@@MEAA_NPEAVQEvent@@@Z 0000000140010a62 f   Qt5Widgets:Qt5Widgets.dll
 0001:0000fa68       ?expandingDirections@QGridLayout@@UEBA?AV?$QFlags@W4Orientation@Qt@@@@XZ 0000000140010a68 f   Qt5Widgets:Qt5Widgets.dll
 0001:0000fa6e       ?focusInEvent@QWidget@@MEAAXPEAVQFocusEvent@@@Z 0000000140010a6e f   Qt5Widgets:Qt5Widgets.dll
 0001:0000fa74       ?focusNextPrevChild@QWidget@@MEAA_N_N@Z 0000000140010a74 f   Qt5Widgets:Qt5Widgets.dll
 0001:0000fa7a       ?focusOutEvent@QWidget@@MEAAXPEAVQFocusEvent@@@Z 0000000140010a7a f   Qt5Widgets:Qt5Widgets.dll
 0001:0000fa80       ?geometry@QLayout@@UEBA?AVQRect@@XZ 0000000140010a80 f   Qt5Widgets:Qt5Widgets.dll
 0001:0000fa86       ?hasHeightForWidth@QGridLayout@@UEBA_NXZ 0000000140010a86 f   Qt5Widgets:Qt5Widgets.dll
 0001:0000fa8c       ?hasHeightForWidth@QWidget@@UEBA_NXZ 0000000140010a8c f   Qt5Widgets:Qt5Widgets.dll
 0001:0000fa92       ?heightForWidth@QGridLayout@@UEBAHH@Z 0000000140010a92 f   Qt5Widgets:Qt5Widgets.dll
 0001:0000fa98       ?heightForWidth@QWidget@@UEBAHH@Z 0000000140010a98 f   Qt5Widgets:Qt5Widgets.dll
 0001:0000fa9e       ?hideEvent@QWidget@@MEAAXPEAVQHideEvent@@@Z 0000000140010a9e f   Qt5Widgets:Qt5Widgets.dll
 0001:0000faa4       ?indexOf@QLayout@@UEBAHPEAVQWidget@@@Z 0000000140010aa4 f   Qt5Widgets:Qt5Widgets.dll
 0001:0000faaa       ?initPainter@QWidget@@MEBAXPEAVQPainter@@@Z 0000000140010aaa f   Qt5Widgets:Qt5Widgets.dll
 0001:0000fab0       ?inputMethodEvent@QWidget@@MEAAXPEAVQInputMethodEvent@@@Z 0000000140010ab0 f   Qt5Widgets:Qt5Widgets.dll
 0001:0000fab6       ?inputMethodQuery@QWidget@@UEBA?AVQVariant@@W4InputMethodQuery@Qt@@@Z 0000000140010ab6 f   Qt5Widgets:Qt5Widgets.dll
 0001:0000fabc       ?invalidate@QGridLayout@@UEAAXXZ 0000000140010abc f   Qt5Widgets:Qt5Widgets.dll
 0001:0000fac2       ?isEmpty@QLayout@@UEBA_NXZ 0000000140010ac2 f   Qt5Widgets:Qt5Widgets.dll
 0001:0000fac8       ?itemAt@QGridLayout@@UEBAPEAVQLayoutItem@@H@Z 0000000140010ac8 f   Qt5Widgets:Qt5Widgets.dll
 0001:0000face       ?keyPressEvent@QWidget@@MEAAXPEAVQKeyEvent@@@Z 0000000140010ace f   Qt5Widgets:Qt5Widgets.dll
 0001:0000fad4       ?keyReleaseEvent@QWidget@@MEAAXPEAVQKeyEvent@@@Z 0000000140010ad4 f   Qt5Widgets:Qt5Widgets.dll
 0001:0000fada       ?layout@QLayout@@UEAAPEAV1@XZ 0000000140010ada f   Qt5Widgets:Qt5Widgets.dll
 0001:0000fae0       ?leaveEvent@QWidget@@MEAAXPEAVQEvent@@@Z 0000000140010ae0 f   Qt5Widgets:Qt5Widgets.dll
 0001:0000fae6       ?maximumSize@QGridLayout@@UEBA?AVQSize@@XZ 0000000140010ae6 f   Qt5Widgets:Qt5Widgets.dll
 0001:0000faec       ?metaObject@QFrame@@UEBAPEBUQMetaObject@@XZ 0000000140010aec f   Qt5Widgets:Qt5Widgets.dll
 0001:0000faf2       ?metaObject@QGridLayout@@UEBAPEBUQMetaObject@@XZ 0000000140010af2 f   Qt5Widgets:Qt5Widgets.dll
 0001:0000faf8       ?metaObject@QWidget@@UEBAPEBUQMetaObject@@XZ 0000000140010af8 f   Qt5Widgets:Qt5Widgets.dll
 0001:0000fafe       ?metric@QWidget@@MEBAHW4PaintDeviceMetric@QPaintDevice@@@Z 0000000140010afe f   Qt5Widgets:Qt5Widgets.dll
 0001:0000fb04       ?minimumHeightForWidth@QGridLayout@@UEBAHH@Z 0000000140010b04 f   Qt5Widgets:Qt5Widgets.dll
 0001:0000fb0a       ?minimumSize@QGridLayout@@UEBA?AVQSize@@XZ 0000000140010b0a f   Qt5Widgets:Qt5Widgets.dll
 0001:0000fb10       ?minimumSizeHint@QWidget@@UEBA?AVQSize@@XZ 0000000140010b10 f   Qt5Widgets:Qt5Widgets.dll
 0001:0000fb16       ?mouseDoubleClickEvent@QWidget@@MEAAXPEAVQMouseEvent@@@Z 0000000140010b16 f   Qt5Widgets:Qt5Widgets.dll
 0001:0000fb1c       ?mouseMoveEvent@QWidget@@MEAAXPEAVQMouseEvent@@@Z 0000000140010b1c f   Qt5Widgets:Qt5Widgets.dll
 0001:0000fb22       ?mousePressEvent@QWidget@@MEAAXPEAVQMouseEvent@@@Z 0000000140010b22 f   Qt5Widgets:Qt5Widgets.dll
 0001:0000fb28       ?mouseReleaseEvent@QWidget@@MEAAXPEAVQMouseEvent@@@Z 0000000140010b28 f   Qt5Widgets:Qt5Widgets.dll
 0001:0000fb2e       ?moveEvent@QWidget@@MEAAXPEAVQMoveEvent@@@Z 0000000140010b2e f   Qt5Widgets:Qt5Widgets.dll
 0001:0000fb34       ?nativeEvent@QWidget@@MEAA_NAEBVQByteArray@@PEAXPEAJ@Z 0000000140010b34 f   Qt5Widgets:Qt5Widgets.dll
 0001:0000fb3a       ?paintEngine@QWidget@@UEBAPEAVQPaintEngine@@XZ 0000000140010b3a f   Qt5Widgets:Qt5Widgets.dll
 0001:0000fb40       ?paintEvent@QFrame@@MEAAXPEAVQPaintEvent@@@Z 0000000140010b40 f   Qt5Widgets:Qt5Widgets.dll
 0001:0000fb46       ?paintEvent@QWidget@@MEAAXPEAVQPaintEvent@@@Z 0000000140010b46 f   Qt5Widgets:Qt5Widgets.dll
 0001:0000fb4c       ?qt_metacall@QFrame@@UEAAHW4Call@QMetaObject@@HPEAPEAX@Z 0000000140010b4c f   Qt5Widgets:Qt5Widgets.dll
 0001:0000fb52       ?qt_metacall@QGridLayout@@UEAAHW4Call@QMetaObject@@HPEAPEAX@Z 0000000140010b52 f   Qt5Widgets:Qt5Widgets.dll
 0001:0000fb58       ?qt_metacall@QWidget@@UEAAHW4Call@QMetaObject@@HPEAPEAX@Z 0000000140010b58 f   Qt5Widgets:Qt5Widgets.dll
 0001:0000fb5e       ?qt_metacast@QFrame@@UEAAPEAXPEBD@Z 0000000140010b5e f   Qt5Widgets:Qt5Widgets.dll
 0001:0000fb64       ?qt_metacast@QGridLayout@@UEAAPEAXPEBD@Z 0000000140010b64 f   Qt5Widgets:Qt5Widgets.dll
 0001:0000fb6a       ?qt_metacast@QWidget@@UEAAPEAXPEBD@Z 0000000140010b6a f   Qt5Widgets:Qt5Widgets.dll
 0001:0000fb70       ?redirected@QWidget@@MEBAPEAVQPaintDevice@@PEAVQPoint@@@Z 0000000140010b70 f   Qt5Widgets:Qt5Widgets.dll
 0001:0000fb76       ?setGeometry@QGridLayout@@UEAAXAEBVQRect@@@Z 0000000140010b76 f   Qt5Widgets:Qt5Widgets.dll
 0001:0000fb7c       ?setVisible@QWidget@@UEAAX_N@Z 0000000140010b7c f   Qt5Widgets:Qt5Widgets.dll
 0001:0000fb82       ?sharedPainter@QWidget@@MEBAPEAVQPainter@@XZ 0000000140010b82 f   Qt5Widgets:Qt5Widgets.dll
 0001:0000fb88       ?sizeHint@QFrame@@UEBA?AVQSize@@XZ 0000000140010b88 f   Qt5Widgets:Qt5Widgets.dll
 0001:0000fb8e       ?sizeHint@QGridLayout@@UEBA?AVQSize@@XZ 0000000140010b8e f   Qt5Widgets:Qt5Widgets.dll
 0001:0000fb94       ?sizeHint@QWidget@@UEBA?AVQSize@@XZ 0000000140010b94 f   Qt5Widgets:Qt5Widgets.dll
 0001:0000fb9a       ?spacerItem@QLayoutItem@@UEAAPEAVQSpacerItem@@XZ 0000000140010b9a f   Qt5Widgets:Qt5Widgets.dll
 0001:0000fba0       ?tabletEvent@QWidget@@MEAAXPEAVQTabletEvent@@@Z 0000000140010ba0 f   Qt5Widgets:Qt5Widgets.dll
 0001:0000fba6       ?takeAt@QGridLayout@@UEAAPEAVQLayoutItem@@H@Z 0000000140010ba6 f   Qt5Widgets:Qt5Widgets.dll
 0001:0000fbac       ?wheelEvent@QWidget@@MEAAXPEAVQWheelEvent@@@Z 0000000140010bac f   Qt5Widgets:Qt5Widgets.dll
 0001:0000fbb2       ?widget@QLayoutItem@@UEAAPEAVQWidget@@XZ 0000000140010bb2 f   Qt5Widgets:Qt5Widgets.dll
 0001:0000fbb8       ?accept@QDialog@@UEAAXXZ   0000000140010bb8 f   Qt5Widgets:Qt5Widgets.dll
 0001:0000fbbe       ?backward@QTextBrowser@@UEAAXXZ 0000000140010bbe f   Qt5Widgets:Qt5Widgets.dll
 0001:0000fbc4       ?canInsertFromMimeData@QTextEdit@@MEBA_NPEBVQMimeData@@@Z 0000000140010bc4 f   Qt5Widgets:Qt5Widgets.dll
 0001:0000fbca       ?changeEvent@QAbstractButton@@MEAAXPEAVQEvent@@@Z 0000000140010bca f   Qt5Widgets:Qt5Widgets.dll
 0001:0000fbd0       ?changeEvent@QTextEdit@@MEAAXPEAVQEvent@@@Z 0000000140010bd0 f   Qt5Widgets:Qt5Widgets.dll
 0001:0000fbd6       ?checkStateSet@QAbstractButton@@MEAAXXZ 0000000140010bd6 f   Qt5Widgets:Qt5Widgets.dll
 0001:0000fbdc       ?contextMenuEvent@QAbstractScrollArea@@MEAAXPEAVQContextMenuEvent@@@Z 0000000140010bdc f   Qt5Widgets:Qt5Widgets.dll
 0001:0000fbe2       ?contextMenuEvent@QDialog@@MEAAXPEAVQContextMenuEvent@@@Z 0000000140010be2 f   Qt5Widgets:Qt5Widgets.dll
 0001:0000fbe8       ?contextMenuEvent@QTextEdit@@MEAAXPEAVQContextMenuEvent@@@Z 0000000140010be8 f   Qt5Widgets:Qt5Widgets.dll
 0001:0000fbee       ?createMimeDataFromSelection@QTextEdit@@MEBAPEAVQMimeData@@XZ 0000000140010bee f   Qt5Widgets:Qt5Widgets.dll
 0001:0000fbf4       ?doSetTextCursor@QTextEdit@@MEAAXAEBVQTextCursor@@@Z 0000000140010bf4 f   Qt5Widgets:Qt5Widgets.dll
 0001:0000fbfa       ?done@QDialog@@UEAAXH@Z    0000000140010bfa f   Qt5Widgets:Qt5Widgets.dll
 0001:0000fc00       ?dragEnterEvent@QAbstractScrollArea@@MEAAXPEAVQDragEnterEvent@@@Z 0000000140010c00 f   Qt5Widgets:Qt5Widgets.dll
 0001:0000fc06       ?dragEnterEvent@QTextEdit@@MEAAXPEAVQDragEnterEvent@@@Z 0000000140010c06 f   Qt5Widgets:Qt5Widgets.dll
 0001:0000fc0c       ?dragLeaveEvent@QAbstractScrollArea@@MEAAXPEAVQDragLeaveEvent@@@Z 0000000140010c0c f   Qt5Widgets:Qt5Widgets.dll
 0001:0000fc12       ?dragLeaveEvent@QTextEdit@@MEAAXPEAVQDragLeaveEvent@@@Z 0000000140010c12 f   Qt5Widgets:Qt5Widgets.dll
 0001:0000fc18       ?dragMoveEvent@QAbstractScrollArea@@MEAAXPEAVQDragMoveEvent@@@Z 0000000140010c18 f   Qt5Widgets:Qt5Widgets.dll
 0001:0000fc1e       ?dragMoveEvent@QTextEdit@@MEAAXPEAVQDragMoveEvent@@@Z 0000000140010c1e f   Qt5Widgets:Qt5Widgets.dll
 0001:0000fc24       ?dropEvent@QAbstractScrollArea@@MEAAXPEAVQDropEvent@@@Z 0000000140010c24 f   Qt5Widgets:Qt5Widgets.dll
 0001:0000fc2a       ?dropEvent@QTextEdit@@MEAAXPEAVQDropEvent@@@Z 0000000140010c2a f   Qt5Widgets:Qt5Widgets.dll
 0001:0000fc30       ?event@QPushButton@@MEAA_NPEAVQEvent@@@Z 0000000140010c30 f   Qt5Widgets:Qt5Widgets.dll
 0001:0000fc36       ?event@QScrollArea@@MEAA_NPEAVQEvent@@@Z 0000000140010c36 f   Qt5Widgets:Qt5Widgets.dll
 0001:0000fc3c       ?event@QTextBrowser@@MEAA_NPEAVQEvent@@@Z 0000000140010c3c f   Qt5Widgets:Qt5Widgets.dll
 0001:0000fc42       ?eventFilter@QAbstractScrollArea@@MEAA_NPEAVQObject@@PEAVQEvent@@@Z 0000000140010c42 f   Qt5Widgets:Qt5Widgets.dll
 0001:0000fc48       ?eventFilter@QDialog@@MEAA_NPEAVQObject@@PEAVQEvent@@@Z 0000000140010c48 f   Qt5Widgets:Qt5Widgets.dll
 0001:0000fc4e       ?eventFilter@QScrollArea@@MEAA_NPEAVQObject@@PEAVQEvent@@@Z 0000000140010c4e f   Qt5Widgets:Qt5Widgets.dll
 0001:0000fc54       ?exec@QDialog@@UEAAHXZ     0000000140010c54 f   Qt5Widgets:Qt5Widgets.dll
 0001:0000fc5a       ?focusInEvent@QPushButton@@MEAAXPEAVQFocusEvent@@@Z 0000000140010c5a f   Qt5Widgets:Qt5Widgets.dll
 0001:0000fc60       ?focusInEvent@QTextEdit@@MEAAXPEAVQFocusEvent@@@Z 0000000140010c60 f   Qt5Widgets:Qt5Widgets.dll
 0001:0000fc66       ?focusNextPrevChild@QScrollArea@@UEAA_N_N@Z 0000000140010c66 f   Qt5Widgets:Qt5Widgets.dll
 0001:0000fc6c       ?focusNextPrevChild@QTextBrowser@@MEAA_N_N@Z 0000000140010c6c f   Qt5Widgets:Qt5Widgets.dll
 0001:0000fc72       ?focusOutEvent@QPushButton@@MEAAXPEAVQFocusEvent@@@Z 0000000140010c72 f   Qt5Widgets:Qt5Widgets.dll
 0001:0000fc78       ?focusOutEvent@QTextBrowser@@MEAAXPEAVQFocusEvent@@@Z 0000000140010c78 f   Qt5Widgets:Qt5Widgets.dll
 0001:0000fc7e       ?forward@QTextBrowser@@UEAAXXZ 0000000140010c7e f   Qt5Widgets:Qt5Widgets.dll
 0001:0000fc84       ?hitButton@QAbstractButton@@MEBA_NAEBVQPoint@@@Z 0000000140010c84 f   Qt5Widgets:Qt5Widgets.dll
 0001:0000fc8a       ?home@QTextBrowser@@UEAAXXZ 0000000140010c8a f   Qt5Widgets:Qt5Widgets.dll
 0001:0000fc90       ?inputMethodEvent@QTextEdit@@MEAAXPEAVQInputMethodEvent@@@Z 0000000140010c90 f   Qt5Widgets:Qt5Widgets.dll
 0001:0000fc96       ?inputMethodQuery@QTextEdit@@UEBA?AVQVariant@@W4InputMethodQuery@Qt@@@Z 0000000140010c96 f   Qt5Widgets:Qt5Widgets.dll
 0001:0000fc9c       ?insertFromMimeData@QTextEdit@@MEAAXPEBVQMimeData@@@Z 0000000140010c9c f   Qt5Widgets:Qt5Widgets.dll
 0001:0000fca2       ?keyPressEvent@QAbstractScrollArea@@MEAAXPEAVQKeyEvent@@@Z 0000000140010ca2 f   Qt5Widgets:Qt5Widgets.dll
 0001:0000fca8       ?keyPressEvent@QDialog@@MEAAXPEAVQKeyEvent@@@Z 0000000140010ca8 f   Qt5Widgets:Qt5Widgets.dll
 0001:0000fcae       ?keyPressEvent@QPushButton@@MEAAXPEAVQKeyEvent@@@Z 0000000140010cae f   Qt5Widgets:Qt5Widgets.dll
 0001:0000fcb4       ?keyPressEvent@QTextBrowser@@MEAAXPEAVQKeyEvent@@@Z 0000000140010cb4 f   Qt5Widgets:Qt5Widgets.dll
 0001:0000fcba       ?keyReleaseEvent@QAbstractButton@@MEAAXPEAVQKeyEvent@@@Z 0000000140010cba f   Qt5Widgets:Qt5Widgets.dll
 0001:0000fcc0       ?keyReleaseEvent@QTextEdit@@MEAAXPEAVQKeyEvent@@@Z 0000000140010cc0 f   Qt5Widgets:Qt5Widgets.dll
 0001:0000fcc6       ?loadResource@QTextBrowser@@UEAA?AVQVariant@@HAEBVQUrl@@@Z 0000000140010cc6 f   Qt5Widgets:Qt5Widgets.dll
 0001:0000fccc       ?metaObject@QPushButton@@UEBAPEBUQMetaObject@@XZ 0000000140010ccc f   Qt5Widgets:Qt5Widgets.dll
 0001:0000fcd2       ?metaObject@QScrollArea@@UEBAPEBUQMetaObject@@XZ 0000000140010cd2 f   Qt5Widgets:Qt5Widgets.dll
 0001:0000fcd8       ?metaObject@QTextBrowser@@UEBAPEBUQMetaObject@@XZ 0000000140010cd8 f   Qt5Widgets:Qt5Widgets.dll
 0001:0000fcde       ?minimumSizeHint@QAbstractScrollArea@@UEBA?AVQSize@@XZ 0000000140010cde f   Qt5Widgets:Qt5Widgets.dll
 0001:0000fce4       ?minimumSizeHint@QDialog@@UEBA?AVQSize@@XZ 0000000140010ce4 f   Qt5Widgets:Qt5Widgets.dll
 0001:0000fcea       ?minimumSizeHint@QPushButton@@UEBA?AVQSize@@XZ 0000000140010cea f   Qt5Widgets:Qt5Widgets.dll
 0001:0000fcf0       ?mouseDoubleClickEvent@QAbstractScrollArea@@MEAAXPEAVQMouseEvent@@@Z 0000000140010cf0 f   Qt5Widgets:Qt5Widgets.dll
 0001:0000fcf6       ?mouseDoubleClickEvent@QTextEdit@@MEAAXPEAVQMouseEvent@@@Z 0000000140010cf6 f   Qt5Widgets:Qt5Widgets.dll
 0001:0000fcfc       ?mouseMoveEvent@QAbstractButton@@MEAAXPEAVQMouseEvent@@@Z 0000000140010cfc f   Qt5Widgets:Qt5Widgets.dll
 0001:0000fd02       ?mouseMoveEvent@QAbstractScrollArea@@MEAAXPEAVQMouseEvent@@@Z 0000000140010d02 f   Qt5Widgets:Qt5Widgets.dll
 0001:0000fd08       ?mouseMoveEvent@QTextBrowser@@MEAAXPEAVQMouseEvent@@@Z 0000000140010d08 f   Qt5Widgets:Qt5Widgets.dll
 0001:0000fd0e       ?mousePressEvent@QAbstractButton@@MEAAXPEAVQMouseEvent@@@Z 0000000140010d0e f   Qt5Widgets:Qt5Widgets.dll
 0001:0000fd14       ?mousePressEvent@QAbstractScrollArea@@MEAAXPEAVQMouseEvent@@@Z 0000000140010d14 f   Qt5Widgets:Qt5Widgets.dll
 0001:0000fd1a       ?mousePressEvent@QTextBrowser@@MEAAXPEAVQMouseEvent@@@Z 0000000140010d1a f   Qt5Widgets:Qt5Widgets.dll
 0001:0000fd20       ?mouseReleaseEvent@QAbstractButton@@MEAAXPEAVQMouseEvent@@@Z 0000000140010d20 f   Qt5Widgets:Qt5Widgets.dll
 0001:0000fd26       ?mouseReleaseEvent@QAbstractScrollArea@@MEAAXPEAVQMouseEvent@@@Z 0000000140010d26 f   Qt5Widgets:Qt5Widgets.dll
 0001:0000fd2c       ?mouseReleaseEvent@QTextBrowser@@MEAAXPEAVQMouseEvent@@@Z 0000000140010d2c f   Qt5Widgets:Qt5Widgets.dll
 0001:0000fd32       ?nextCheckState@QAbstractButton@@MEAAXXZ 0000000140010d32 f   Qt5Widgets:Qt5Widgets.dll
 0001:0000fd38       ?open@QDialog@@UEAAXXZ     0000000140010d38 f   Qt5Widgets:Qt5Widgets.dll
 0001:0000fd3e       ?paintEvent@QAbstractScrollArea@@MEAAXPEAVQPaintEvent@@@Z 0000000140010d3e f   Qt5Widgets:Qt5Widgets.dll
 0001:0000fd44       ?paintEvent@QPushButton@@MEAAXPEAVQPaintEvent@@@Z 0000000140010d44 f   Qt5Widgets:Qt5Widgets.dll
 0001:0000fd4a       ?paintEvent@QTextBrowser@@MEAAXPEAVQPaintEvent@@@Z 0000000140010d4a f   Qt5Widgets:Qt5Widgets.dll
 0001:0000fd50       ?qt_metacall@QPushButton@@UEAAHW4Call@QMetaObject@@HPEAPEAX@Z 0000000140010d50 f   Qt5Widgets:Qt5Widgets.dll
 0001:0000fd56       ?qt_metacall@QScrollArea@@UEAAHW4Call@QMetaObject@@HPEAPEAX@Z 0000000140010d56 f   Qt5Widgets:Qt5Widgets.dll
 0001:0000fd5c       ?qt_metacall@QTextBrowser@@UEAAHW4Call@QMetaObject@@HPEAPEAX@Z 0000000140010d5c f   Qt5Widgets:Qt5Widgets.dll
 0001:0000fd62       ?qt_metacast@QPushButton@@UEAAPEAXPEBD@Z 0000000140010d62 f   Qt5Widgets:Qt5Widgets.dll
 0001:0000fd68       ?qt_metacast@QScrollArea@@UEAAPEAXPEBD@Z 0000000140010d68 f   Qt5Widgets:Qt5Widgets.dll
 0001:0000fd6e       ?qt_metacast@QTextBrowser@@UEAAPEAXPEBD@Z 0000000140010d6e f   Qt5Widgets:Qt5Widgets.dll
 0001:0000fd74       ?reject@QDialog@@UEAAXXZ   0000000140010d74 f   Qt5Widgets:Qt5Widgets.dll
 0001:0000fd7a       ?reload@QTextBrowser@@UEAAXXZ 0000000140010d7a f   Qt5Widgets:Qt5Widgets.dll
 0001:0000fd80       ?resizeEvent@QScrollArea@@MEAAXPEAVQResizeEvent@@@Z 0000000140010d80 f   Qt5Widgets:Qt5Widgets.dll
 0001:0000fd86       ?resizeEvent@QTextEdit@@MEAAXPEAVQResizeEvent@@@Z 0000000140010d86 f   Qt5Widgets:Qt5Widgets.dll
 0001:0000fd8c       ?scrollContentsBy@QScrollArea@@MEAAXHH@Z 0000000140010d8c f   Qt5Widgets:Qt5Widgets.dll
 0001:0000fd92       ?scrollContentsBy@QTextEdit@@MEAAXHH@Z 0000000140010d92 f   Qt5Widgets:Qt5Widgets.dll
 0001:0000fd98       ?setSource@QTextBrowser@@UEAAXAEBVQUrl@@@Z 0000000140010d98 f   Qt5Widgets:Qt5Widgets.dll
 0001:0000fd9e       ?setVisible@QDialog@@UEAAX_N@Z 0000000140010d9e f   Qt5Widgets:Qt5Widgets.dll
 0001:0000fda4       ?setupViewport@QAbstractScrollArea@@UEAAXPEAVQWidget@@@Z 0000000140010da4 f   Qt5Widgets:Qt5Widgets.dll
 0001:0000fdaa       ?showEvent@QTextEdit@@MEAAXPEAVQShowEvent@@@Z 0000000140010daa f   Qt5Widgets:Qt5Widgets.dll
 0001:0000fdb0       ?sizeHint@QAbstractScrollArea@@UEBA?AVQSize@@XZ 0000000140010db0 f   Qt5Widgets:Qt5Widgets.dll
 0001:0000fdb6       ?sizeHint@QDialog@@UEBA?AVQSize@@XZ 0000000140010db6 f   Qt5Widgets:Qt5Widgets.dll
 0001:0000fdbc       ?sizeHint@QPushButton@@UEBA?AVQSize@@XZ 0000000140010dbc f   Qt5Widgets:Qt5Widgets.dll
 0001:0000fdc2       ?sizeHint@QScrollArea@@UEBA?AVQSize@@XZ 0000000140010dc2 f   Qt5Widgets:Qt5Widgets.dll
 0001:0000fdc8       ?timerEvent@QAbstractButton@@MEAAXPEAVQTimerEvent@@@Z 0000000140010dc8 f   Qt5Widgets:Qt5Widgets.dll
 0001:0000fdce       ?timerEvent@QTextEdit@@MEAAXPEAVQTimerEvent@@@Z 0000000140010dce f   Qt5Widgets:Qt5Widgets.dll
 0001:0000fdd4       ?viewportEvent@QAbstractScrollArea@@MEAA_NPEAVQEvent@@@Z 0000000140010dd4 f   Qt5Widgets:Qt5Widgets.dll
 0001:0000fdda       ?viewportSizeHint@QAbstractScrollArea@@MEBA?AVQSize@@XZ 0000000140010dda f   Qt5Widgets:Qt5Widgets.dll
 0001:0000fde0       ?viewportSizeHint@QScrollArea@@MEBA?AVQSize@@XZ 0000000140010de0 f   Qt5Widgets:Qt5Widgets.dll
 0001:0000fde6       ?wheelEvent@QAbstractScrollArea@@MEAAXPEAVQWheelEvent@@@Z 0000000140010de6 f   Qt5Widgets:Qt5Widgets.dll
 0001:0000fdec       ?wheelEvent@QTextEdit@@MEAAXPEAVQWheelEvent@@@Z 0000000140010dec f   Qt5Widgets:Qt5Widgets.dll
 0001:0000fdf2       ?addItem@QBoxLayout@@UEAAXPEAVQLayoutItem@@@Z 0000000140010df2 f   Qt5Widgets:Qt5Widgets.dll
 0001:0000fdf8       ?changeEvent@QLabel@@MEAAXPEAVQEvent@@@Z 0000000140010df8 f   Qt5Widgets:Qt5Widgets.dll
 0001:0000fdfe       ?contextMenuEvent@QLabel@@MEAAXPEAVQContextMenuEvent@@@Z 0000000140010dfe f   Qt5Widgets:Qt5Widgets.dll
 0001:0000fe04       ?count@QBoxLayout@@UEBAHXZ 0000000140010e04 f   Qt5Widgets:Qt5Widgets.dll
 0001:0000fe0a       ?event@QLabel@@MEAA_NPEAVQEvent@@@Z 0000000140010e0a f   Qt5Widgets:Qt5Widgets.dll
 0001:0000fe10       ?expandingDirections@QBoxLayout@@UEBA?AV?$QFlags@W4Orientation@Qt@@@@XZ 0000000140010e10 f   Qt5Widgets:Qt5Widgets.dll
 0001:0000fe16       ?focusInEvent@QLabel@@MEAAXPEAVQFocusEvent@@@Z 0000000140010e16 f   Qt5Widgets:Qt5Widgets.dll
 0001:0000fe1c       ?focusNextPrevChild@QLabel@@MEAA_N_N@Z 0000000140010e1c f   Qt5Widgets:Qt5Widgets.dll
 0001:0000fe22       ?focusOutEvent@QLabel@@MEAAXPEAVQFocusEvent@@@Z 0000000140010e22 f   Qt5Widgets:Qt5Widgets.dll
 0001:0000fe28       ?hasHeightForWidth@QBoxLayout@@UEBA_NXZ 0000000140010e28 f   Qt5Widgets:Qt5Widgets.dll
 0001:0000fe2e       ?heightForWidth@QBoxLayout@@UEBAHH@Z 0000000140010e2e f   Qt5Widgets:Qt5Widgets.dll
 0001:0000fe34       ?heightForWidth@QLabel@@UEBAHH@Z 0000000140010e34 f   Qt5Widgets:Qt5Widgets.dll
 0001:0000fe3a       ?invalidate@QBoxLayout@@UEAAXXZ 0000000140010e3a f   Qt5Widgets:Qt5Widgets.dll
 0001:0000fe40       ?itemAt@QBoxLayout@@UEBAPEAVQLayoutItem@@H@Z 0000000140010e40 f   Qt5Widgets:Qt5Widgets.dll
 0001:0000fe46       ?keyPressEvent@QLabel@@MEAAXPEAVQKeyEvent@@@Z 0000000140010e46 f   Qt5Widgets:Qt5Widgets.dll
 0001:0000fe4c       ?maximumSize@QBoxLayout@@UEBA?AVQSize@@XZ 0000000140010e4c f   Qt5Widgets:Qt5Widgets.dll
 0001:0000fe52       ?metaObject@QLabel@@UEBAPEBUQMetaObject@@XZ 0000000140010e52 f   Qt5Widgets:Qt5Widgets.dll
 0001:0000fe58       ?metaObject@QVBoxLayout@@UEBAPEBUQMetaObject@@XZ 0000000140010e58 f   Qt5Widgets:Qt5Widgets.dll
 0001:0000fe5e       ?minimumHeightForWidth@QBoxLayout@@UEBAHH@Z 0000000140010e5e f   Qt5Widgets:Qt5Widgets.dll
 0001:0000fe64       ?minimumSize@QBoxLayout@@UEBA?AVQSize@@XZ 0000000140010e64 f   Qt5Widgets:Qt5Widgets.dll
 0001:0000fe6a       ?minimumSizeHint@QLabel@@UEBA?AVQSize@@XZ 0000000140010e6a f   Qt5Widgets:Qt5Widgets.dll
 0001:0000fe70       ?mouseMoveEvent@QLabel@@MEAAXPEAVQMouseEvent@@@Z 0000000140010e70 f   Qt5Widgets:Qt5Widgets.dll
 0001:0000fe76       ?mousePressEvent@QLabel@@MEAAXPEAVQMouseEvent@@@Z 0000000140010e76 f   Qt5Widgets:Qt5Widgets.dll
 0001:0000fe7c       ?mouseReleaseEvent@QLabel@@MEAAXPEAVQMouseEvent@@@Z 0000000140010e7c f   Qt5Widgets:Qt5Widgets.dll
 0001:0000fe82       ?paintEvent@QLabel@@MEAAXPEAVQPaintEvent@@@Z 0000000140010e82 f   Qt5Widgets:Qt5Widgets.dll
 0001:0000fe88       ?qt_metacall@QLabel@@UEAAHW4Call@QMetaObject@@HPEAPEAX@Z 0000000140010e88 f   Qt5Widgets:Qt5Widgets.dll
 0001:0000fe8e       ?qt_metacall@QVBoxLayout@@UEAAHW4Call@QMetaObject@@HPEAPEAX@Z 0000000140010e8e f   Qt5Widgets:Qt5Widgets.dll
 0001:0000fe94       ?qt_metacast@QLabel@@UEAAPEAXPEBD@Z 0000000140010e94 f   Qt5Widgets:Qt5Widgets.dll
 0001:0000fe9a       ?qt_metacast@QVBoxLayout@@UEAAPEAXPEBD@Z 0000000140010e9a f   Qt5Widgets:Qt5Widgets.dll
 0001:0000fea0       ?setGeometry@QBoxLayout@@UEAAXAEBVQRect@@@Z 0000000140010ea0 f   Qt5Widgets:Qt5Widgets.dll
 0001:0000fea6       ?sizeHint@QBoxLayout@@UEBA?AVQSize@@XZ 0000000140010ea6 f   Qt5Widgets:Qt5Widgets.dll
 0001:0000feac       ?sizeHint@QLabel@@UEBA?AVQSize@@XZ 0000000140010eac f   Qt5Widgets:Qt5Widgets.dll
 0001:0000feb2       ?takeAt@QBoxLayout@@UEAAPEAVQLayoutItem@@H@Z 0000000140010eb2 f   Qt5Widgets:Qt5Widgets.dll
 0001:0000feb8       ?controlTypes@QLayoutItem@@UEBA?AV?$QFlags@W4ControlType@QSizePolicy@@@@XZ 0000000140010eb8 f   Qt5Widgets:Qt5Widgets.dll
 0001:0000febe       ?event@QRadioButton@@MEAA_NPEAVQEvent@@@Z 0000000140010ebe f   Qt5Widgets:Qt5Widgets.dll
 0001:0000fec4       ?expandingDirections@QSpacerItem@@UEBA?AV?$QFlags@W4Orientation@Qt@@@@XZ 0000000140010ec4 f   Qt5Widgets:Qt5Widgets.dll
 0001:0000feca       ?focusInEvent@QAbstractButton@@MEAAXPEAVQFocusEvent@@@Z 0000000140010eca f   Qt5Widgets:Qt5Widgets.dll
 0001:0000fed0       ?focusOutEvent@QAbstractButton@@MEAAXPEAVQFocusEvent@@@Z 0000000140010ed0 f   Qt5Widgets:Qt5Widgets.dll
 0001:0000fed6       ?geometry@QSpacerItem@@UEBA?AVQRect@@XZ 0000000140010ed6 f   Qt5Widgets:Qt5Widgets.dll
 0001:0000fedc       ?hasHeightForWidth@QLayoutItem@@UEBA_NXZ 0000000140010edc f   Qt5Widgets:Qt5Widgets.dll
 0001:0000fee2       ?heightForWidth@QLayoutItem@@UEBAHH@Z 0000000140010ee2 f   Qt5Widgets:Qt5Widgets.dll
 0001:0000fee8       ?hitButton@QRadioButton@@MEBA_NAEBVQPoint@@@Z 0000000140010ee8 f   Qt5Widgets:Qt5Widgets.dll
 0001:0000feee       ?invalidate@QLayoutItem@@UEAAXXZ 0000000140010eee f   Qt5Widgets:Qt5Widgets.dll
 0001:0000fef4       ?isEmpty@QSpacerItem@@UEBA_NXZ 0000000140010ef4 f   Qt5Widgets:Qt5Widgets.dll
 0001:0000fefa       ?keyPressEvent@QAbstractButton@@MEAAXPEAVQKeyEvent@@@Z 0000000140010efa f   Qt5Widgets:Qt5Widgets.dll
 0001:0000ff00       ?layout@QLayoutItem@@UEAAPEAVQLayout@@XZ 0000000140010f00 f   Qt5Widgets:Qt5Widgets.dll
 0001:0000ff06       ?maximumSize@QSpacerItem@@UEBA?AVQSize@@XZ 0000000140010f06 f   Qt5Widgets:Qt5Widgets.dll
 0001:0000ff0c       ?metaObject@QHBoxLayout@@UEBAPEBUQMetaObject@@XZ 0000000140010f0c f   Qt5Widgets:Qt5Widgets.dll
 0001:0000ff12       ?metaObject@QRadioButton@@UEBAPEBUQMetaObject@@XZ 0000000140010f12 f   Qt5Widgets:Qt5Widgets.dll
 0001:0000ff18       ?minimumHeightForWidth@QLayoutItem@@UEBAHH@Z 0000000140010f18 f   Qt5Widgets:Qt5Widgets.dll
 0001:0000ff1e       ?minimumSize@QSpacerItem@@UEBA?AVQSize@@XZ 0000000140010f1e f   Qt5Widgets:Qt5Widgets.dll
 0001:0000ff24       ?minimumSizeHint@QRadioButton@@UEBA?AVQSize@@XZ 0000000140010f24 f   Qt5Widgets:Qt5Widgets.dll
 0001:0000ff2a       ?mouseMoveEvent@QRadioButton@@MEAAXPEAVQMouseEvent@@@Z 0000000140010f2a f   Qt5Widgets:Qt5Widgets.dll
 0001:0000ff30       ?paintEvent@QRadioButton@@MEAAXPEAVQPaintEvent@@@Z 0000000140010f30 f   Qt5Widgets:Qt5Widgets.dll
 0001:0000ff36       ?qt_metacall@QHBoxLayout@@UEAAHW4Call@QMetaObject@@HPEAPEAX@Z 0000000140010f36 f   Qt5Widgets:Qt5Widgets.dll
 0001:0000ff3c       ?qt_metacall@QRadioButton@@UEAAHW4Call@QMetaObject@@HPEAPEAX@Z 0000000140010f3c f   Qt5Widgets:Qt5Widgets.dll
 0001:0000ff42       ?qt_metacast@QHBoxLayout@@UEAAPEAXPEBD@Z 0000000140010f42 f   Qt5Widgets:Qt5Widgets.dll
 0001:0000ff48       ?qt_metacast@QRadioButton@@UEAAPEAXPEBD@Z 0000000140010f48 f   Qt5Widgets:Qt5Widgets.dll
 0001:0000ff4e       ?setGeometry@QSpacerItem@@UEAAXAEBVQRect@@@Z 0000000140010f4e f   Qt5Widgets:Qt5Widgets.dll
 0001:0000ff54       ?sizeHint@QRadioButton@@UEBA?AVQSize@@XZ 0000000140010f54 f   Qt5Widgets:Qt5Widgets.dll
 0001:0000ff5a       ?sizeHint@QSpacerItem@@UEBA?AVQSize@@XZ 0000000140010f5a f   Qt5Widgets:Qt5Widgets.dll
 0001:0000ff60       ?spacerItem@QSpacerItem@@UEAAPEAV1@XZ 0000000140010f60 f   Qt5Widgets:Qt5Widgets.dll
 0001:0000ff66       ?checkStateSet@QCheckBox@@MEAAXXZ 0000000140010f66 f   Qt5Widgets:Qt5Widgets.dll
 0001:0000ff6c       ?event@QCheckBox@@MEAA_NPEAVQEvent@@@Z 0000000140010f6c f   Qt5Widgets:Qt5Widgets.dll
 0001:0000ff72       ?hitButton@QCheckBox@@MEBA_NAEBVQPoint@@@Z 0000000140010f72 f   Qt5Widgets:Qt5Widgets.dll
 0001:0000ff78       ?metaObject@QCheckBox@@UEBAPEBUQMetaObject@@XZ 0000000140010f78 f   Qt5Widgets:Qt5Widgets.dll
 0001:0000ff7e       ?minimumSizeHint@QCheckBox@@UEBA?AVQSize@@XZ 0000000140010f7e f   Qt5Widgets:Qt5Widgets.dll
 0001:0000ff84       ?mouseMoveEvent@QCheckBox@@MEAAXPEAVQMouseEvent@@@Z 0000000140010f84 f   Qt5Widgets:Qt5Widgets.dll
 0001:0000ff8a       ?nextCheckState@QCheckBox@@MEAAXXZ 0000000140010f8a f   Qt5Widgets:Qt5Widgets.dll
 0001:0000ff90       ?paintEvent@QCheckBox@@MEAAXPEAVQPaintEvent@@@Z 0000000140010f90 f   Qt5Widgets:Qt5Widgets.dll
 0001:0000ff96       ?qt_metacall@QCheckBox@@UEAAHW4Call@QMetaObject@@HPEAPEAX@Z 0000000140010f96 f   Qt5Widgets:Qt5Widgets.dll
 0001:0000ff9c       ?qt_metacast@QCheckBox@@UEAAPEAXPEBD@Z 0000000140010f9c f   Qt5Widgets:Qt5Widgets.dll
 0001:0000ffa2       ?sizeHint@QCheckBox@@UEBA?AVQSize@@XZ 0000000140010fa2 f   Qt5Widgets:Qt5Widgets.dll
 0001:0000ffa8       ?childEvent@QObject@@MEAAXPEAVQChildEvent@@@Z 0000000140010fa8 f   Qt5Core:Qt5Core.dll
 0001:0000ffae       ?connectNotify@QObject@@MEAAXAEBVQMetaMethod@@@Z 0000000140010fae f   Qt5Core:Qt5Core.dll
 0001:0000ffb4       ?customEvent@QObject@@MEAAXPEAVQEvent@@@Z 0000000140010fb4 f   Qt5Core:Qt5Core.dll
 0001:0000ffba       ?disconnectNotify@QObject@@MEAAXAEBVQMetaMethod@@@Z 0000000140010fba f   Qt5Core:Qt5Core.dll
 0001:0000ffc0       ?event@QObject@@UEAA_NPEAVQEvent@@@Z 0000000140010fc0 f   Qt5Core:Qt5Core.dll
 0001:0000ffc6       ?eventFilter@QObject@@UEAA_NPEAV1@PEAVQEvent@@@Z 0000000140010fc6 f   Qt5Core:Qt5Core.dll
 0001:0000ffcc       ?timerEvent@QObject@@MEAAXPEAVQTimerEvent@@@Z 0000000140010fcc f   Qt5Core:Qt5Core.dll
 0001:0000ffd2       ?qRegisterResourceData@@YA_NHPEBE00@Z 0000000140010fd2 f   Qt5Core:Qt5Core.dll
 0001:0000ffd8       ?qUnregisterResourceData@@YA_NHPEBE00@Z 0000000140010fd8 f   Qt5Core:Qt5Core.dll
 0001:0000ffde       ?_Xlength_error@std@@YAXPEBD@Z 0000000140010fde f   msvcprt:MSVCP140.dll
 0001:0000ffe4       ??2@YAPEAX_K@Z             0000000140010fe4 f   MSVCRT:new_scalar.obj
 0001:00010020       ??_V@YAXPEAX@Z             0000000140011020 f   MSVCRT:delete_array.obj
 0001:00010020       ??3@YAXPEAX_K@Z            0000000140011020 f   MSVCRT:delete_scalar_size.obj
 0001:00010028       __GSHandlerCheck_EH        0000000140011028 f   MSVCRT:gshandlereh.obj
 0001:000100c0       __security_check_cookie    00000001400110c0 f   MSVCRT:amdsecgs.obj
 0001:000100e4       ??_Etype_info@@UEAAPEAXI@Z 00000001400110e4 f i MSVCRT:std_type_info_static.obj
 0001:000100e4       ??_Gtype_info@@UEAAPEAXI@Z 00000001400110e4 f i MSVCRT:std_type_info_static.obj
 0001:00010298       _Init_thread_footer        0000000140011298 f   MSVCRT:thread_safe_statics.obj
 0001:000102f8       _Init_thread_header        00000001400112f8 f   MSVCRT:thread_safe_statics.obj
 0001:00010360       _Init_thread_notify        0000000140011360 f   MSVCRT:thread_safe_statics.obj
 0001:000103b0       _Init_thread_wait          00000001400113b0 f   MSVCRT:thread_safe_statics.obj
 0001:00010428       __GSHandlerCheck           0000000140011428 f   MSVCRT:gshandler.obj
 0001:00010448       __GSHandlerCheckCommon     0000000140011448 f   MSVCRT:gshandler.obj
 0001:000104a4       __scrt_acquire_startup_lock 00000001400114a4 f   MSVCRT:utility.obj
 0001:000104e0       __scrt_initialize_crt      00000001400114e0 f   MSVCRT:utility.obj
 0001:0001052c       __scrt_initialize_onexit_tables 000000014001152c f   MSVCRT:utility.obj
 0001:00010604       __scrt_is_nonwritable_in_current_image 0000000140011604 f   MSVCRT:utility.obj
 0001:000106a0       __scrt_release_startup_lock 00000001400116a0 f   MSVCRT:utility.obj
 0001:000106c4       __scrt_uninitialize_crt    00000001400116c4 f   MSVCRT:utility.obj
 0001:000106f0       _onexit                    00000001400116f0 f   MSVCRT:utility.obj
 0001:00010740       atexit                     0000000140011740 f   MSVCRT:utility.obj
 0001:000109b0       WinMainCRTStartup          00000001400119b0 f   MSVCRT:exe_winmain.obj
 0001:000109c4       ??3@YAXPEAX@Z              00000001400119c4 f   MSVCRT:delete_scalar.obj
 0001:000109cc       ??0bad_alloc@std@@QEAA@AEBV01@@Z 00000001400119cc f i MSVCRT:throw_bad_alloc.obj
 0001:00010a0c       ??0bad_alloc@std@@QEAA@XZ  0000000140011a0c f i MSVCRT:throw_bad_alloc.obj
 0001:00010a2c       ??0bad_array_new_length@std@@QEAA@AEBV01@@Z 0000000140011a2c f i MSVCRT:throw_bad_alloc.obj
 0001:00010a6c       ??0bad_array_new_length@std@@QEAA@XZ 0000000140011a6c f i MSVCRT:throw_bad_alloc.obj
 0001:00010a8c       ??0exception@std@@QEAA@AEBV01@@Z 0000000140011a8c f i MSVCRT:throw_bad_alloc.obj
 0001:00010ac4       ??1bad_array_new_length@std@@UEAA@XZ 0000000140011ac4 f i MSVCRT:throw_bad_alloc.obj
 0001:00010ac4       ??1bad_alloc@std@@UEAA@XZ  0000000140011ac4 f i MSVCRT:throw_bad_alloc.obj
 0001:00010ad8       ??_Ebad_array_new_length@std@@UEAAPEAXI@Z 0000000140011ad8 f i MSVCRT:throw_bad_alloc.obj
 0001:00010ad8       ??_Ebad_alloc@std@@UEAAPEAXI@Z 0000000140011ad8 f i MSVCRT:throw_bad_alloc.obj
 0001:00010ad8       ??_Gexception@std@@UEAAPEAXI@Z 0000000140011ad8 f i MSVCRT:throw_bad_alloc.obj
 0001:00010ad8       ??_Gbad_array_new_length@std@@UEAAPEAXI@Z 0000000140011ad8 f i MSVCRT:throw_bad_alloc.obj
 0001:00010ad8       ??_Eexception@std@@UEAAPEAXI@Z 0000000140011ad8 f i MSVCRT:throw_bad_alloc.obj
 0001:00010ad8       ??_Gbad_alloc@std@@UEAAPEAXI@Z 0000000140011ad8 f i MSVCRT:throw_bad_alloc.obj
 0001:00010b1c       ?__scrt_throw_std_bad_alloc@@YAXXZ 0000000140011b1c f   MSVCRT:throw_bad_alloc.obj
 0001:00010b3c       ?__scrt_throw_std_bad_array_new_length@@YAXXZ 0000000140011b3c f   MSVCRT:throw_bad_alloc.obj
 0001:00010b5c       ?what@exception@std@@UEBAPEBDXZ 0000000140011b5c f i MSVCRT:throw_bad_alloc.obj
 0001:00010b70       __raise_securityfailure    0000000140011b70 f   MSVCRT:gs_report.obj
 0001:00010ba4       __report_gsfailure         0000000140011ba4 f   MSVCRT:gs_report.obj
 0001:00010cec       __crt_debugger_hook        0000000140011cec f   MSVCRT:utility_desktop.obj
 0001:00010cf4       __scrt_fastfail            0000000140011cf4 f   MSVCRT:utility_desktop.obj
 0001:00010e40       __scrt_get_show_window_mode 0000000140011e40 f   MSVCRT:utility_desktop.obj
 0001:00010e7c       __scrt_initialize_mta      0000000140011e7c f   MSVCRT:utility_desktop.obj
 0001:00010e84       __scrt_exe_initialize_mta  0000000140011e84 f   MSVCRT:utility_desktop.obj
 0001:00010e84       _get_startup_thread_locale_mode 0000000140011e84 f   MSVCRT:thread_locale.obj
 0001:00010e84       _get_startup_commit_mode   0000000140011e84 f   MSVCRT:commit_mode.obj
 0001:00010e84       __scrt_stub_for_initialize_mta 0000000140011e84 f   MSVCRT:utility_desktop.obj
 0001:00010e84       _get_startup_new_mode      0000000140011e84 f   MSVCRT:new_mode.obj
 0001:00010e84       _matherr                   0000000140011e84 f   MSVCRT:matherr.obj
 0001:00010e84       __scrt_initialize_winrt    0000000140011e84 f   MSVCRT:utility_desktop.obj
 0001:00010e88       __scrt_is_managed_app      0000000140011e88 f   MSVCRT:utility_desktop.obj
 0001:00010edc       __scrt_set_unhandled_exception_filter 0000000140011edc f   MSVCRT:utility_desktop.obj
 0001:00010eec       __scrt_unhandled_exception_filter 0000000140011eec f   MSVCRT:utility_desktop.obj
 0001:00010f24       __isa_available_init       0000000140011f24 f   MSVCRT:cpu_disp.obj
 0001:000110a0       _get_startup_argv_mode     00000001400120a0 f   MSVCRT:argv_mode.obj
 0001:000110a8       __scrt_is_ucrt_dll_in_use  00000001400120a8 f   MSVCRT:ucrt_detection.obj
 0001:000110b4       __security_init_cookie     00000001400120b4 f   MSVCRT:gs_support.obj
 0001:00011160       _get_startup_file_mode     0000000140012160 f   MSVCRT:file_mode.obj
 0001:00011168       ?__scrt_initialize_type_info@@YAXXZ 0000000140012168 f   MSVCRT:tncleanup.obj
 0001:00011178       _should_initialize_environment 0000000140012178 f   MSVCRT:env_mode.obj
 0001:00011178       __vcrt_initialize          0000000140012178 f   MSVCRT:ucrt_stubs.obj
 0001:00011178       __vcrt_uninitialize        0000000140012178 f   MSVCRT:ucrt_stubs.obj
 0001:00011178       __scrt_stub_for_acrt_uninitialize 0000000140012178 f   MSVCRT:ucrt_stubs.obj
 0001:00011178       __acrt_initialize          0000000140012178 f   MSVCRT:ucrt_stubs.obj
 0001:00011178       __acrt_uninitialize        0000000140012178 f   MSVCRT:ucrt_stubs.obj
 0001:00011178       __scrt_stub_for_acrt_initialize 0000000140012178 f   MSVCRT:ucrt_stubs.obj
 0001:0001117c       __local_stdio_scanf_options 000000014001217c f i MSVCRT:default_local_stdio_options.obj
 0001:00011184       __scrt_initialize_default_local_stdio_options 0000000140012184 f   MSVCRT:default_local_stdio_options.obj
 0001:000111a0       __scrt_is_user_matherr_present 00000001400121a0 f   MSVCRT:matherr_detection.obj
 0001:000111ac       __scrt_get_dyn_tls_init_callback 00000001400121ac f   MSVCRT:dyn_tls_init.obj
 0001:000111b4       __scrt_get_dyn_tls_dtor_callback 00000001400121b4 f   MSVCRT:dyn_tls_dtor.obj
 0001:000111bc       _RTC_Initialize            00000001400121bc f   MSVCRT:initsect.obj
 0001:000111f8       _RTC_Terminate             00000001400121f8 f   MSVCRT:initsect.obj
 0001:00011240       MMemCpy                    0000000140012240 f   mpbase:ammemcommon.o
 0001:00011248       AISFCreateCompareView      0000000140012248 f   AISFCompareView:AISFCompareView.dll
 0001:0001124e       AISFCompareViewInitLibs    000000014001224e f   AISFCompareView:AISFCompareView.dll
 0001:00011254       AISFCompareViewUnInitLibs  0000000140012254 f   AISFCompareView:AISFCompareView.dll
 0001:0001125a       __std_terminate            000000014001225a f   vcruntime:VCRUNTIME140.dll
 0001:00011260       _CxxThrowException         0000000140012260 f   vcruntime:VCRUNTIME140.dll
 0001:00011266       __CxxFrameHandler3         0000000140012266 f   vcruntime:VCRUNTIME140.dll
 0001:0001126c       memset                     000000014001226c f   vcruntime:VCRUNTIME140.dll
 0001:00011272       _purecall                  0000000140012272 f   vcruntime:VCRUNTIME140.dll
 0001:00011278       __RTDynamicCast            0000000140012278 f   vcruntime:VCRUNTIME140.dll
 0001:0001127e       memcpy                     000000014001227e f   vcruntime:VCRUNTIME140.dll
 0001:00011284       memmove                    0000000140012284 f   vcruntime:VCRUNTIME140.dll
 0001:0001128a       __C_specific_handler       000000014001228a f   vcruntime:VCRUNTIME140.dll
 0001:00011290       __std_exception_copy       0000000140012290 f   vcruntime:VCRUNTIME140.dll
 0001:00011296       __std_exception_destroy    0000000140012296 f   vcruntime:VCRUNTIME140.dll
 0001:0001129c       _callnewh                  000000014001229c f   ucrt:api-ms-win-crt-heap-l1-1-0.dll
 0001:000112a2       malloc                     00000001400122a2 f   ucrt:api-ms-win-crt-heap-l1-1-0.dll
 0001:000112a8       _configure_narrow_argv     00000001400122a8 f   ucrt:api-ms-win-crt-runtime-l1-1-0.dll
 0001:000112ae       _initialize_narrow_environment 00000001400122ae f   ucrt:api-ms-win-crt-runtime-l1-1-0.dll
 0001:000112b4       _initialize_onexit_table   00000001400122b4 f   ucrt:api-ms-win-crt-runtime-l1-1-0.dll
 0001:000112ba       _register_onexit_function  00000001400122ba f   ucrt:api-ms-win-crt-runtime-l1-1-0.dll
 0001:000112c0       _crt_atexit                00000001400122c0 f   ucrt:api-ms-win-crt-runtime-l1-1-0.dll
 0001:000112c6       _cexit                     00000001400122c6 f   ucrt:api-ms-win-crt-runtime-l1-1-0.dll
 0001:000112cc       _seh_filter_exe            00000001400122cc f   ucrt:api-ms-win-crt-runtime-l1-1-0.dll
 0001:000112d2       _set_app_type              00000001400122d2 f   ucrt:api-ms-win-crt-runtime-l1-1-0.dll
 0001:000112d8       __setusermatherr           00000001400122d8 f   ucrt:api-ms-win-crt-math-l1-1-0.dll
 0001:000112de       _get_narrow_winmain_command_line 00000001400122de f   ucrt:api-ms-win-crt-runtime-l1-1-0.dll
 0001:000112e4       _initterm                  00000001400122e4 f   ucrt:api-ms-win-crt-runtime-l1-1-0.dll
 0001:000112ea       _initterm_e                00000001400122ea f   ucrt:api-ms-win-crt-runtime-l1-1-0.dll
 0001:000112f0       exit                       00000001400122f0 f   ucrt:api-ms-win-crt-runtime-l1-1-0.dll
 0001:000112f6       _exit                      00000001400122f6 f   ucrt:api-ms-win-crt-runtime-l1-1-0.dll
 0001:000112fc       _set_fmode                 00000001400122fc f   ucrt:api-ms-win-crt-stdio-l1-1-0.dll
 0001:00011302       _c_exit                    0000000140012302 f   ucrt:api-ms-win-crt-runtime-l1-1-0.dll
 0001:00011308       _register_thread_local_exe_atexit_callback 0000000140012308 f   ucrt:api-ms-win-crt-runtime-l1-1-0.dll
 0001:0001130e       _configthreadlocale        000000014001230e f   ucrt:api-ms-win-crt-locale-l1-1-0.dll
 0001:00011314       _set_new_mode              0000000140012314 f   ucrt:api-ms-win-crt-heap-l1-1-0.dll
 0001:0001131a       __p__commode               000000014001231a f   ucrt:api-ms-win-crt-stdio-l1-1-0.dll
 0001:00011320       free                       0000000140012320 f   ucrt:api-ms-win-crt-heap-l1-1-0.dll
 0001:00011326       terminate                  0000000140012326 f   ucrt:api-ms-win-crt-runtime-l1-1-0.dll
 0001:00011330       WinMain                    0000000140012330 f   qtmain:qtmain_win.obj
 0001:000114cb       IsProcessorFeaturePresent  00000001400124cb f   kernel32:KERNEL32.dll
 0001:000114d4       ??_U@YAPEAX_K@Z            00000001400124d4 f   MSVCRT:new_array.obj
 0001:000114f0       _guard_dispatch_icall_nop  00000001400124f0 f   MSVCRT:guard_dispatch.obj
 0002:00000000       __imp_AISFCompareViewInitLibs 0000000140014000     AISFCompareView:AISFCompareView.dll
 0002:00000008       __imp_AISFCreateCompareView 0000000140014008     AISFCompareView:AISFCompareView.dll
 0002:00000010       __imp_AISFCompareViewUnInitLibs 0000000140014010     AISFCompareView:AISFCompareView.dll
 0002:00000018       \177AISFCompareView_NULL_THUNK_DATA 0000000140014018     AISFCompareView:AISFCompareView.dll
 0002:00000020       __imp_SetUnhandledExceptionFilter 0000000140014020     kernel32:KERNEL32.dll
 0002:00000028       __imp_GetLastError         0000000140014028     kernel32:KERNEL32.dll
 0002:00000030       __imp_HeapSetInformation   0000000140014030     kernel32:KERNEL32.dll
 0002:00000038       __imp_CreateMutexW         0000000140014038     kernel32:KERNEL32.dll
 0002:00000040       __imp_GetCurrentProcess    0000000140014040     kernel32:KERNEL32.dll
 0002:00000048       __imp_CloseHandle          0000000140014048     kernel32:KERNEL32.dll
 0002:00000050       __imp_GetLocalTime         0000000140014050     kernel32:KERNEL32.dll
 0002:00000058       __imp_FreeLibrary          0000000140014058     kernel32:KERNEL32.dll
 0002:00000060       __imp_GetModuleHandleW     0000000140014060     kernel32:KERNEL32.dll
 0002:00000068       __imp_GetProcAddress       0000000140014068     kernel32:KERNEL32.dll
 0002:00000070       __imp_LoadLibraryW         0000000140014070     kernel32:KERNEL32.dll
 0002:00000078       __imp_IsDebuggerPresent    0000000140014078     kernel32:KERNEL32.dll
 0002:00000080       __imp_CreateFileW          0000000140014080     kernel32:KERNEL32.dll
 0002:00000088       __imp_GetCurrentProcessId  0000000140014088     kernel32:KERNEL32.dll
 0002:00000090       __imp_WideCharToMultiByte  0000000140014090     kernel32:KERNEL32.dll
 0002:00000098       __imp_EnterCriticalSection 0000000140014098     kernel32:KERNEL32.dll
 0002:000000a0       __imp_LeaveCriticalSection 00000001400140a0     kernel32:KERNEL32.dll
 0002:000000a8       __imp_InitializeCriticalSectionAndSpinCount 00000001400140a8     kernel32:KERNEL32.dll
 0002:000000b0       __imp_DeleteCriticalSection 00000001400140b0     kernel32:KERNEL32.dll
 0002:000000b8       __imp_SetEvent             00000001400140b8     kernel32:KERNEL32.dll
 0002:000000c0       __imp_ResetEvent           00000001400140c0     kernel32:KERNEL32.dll
 0002:000000c8       __imp_WaitForSingleObjectEx 00000001400140c8     kernel32:KERNEL32.dll
 0002:000000d0       __imp_CreateEventW         00000001400140d0     kernel32:KERNEL32.dll
 0002:000000d8       __imp_RtlCaptureContext    00000001400140d8     kernel32:KERNEL32.dll
 0002:000000e0       __imp_RtlLookupFunctionEntry 00000001400140e0     kernel32:KERNEL32.dll
 0002:000000e8       __imp_LocalFree            00000001400140e8     kernel32:KERNEL32.dll
 0002:000000f0       __imp_GetCommandLineW      00000001400140f0     kernel32:KERNEL32.dll
 0002:000000f8       __imp_InitializeSListHead  00000001400140f8     kernel32:KERNEL32.dll
 0002:00000100       __imp_GetSystemTimeAsFileTime 0000000140014100     kernel32:KERNEL32.dll
 0002:00000108       __imp_QueryPerformanceCounter 0000000140014108     kernel32:KERNEL32.dll
 0002:00000110       __imp_GetStartupInfoW      0000000140014110     kernel32:KERNEL32.dll
 0002:00000118       __imp_IsProcessorFeaturePresent 0000000140014118     kernel32:KERNEL32.dll
 0002:00000120       __imp_TerminateProcess     0000000140014120     kernel32:KERNEL32.dll
 0002:00000128       __imp_UnhandledExceptionFilter 0000000140014128     kernel32:KERNEL32.dll
 0002:00000130       __imp_RtlVirtualUnwind     0000000140014130     kernel32:KERNEL32.dll
 0002:00000138       __imp_GetCurrentThreadId   0000000140014138     kernel32:KERNEL32.dll
 0002:00000140       \177KERNEL32_NULL_THUNK_DATA 0000000140014140     kernel32:KERNEL32.dll
 0002:00000148       __imp_?_Xlength_error@std@@YAXPEBD@Z 0000000140014148     msvcprt:MSVCP140.dll
 0002:00000150       \177MSVCP140_NULL_THUNK_DATA 0000000140014150     msvcprt:MSVCP140.dll
 0002:00000158       __imp_?customEvent@QObject@@MEAAXPEAVQEvent@@@Z 0000000140014158     Qt5Core:Qt5Core.dll
 0002:00000160       __imp_?connectNotify@QObject@@MEAAXAEBVQMetaMethod@@@Z 0000000140014160     Qt5Core:Qt5Core.dll
 0002:00000168       __imp_?childEvent@QObject@@MEAAXPEAVQChildEvent@@@Z 0000000140014168     Qt5Core:Qt5Core.dll
 0002:00000170       __imp_?disconnectNotify@QObject@@MEAAXAEBVQMetaMethod@@@Z 0000000140014170     Qt5Core:Qt5Core.dll
 0002:00000178       __imp_?event@QObject@@UEAA_NPEAVQEvent@@@Z 0000000140014178     Qt5Core:Qt5Core.dll
 0002:00000180       __imp_?eventFilter@QObject@@UEAA_NPEAV1@PEAVQEvent@@@Z 0000000140014180     Qt5Core:Qt5Core.dll
 0002:00000188       __imp_?timerEvent@QObject@@MEAAXPEAVQTimerEvent@@@Z 0000000140014188     Qt5Core:Qt5Core.dll
 0002:00000190       __imp_?shared_null@QListData@@2UData@1@B 0000000140014190     Qt5Core:Qt5Core.dll
 0002:00000198       __imp_?connectSlotsByName@QMetaObject@@SAXPEAVQObject@@@Z 0000000140014198     Qt5Core:Qt5Core.dll
 0002:000001a0       __imp_??1Connection@QMetaObject@@QEAA@XZ 00000001400141a0     Qt5Core:Qt5Core.dll
 0002:000001a8       __imp_??1QByteArray@@QEAA@XZ 00000001400141a8     Qt5Core:Qt5Core.dll
 0002:000001b0       __imp_?data@QByteArray@@QEAAPEADXZ 00000001400141b0     Qt5Core:Qt5Core.dll
 0002:000001b8       __imp_??0QRect@@QEAA@XZ    00000001400141b8     Qt5Core:Qt5Core.dll
 0002:000001c0       __imp_?end@QListData@@QEBAPEAPEAXXZ 00000001400141c0     Qt5Core:Qt5Core.dll
 0002:000001c8       __imp_?begin@QListData@@QEBAPEAPEAXXZ 00000001400141c8     Qt5Core:Qt5Core.dll
 0002:000001d0       __imp_?append@QListData@@QEAAPEAPEAXXZ 00000001400141d0     Qt5Core:Qt5Core.dll
 0002:000001d8       __imp_?dispose@QListData@@SAXPEAUData@1@@Z 00000001400141d8     Qt5Core:Qt5Core.dll
 0002:000001e0       __imp_?dispose@QListData@@QEAAXXZ 00000001400141e0     Qt5Core:Qt5Core.dll
 0002:000001e8       __imp_?detach_grow@QListData@@QEAAPEAUData@1@PEAHH@Z 00000001400141e8     Qt5Core:Qt5Core.dll
 0002:000001f0       __imp_?detach@QListData@@QEAAPEAUData@1@H@Z 00000001400141f0     Qt5Core:Qt5Core.dll
 0002:000001f8       __imp_??0QString@@QEAA@AEBV0@@Z 00000001400141f8     Qt5Core:Qt5Core.dll
 0002:00000200       __imp_??1QString@@QEAA@XZ  0000000140014200     Qt5Core:Qt5Core.dll
 0002:00000208       __imp_?staticMetaObject@QLocale@@2UQMetaObject@@B 0000000140014208     Qt5Core:Qt5Core.dll
 0002:00000210       __imp_?qt_metacall@QObject@@UEAAHW4Call@QMetaObject@@HPEAPEAX@Z 0000000140014210     Qt5Core:Qt5Core.dll
 0002:00000218       __imp_?qt_metacast@QObject@@UEAAPEAXPEBD@Z 0000000140014218     Qt5Core:Qt5Core.dll
 0002:00000220       __imp_?staticMetaObject@QObject@@2UQMetaObject@@B 0000000140014220     Qt5Core:Qt5Core.dll
 0002:00000228       __imp_?activate@QMetaObject@@SAXPEAVQObject@@PEBU1@HPEAPEAX@Z 0000000140014228     Qt5Core:Qt5Core.dll
 0002:00000230       __imp_?dynamicMetaObject@QObjectData@@QEBAPEAUQMetaObject@@XZ 0000000140014230     Qt5Core:Qt5Core.dll
 0002:00000238       __imp_?qUnregisterResourceData@@YA_NHPEBE00@Z 0000000140014238     Qt5Core:Qt5Core.dll
 0002:00000240       __imp_?qRegisterResourceData@@YA_NHPEBE00@Z 0000000140014240     Qt5Core:Qt5Core.dll
 0002:00000248       __imp_?applicationName@QCoreApplication@@SA?AVQString@@XZ 0000000140014248     Qt5Core:Qt5Core.dll
 0002:00000250       __imp_?arguments@QCoreApplication@@SA?AVQStringList@@XZ 0000000140014250     Qt5Core:Qt5Core.dll
 0002:00000258       __imp_?remove@QListData@@QEAAXH@Z 0000000140014258     Qt5Core:Qt5Core.dll
 0002:00000260       __imp_?indexOf@QString@@QEBAHAEBV1@HW4CaseSensitivity@Qt@@@Z 0000000140014260     Qt5Core:Qt5Core.dll
 0002:00000268       __imp_?height@QRect@@QEBAHXZ 0000000140014268     Qt5Core:Qt5Core.dll
 0002:00000270       __imp_?width@QRect@@QEBAHXZ 0000000140014270     Qt5Core:Qt5Core.dll
 0002:00000278       __imp_?setRect@QRect@@QEAAXHHHH@Z 0000000140014278     Qt5Core:Qt5Core.dll
 0002:00000280       __imp_?setBottomRight@QRect@@QEAAXAEBVQPoint@@@Z 0000000140014280     Qt5Core:Qt5Core.dll
 0002:00000288       __imp_?setTopLeft@QRect@@QEAAXAEBVQPoint@@@Z 0000000140014288     Qt5Core:Qt5Core.dll
 0002:00000290       __imp_?exists@QDir@@QEBA_NAEBVQString@@@Z 0000000140014290     Qt5Core:Qt5Core.dll
 0002:00000298       __imp_?value@QSettings@@QEBA?AVQVariant@@AEBVQString@@AEBV2@@Z 0000000140014298     Qt5Core:Qt5Core.dll
 0002:000002a0       __imp_?beginGroup@QSettings@@QEAAXAEBVQString@@@Z 00000001400142a0     Qt5Core:Qt5Core.dll
 0002:000002a8       __imp_??1QSettings@@UEAA@XZ 00000001400142a8     Qt5Core:Qt5Core.dll
 0002:000002b0       __imp_??0QSettings@@QEAA@AEBVQString@@W4Format@0@PEAVQObject@@@Z 00000001400142b0     Qt5Core:Qt5Core.dll
 0002:000002b8       __imp_?toString@QVariant@@QEBA?AVQString@@XZ 00000001400142b8     Qt5Core:Qt5Core.dll
 0002:000002c0       __imp_?toInt@QVariant@@QEBAHPEA_N@Z 00000001400142c0     Qt5Core:Qt5Core.dll
 0002:000002c8       __imp_??0QVariant@@QEAA@PEBD@Z 00000001400142c8     Qt5Core:Qt5Core.dll
 0002:000002d0       __imp_??0QVariant@@QEAA@H@Z 00000001400142d0     Qt5Core:Qt5Core.dll
 0002:000002d8       __imp_??1QVariant@@QEAA@XZ 00000001400142d8     Qt5Core:Qt5Core.dll
 0002:000002e0       __imp_?fromLocal8Bit@QString@@SA?AV1@PEBDH@Z 00000001400142e0     Qt5Core:Qt5Core.dll
 0002:000002e8       __imp_??4QString@@QEAAAEAV0@AEBV0@@Z 00000001400142e8     Qt5Core:Qt5Core.dll
 0002:000002f0       __imp_?isValid@QRect@@QEBA_NXZ 00000001400142f0     Qt5Core:Qt5Core.dll
 0002:000002f8       __imp_?entryList@QDir@@QEBA?AVQStringList@@V?$QFlags@W4Filter@QDir@@@@V?$QFlags@W4SortFlag@QDir@@@@@Z 00000001400142f8     Qt5Core:Qt5Core.dll
 0002:00000300       __imp_?fileName@QFileInfo@@QEBA?AVQString@@XZ 0000000140014300     Qt5Core:Qt5Core.dll
 0002:00000308       __imp_??4QString@@QEAAAEAV0@PEBD@Z 0000000140014308     Qt5Core:Qt5Core.dll
 0002:00000310       __imp_?compare@QString@@QEBAHAEBV1@W4CaseSensitivity@Qt@@@Z 0000000140014310     Qt5Core:Qt5Core.dll
 0002:00000318       __imp_?homePath@QDir@@SA?AVQString@@XZ 0000000140014318     Qt5Core:Qt5Core.dll
 0002:00000320       __imp_??1QObject@@UEAA@XZ  0000000140014320     Qt5Core:Qt5Core.dll
 0002:00000328       __imp_??0QObject@@QEAA@PEAV0@@Z 0000000140014328     Qt5Core:Qt5Core.dll
 0002:00000330       __imp_?qt_qFindChild_helper@@YAPEAVQObject@@PEBV1@AEBVQString@@AEBUQMetaObject@@V?$QFlags@W4FindChildOption@Qt@@@@@Z 0000000140014330     Qt5Core:Qt5Core.dll
 0002:00000338       __imp_??4QString@@QEAAAEAV0@$$QEAV0@@Z 0000000140014338     Qt5Core:Qt5Core.dll
 0002:00000340       __imp_?tr@QMetaObject@@QEBA?AVQString@@PEBD0H@Z 0000000140014340     Qt5Core:Qt5Core.dll
 0002:00000348       __imp_??0QString@@QEAA@XZ  0000000140014348     Qt5Core:Qt5Core.dll
 0002:00000350       __imp_??0QRect@@QEAA@HHHH@Z 0000000140014350     Qt5Core:Qt5Core.dll
 0002:00000358       __imp_?writableLocation@QStandardPaths@@SA?AVQString@@W4StandardLocation@1@@Z 0000000140014358     Qt5Core:Qt5Core.dll
 0002:00000360       __imp_?bottom@QRect@@QEBAHXZ 0000000140014360     Qt5Core:Qt5Core.dll
 0002:00000368       __imp_?right@QRect@@QEBAHXZ 0000000140014368     Qt5Core:Qt5Core.dll
 0002:00000370       __imp_?top@QRect@@QEBAHXZ  0000000140014370     Qt5Core:Qt5Core.dll
 0002:00000378       __imp_?left@QRect@@QEBAHXZ 0000000140014378     Qt5Core:Qt5Core.dll
 0002:00000380       __imp_??0QSize@@QEAA@HH@Z  0000000140014380     Qt5Core:Qt5Core.dll
 0002:00000388       __imp_?startDetached@QProcess@@SA_NAEBVQString@@AEBVQStringList@@@Z 0000000140014388     Qt5Core:Qt5Core.dll
 0002:00000390       __imp_??1QProcess@@UEAA@XZ 0000000140014390     Qt5Core:Qt5Core.dll
 0002:00000398       __imp_??0QProcess@@QEAA@PEAVQObject@@@Z 0000000140014398     Qt5Core:Qt5Core.dll
 0002:000003a0       __imp_?urls@QMimeData@@QEBA?AV?$QList@VQUrl@@@@XZ 00000001400143a0     Qt5Core:Qt5Core.dll
 0002:000003a8       __imp_?mkpath@QDir@@QEBA_NAEBVQString@@@Z 00000001400143a8     Qt5Core:Qt5Core.dll
 0002:000003b0       __imp_??1QDir@@QEAA@XZ     00000001400143b0     Qt5Core:Qt5Core.dll
 0002:000003b8       __imp_??0QDir@@QEAA@AEBVQString@@@Z 00000001400143b8     Qt5Core:Qt5Core.dll
 0002:000003c0       __imp_?absolutePath@QFileInfo@@QEBA?AVQString@@XZ 00000001400143c0     Qt5Core:Qt5Core.dll
 0002:000003c8       __imp_??1QFileInfo@@QEAA@XZ 00000001400143c8     Qt5Core:Qt5Core.dll
 0002:000003d0       __imp_??0QFileInfo@@QEAA@AEBVQString@@@Z 00000001400143d0     Qt5Core:Qt5Core.dll
 0002:000003d8       __imp_?translate@QCoreApplication@@SA?AVQString@@PEBD00H@Z 00000001400143d8     Qt5Core:Qt5Core.dll
 0002:000003e0       __imp_?applicationDirPath@QCoreApplication@@SA?AVQString@@XZ 00000001400143e0     Qt5Core:Qt5Core.dll
 0002:000003e8       __imp_?toLocalFile@QUrl@@QEBA?AVQString@@XZ 00000001400143e8     Qt5Core:Qt5Core.dll
 0002:000003f0       __imp_??1QUrl@@QEAA@XZ     00000001400143f0     Qt5Core:Qt5Core.dll
 0002:000003f8       __imp_??0QUrl@@QEAA@AEBV0@@Z 00000001400143f8     Qt5Core:Qt5Core.dll
 0002:00000400       __imp_?disconnect@QObject@@SA_NPEBV1@PEBD01@Z 0000000140014400     Qt5Core:Qt5Core.dll
 0002:00000408       __imp_?connect@QObject@@SA?AVConnection@QMetaObject@@PEBV1@PEBD01W4ConnectionType@Qt@@@Z 0000000140014408     Qt5Core:Qt5Core.dll
 0002:00000410       __imp_?setObjectName@QObject@@QEAAXAEBVQString@@@Z 0000000140014410     Qt5Core:Qt5Core.dll
 0002:00000418       __imp_?objectName@QObject@@QEBA?AVQString@@XZ 0000000140014418     Qt5Core:Qt5Core.dll
 0002:00000420       __imp_?QStringList_sort@QtPrivate@@YAXPEAVQStringList@@W4CaseSensitivity@Qt@@@Z 0000000140014420     Qt5Core:Qt5Core.dll
 0002:00000428       __imp_?at@QListData@@QEBAPEAPEAXH@Z 0000000140014428     Qt5Core:Qt5Core.dll
 0002:00000430       __imp_?isEmpty@QListData@@QEBA_NXZ 0000000140014430     Qt5Core:Qt5Core.dll
 0002:00000438       __imp_?size@QListData@@QEBAHXZ 0000000140014438     Qt5Core:Qt5Core.dll
 0002:00000440       __imp_?fromAscii_helper@QString@@CAPEAU?$QTypedArrayData@G@@PEBDH@Z 0000000140014440     Qt5Core:Qt5Core.dll
 0002:00000448       __imp_?fromUtf8@QString@@SA?AV1@PEBDH@Z 0000000140014448     Qt5Core:Qt5Core.dll
 0002:00000450       __imp_?toLocal8Bit@QString@@QEGBA?AVQByteArray@@XZ 0000000140014450     Qt5Core:Qt5Core.dll
 0002:00000458       __imp_?append@QString@@QEAAAEAV1@AEBV1@@Z 0000000140014458     Qt5Core:Qt5Core.dll
 0002:00000460       \177Qt5Core_NULL_THUNK_DATA 0000000140014460     Qt5Core:Qt5Core.dll
 0002:00000468       __imp_?setRgb@QColor@@QEAAXHHHH@Z 0000000140014468     Qt5Gui:Qt5Gui.dll
 0002:00000470       __imp_?modifiers@QKeyEvent@@QEBA?AV?$QFlags@W4KeyboardModifier@Qt@@@@XZ 0000000140014470     Qt5Gui:Qt5Gui.dll
 0002:00000478       __imp_?pos@QCursor@@SA?AVQPoint@@XZ 0000000140014478     Qt5Gui:Qt5Gui.dll
 0002:00000480       __imp_??0QFont@@QEAA@XZ    0000000140014480     Qt5Gui:Qt5Gui.dll
 0002:00000488       __imp_??1QFont@@QEAA@XZ    0000000140014488     Qt5Gui:Qt5Gui.dll
 0002:00000490       __imp_?setFamily@QFont@@QEAAXAEBVQString@@@Z 0000000140014490     Qt5Gui:Qt5Gui.dll
 0002:00000498       __imp_?setPointSize@QFont@@QEAAXH@Z 0000000140014498     Qt5Gui:Qt5Gui.dll
 0002:000004a0       __imp_?setWeight@QFont@@QEAAXH@Z 00000001400144a0     Qt5Gui:Qt5Gui.dll
 0002:000004a8       __imp_?setStyle@QFont@@QEAAXW4Style@1@@Z 00000001400144a8     Qt5Gui:Qt5Gui.dll
 0002:000004b0       __imp_??0QIcon@@QEAA@AEBVQString@@@Z 00000001400144b0     Qt5Gui:Qt5Gui.dll
 0002:000004b8       __imp_??1QIcon@@QEAA@XZ    00000001400144b8     Qt5Gui:Qt5Gui.dll
 0002:000004c0       __imp_??0QBrush@@QEAA@AEBVQColor@@W4BrushStyle@Qt@@@Z 00000001400144c0     Qt5Gui:Qt5Gui.dll
 0002:000004c8       __imp_??1QBrush@@QEAA@XZ   00000001400144c8     Qt5Gui:Qt5Gui.dll
 0002:000004d0       __imp_??0QPalette@@QEAA@XZ 00000001400144d0     Qt5Gui:Qt5Gui.dll
 0002:000004d8       __imp_??1QPalette@@QEAA@XZ 00000001400144d8     Qt5Gui:Qt5Gui.dll
 0002:000004e0       __imp_?setBrush@QPalette@@QEAAXW4ColorGroup@1@W4ColorRole@1@AEBVQBrush@@@Z 00000001400144e0     Qt5Gui:Qt5Gui.dll
 0002:000004e8       __imp_?staticMetaObject@QFont@@2UQMetaObject@@B 00000001400144e8     Qt5Gui:Qt5Gui.dll
 0002:000004f0       __imp_?staticMetaObject@QGradient@@2UQMetaObject@@B 00000001400144f0     Qt5Gui:Qt5Gui.dll
 0002:000004f8       __imp_?staticMetaObject@QPalette@@2UQMetaObject@@B 00000001400144f8     Qt5Gui:Qt5Gui.dll
 0002:00000500       __imp_?globalPos@QMouseEvent@@QEBA?AVQPoint@@XZ 0000000140014500     Qt5Gui:Qt5Gui.dll
 0002:00000508       __imp_?drawRect@QPainter@@QEAAXHHHH@Z 0000000140014508     Qt5Gui:Qt5Gui.dll
 0002:00000510       __imp_?setBrush@QPainter@@QEAAXAEBVQBrush@@@Z 0000000140014510     Qt5Gui:Qt5Gui.dll
 0002:00000518       __imp_?setPen@QPainter@@QEAAXAEBVQPen@@@Z 0000000140014518     Qt5Gui:Qt5Gui.dll
 0002:00000520       __imp_??1QPainter@@QEAA@XZ 0000000140014520     Qt5Gui:Qt5Gui.dll
 0002:00000528       __imp_??0QPainter@@QEAA@PEAVQPaintDevice@@@Z 0000000140014528     Qt5Gui:Qt5Gui.dll
 0002:00000530       __imp_??1QPen@@QEAA@XZ     0000000140014530     Qt5Gui:Qt5Gui.dll
 0002:00000538       __imp_??0QPen@@QEAA@AEBVQBrush@@NW4PenStyle@Qt@@W4PenCapStyle@3@W4PenJoinStyle@3@@Z 0000000140014538     Qt5Gui:Qt5Gui.dll
 0002:00000540       __imp_??0QBrush@@QEAA@W4GlobalColor@Qt@@W4BrushStyle@2@@Z 0000000140014540     Qt5Gui:Qt5Gui.dll
 0002:00000548       __imp_?pos@QMouseEvent@@QEBA?AVQPoint@@XZ 0000000140014548     Qt5Gui:Qt5Gui.dll
 0002:00000550       \177Qt5Gui_NULL_THUNK_DATA 0000000140014550     Qt5Gui:Qt5Gui.dll
 0002:00000558       __imp_?staticMetaObject@QAbstractVideoSurface@@2UQMetaObject@@B 0000000140014558     Qt5Multimedia:Qt5Multimedia.dll
 0002:00000560       \177Qt5Multimedia_NULL_THUNK_DATA 0000000140014560     Qt5Multimedia:Qt5Multimedia.dll
 0002:00000568       __imp_?staticMetaObject@QSizePolicy@@2UQMetaObject@@B 0000000140014568     Qt5Widgets:Qt5Widgets.dll
 0002:00000570       __imp_?staticMetaObject@QLabel@@2UQMetaObject@@B 0000000140014570     Qt5Widgets:Qt5Widgets.dll
 0002:00000578       __imp_?qt_metacall@QDialog@@UEAAHW4Call@QMetaObject@@HPEAPEAX@Z 0000000140014578     Qt5Widgets:Qt5Widgets.dll
 0002:00000580       __imp_?qt_metacast@QDialog@@UEAAPEAXPEBD@Z 0000000140014580     Qt5Widgets:Qt5Widgets.dll
 0002:00000588       __imp_?staticMetaObject@QDialog@@2UQMetaObject@@B 0000000140014588     Qt5Widgets:Qt5Widgets.dll
 0002:00000590       __imp_?qt_metacall@QMainWindow@@UEAAHW4Call@QMetaObject@@HPEAPEAX@Z 0000000140014590     Qt5Widgets:Qt5Widgets.dll
 0002:00000598       __imp_?qt_metacast@QMainWindow@@UEAAPEAXPEBD@Z 0000000140014598     Qt5Widgets:Qt5Widgets.dll
 0002:000005a0       __imp_?staticMetaObject@QMainWindow@@2UQMetaObject@@B 00000001400145a0     Qt5Widgets:Qt5Widgets.dll
 0002:000005a8       __imp_?staticMetaObject@QWidget@@2UQMetaObject@@B 00000001400145a8     Qt5Widgets:Qt5Widgets.dll
 0002:000005b0       __imp_?exec@QApplication@@SAHXZ 00000001400145b0     Qt5Widgets:Qt5Widgets.dll
 0002:000005b8       __imp_??1QApplication@@UEAA@XZ 00000001400145b8     Qt5Widgets:Qt5Widgets.dll
 0002:000005c0       __imp_??0QApplication@@QEAA@AEAHPEAPEADH@Z 00000001400145c0     Qt5Widgets:Qt5Widgets.dll
 0002:000005c8       __imp_?setWindowFlags@QWidget@@QEAAXV?$QFlags@W4WindowType@Qt@@@@@Z 00000001400145c8     Qt5Widgets:Qt5Widgets.dll
 0002:000005d0       __imp_?setWindowIcon@QWidget@@QEAAXAEBVQIcon@@@Z 00000001400145d0     Qt5Widgets:Qt5Widgets.dll
 0002:000005d8       __imp_?text@QLabel@@QEBA?AVQString@@XZ 00000001400145d8     Qt5Widgets:Qt5Widgets.dll
 0002:000005e0       __imp_?showMinimized@QWidget@@QEAAXXZ 00000001400145e0     Qt5Widgets:Qt5Widgets.dll
 0002:000005e8       __imp_?pos@QWidget@@QEBA?AVQPoint@@XZ 00000001400145e8     Qt5Widgets:Qt5Widgets.dll
 0002:000005f0       __imp_?setPalette@QWidget@@QEAAXAEBVQPalette@@@Z 00000001400145f0     Qt5Widgets:Qt5Widgets.dll
 0002:000005f8       __imp_?setAutoFillBackground@QWidget@@QEAAX_N@Z 00000001400145f8     Qt5Widgets:Qt5Widgets.dll
 0002:00000600       __imp_?sizeHint@QCheckBox@@UEBA?AVQSize@@XZ 0000000140014600     Qt5Widgets:Qt5Widgets.dll
 0002:00000608       __imp_?qt_metacast@QCheckBox@@UEAAPEAXPEBD@Z 0000000140014608     Qt5Widgets:Qt5Widgets.dll
 0002:00000610       __imp_?qt_metacall@QCheckBox@@UEAAHW4Call@QMetaObject@@HPEAPEAX@Z 0000000140014610     Qt5Widgets:Qt5Widgets.dll
 0002:00000618       __imp_?paintEvent@QCheckBox@@MEAAXPEAVQPaintEvent@@@Z 0000000140014618     Qt5Widgets:Qt5Widgets.dll
 0002:00000620       __imp_?nextCheckState@QCheckBox@@MEAAXXZ 0000000140014620     Qt5Widgets:Qt5Widgets.dll
 0002:00000628       __imp_?mouseMoveEvent@QCheckBox@@MEAAXPEAVQMouseEvent@@@Z 0000000140014628     Qt5Widgets:Qt5Widgets.dll
 0002:00000630       __imp_?minimumSizeHint@QCheckBox@@UEBA?AVQSize@@XZ 0000000140014630     Qt5Widgets:Qt5Widgets.dll
 0002:00000638       __imp_?metaObject@QCheckBox@@UEBAPEBUQMetaObject@@XZ 0000000140014638     Qt5Widgets:Qt5Widgets.dll
 0002:00000640       __imp_?hitButton@QCheckBox@@MEBA_NAEBVQPoint@@@Z 0000000140014640     Qt5Widgets:Qt5Widgets.dll
 0002:00000648       __imp_?event@QCheckBox@@MEAA_NPEAVQEvent@@@Z 0000000140014648     Qt5Widgets:Qt5Widgets.dll
 0002:00000650       __imp_?checkStateSet@QCheckBox@@MEAAXXZ 0000000140014650     Qt5Widgets:Qt5Widgets.dll
 0002:00000658       __imp_?setDefault@QPushButton@@QEAAX_N@Z 0000000140014658     Qt5Widgets:Qt5Widgets.dll
 0002:00000660       __imp_??1QCheckBox@@UEAA@XZ 0000000140014660     Qt5Widgets:Qt5Widgets.dll
 0002:00000668       __imp_??0QCheckBox@@QEAA@PEAVQWidget@@@Z 0000000140014668     Qt5Widgets:Qt5Widgets.dll
 0002:00000670       __imp_?setIcon@QAbstractButton@@QEAAXAEBVQIcon@@@Z 0000000140014670     Qt5Widgets:Qt5Widgets.dll
 0002:00000678       __imp_?isFullScreen@QWidget@@QEBA_NXZ 0000000140014678     Qt5Widgets:Qt5Widgets.dll
 0002:00000680       __imp_?isMaximized@QWidget@@QEBA_NXZ 0000000140014680     Qt5Widgets:Qt5Widgets.dll
 0002:00000688       __imp_?setParent@QWidget@@QEAAXPEAV1@@Z 0000000140014688     Qt5Widgets:Qt5Widgets.dll
 0002:00000690       __imp_?setSizePolicy@QWidget@@QEAAXW4Policy@QSizePolicy@@0@Z 0000000140014690     Qt5Widgets:Qt5Widgets.dll
 0002:00000698       __imp_?setFocus@QWidget@@QEAAXW4FocusReason@Qt@@@Z 0000000140014698     Qt5Widgets:Qt5Widgets.dll
 0002:000006a0       __imp_?setEnabled@QWidget@@QEAAX_N@Z 00000001400146a0     Qt5Widgets:Qt5Widgets.dll
 0002:000006a8       __imp_?spacerItem@QSpacerItem@@UEAAPEAV1@XZ 00000001400146a8     Qt5Widgets:Qt5Widgets.dll
 0002:000006b0       __imp_?sizeHint@QSpacerItem@@UEBA?AVQSize@@XZ 00000001400146b0     Qt5Widgets:Qt5Widgets.dll
 0002:000006b8       __imp_?sizeHint@QRadioButton@@UEBA?AVQSize@@XZ 00000001400146b8     Qt5Widgets:Qt5Widgets.dll
 0002:000006c0       __imp_?setGeometry@QSpacerItem@@UEAAXAEBVQRect@@@Z 00000001400146c0     Qt5Widgets:Qt5Widgets.dll
 0002:000006c8       __imp_?qt_metacast@QRadioButton@@UEAAPEAXPEBD@Z 00000001400146c8     Qt5Widgets:Qt5Widgets.dll
 0002:000006d0       __imp_?qt_metacast@QHBoxLayout@@UEAAPEAXPEBD@Z 00000001400146d0     Qt5Widgets:Qt5Widgets.dll
 0002:000006d8       __imp_?qt_metacall@QRadioButton@@UEAAHW4Call@QMetaObject@@HPEAPEAX@Z 00000001400146d8     Qt5Widgets:Qt5Widgets.dll
 0002:000006e0       __imp_?qt_metacall@QHBoxLayout@@UEAAHW4Call@QMetaObject@@HPEAPEAX@Z 00000001400146e0     Qt5Widgets:Qt5Widgets.dll
 0002:000006e8       __imp_?paintEvent@QRadioButton@@MEAAXPEAVQPaintEvent@@@Z 00000001400146e8     Qt5Widgets:Qt5Widgets.dll
 0002:000006f0       __imp_?mouseMoveEvent@QRadioButton@@MEAAXPEAVQMouseEvent@@@Z 00000001400146f0     Qt5Widgets:Qt5Widgets.dll
 0002:000006f8       __imp_?minimumSizeHint@QRadioButton@@UEBA?AVQSize@@XZ 00000001400146f8     Qt5Widgets:Qt5Widgets.dll
 0002:00000700       __imp_?minimumSize@QSpacerItem@@UEBA?AVQSize@@XZ 0000000140014700     Qt5Widgets:Qt5Widgets.dll
 0002:00000708       __imp_?minimumHeightForWidth@QLayoutItem@@UEBAHH@Z 0000000140014708     Qt5Widgets:Qt5Widgets.dll
 0002:00000710       __imp_?metaObject@QRadioButton@@UEBAPEBUQMetaObject@@XZ 0000000140014710     Qt5Widgets:Qt5Widgets.dll
 0002:00000718       __imp_?metaObject@QHBoxLayout@@UEBAPEBUQMetaObject@@XZ 0000000140014718     Qt5Widgets:Qt5Widgets.dll
 0002:00000720       __imp_?maximumSize@QSpacerItem@@UEBA?AVQSize@@XZ 0000000140014720     Qt5Widgets:Qt5Widgets.dll
 0002:00000728       __imp_?layout@QLayoutItem@@UEAAPEAVQLayout@@XZ 0000000140014728     Qt5Widgets:Qt5Widgets.dll
 0002:00000730       __imp_?keyPressEvent@QAbstractButton@@MEAAXPEAVQKeyEvent@@@Z 0000000140014730     Qt5Widgets:Qt5Widgets.dll
 0002:00000738       __imp_?isEmpty@QSpacerItem@@UEBA_NXZ 0000000140014738     Qt5Widgets:Qt5Widgets.dll
 0002:00000740       __imp_?invalidate@QLayoutItem@@UEAAXXZ 0000000140014740     Qt5Widgets:Qt5Widgets.dll
 0002:00000748       __imp_?hitButton@QRadioButton@@MEBA_NAEBVQPoint@@@Z 0000000140014748     Qt5Widgets:Qt5Widgets.dll
 0002:00000750       __imp_?heightForWidth@QLayoutItem@@UEBAHH@Z 0000000140014750     Qt5Widgets:Qt5Widgets.dll
 0002:00000758       __imp_?hasHeightForWidth@QLayoutItem@@UEBA_NXZ 0000000140014758     Qt5Widgets:Qt5Widgets.dll
 0002:00000760       __imp_?geometry@QSpacerItem@@UEBA?AVQRect@@XZ 0000000140014760     Qt5Widgets:Qt5Widgets.dll
 0002:00000768       __imp_?focusOutEvent@QAbstractButton@@MEAAXPEAVQFocusEvent@@@Z 0000000140014768     Qt5Widgets:Qt5Widgets.dll
 0002:00000770       __imp_?focusInEvent@QAbstractButton@@MEAAXPEAVQFocusEvent@@@Z 0000000140014770     Qt5Widgets:Qt5Widgets.dll
 0002:00000778       __imp_?expandingDirections@QSpacerItem@@UEBA?AV?$QFlags@W4Orientation@Qt@@@@XZ 0000000140014778     Qt5Widgets:Qt5Widgets.dll
 0002:00000780       __imp_?event@QRadioButton@@MEAA_NPEAVQEvent@@@Z 0000000140014780     Qt5Widgets:Qt5Widgets.dll
 0002:00000788       __imp_?controlTypes@QLayoutItem@@UEBA?AV?$QFlags@W4ControlType@QSizePolicy@@@@XZ 0000000140014788     Qt5Widgets:Qt5Widgets.dll
 0002:00000790       __imp_??1QRadioButton@@UEAA@XZ 0000000140014790     Qt5Widgets:Qt5Widgets.dll
 0002:00000798       __imp_??0QRadioButton@@QEAA@PEAVQWidget@@@Z 0000000140014798     Qt5Widgets:Qt5Widgets.dll
 0002:000007a0       __imp_?setAlignment@QLabel@@QEAAXV?$QFlags@W4AlignmentFlag@Qt@@@@@Z 00000001400147a0     Qt5Widgets:Qt5Widgets.dll
 0002:000007a8       __imp_??1QHBoxLayout@@UEAA@XZ 00000001400147a8     Qt5Widgets:Qt5Widgets.dll
 0002:000007b0       __imp_??0QHBoxLayout@@QEAA@PEAVQWidget@@@Z 00000001400147b0     Qt5Widgets:Qt5Widgets.dll
 0002:000007b8       __imp_??0QHBoxLayout@@QEAA@XZ 00000001400147b8     Qt5Widgets:Qt5Widgets.dll
 0002:000007c0       __imp_?setSpacing@QBoxLayout@@QEAAXH@Z 00000001400147c0     Qt5Widgets:Qt5Widgets.dll
 0002:000007c8       __imp_?addWidget@QBoxLayout@@QEAAXPEAVQWidget@@HV?$QFlags@W4AlignmentFlag@Qt@@@@@Z 00000001400147c8     Qt5Widgets:Qt5Widgets.dll
 0002:000007d0       __imp_?addItem@QGridLayout@@QEAAXPEAVQLayoutItem@@HHHHV?$QFlags@W4AlignmentFlag@Qt@@@@@Z 00000001400147d0     Qt5Widgets:Qt5Widgets.dll
 0002:000007d8       __imp_?addLayout@QGridLayout@@QEAAXPEAVQLayout@@HHHHV?$QFlags@W4AlignmentFlag@Qt@@@@@Z 00000001400147d8     Qt5Widgets:Qt5Widgets.dll
 0002:000007e0       __imp_??1QSpacerItem@@UEAA@XZ 00000001400147e0     Qt5Widgets:Qt5Widgets.dll
 0002:000007e8       __imp_??0QSpacerItem@@QEAA@HHW4Policy@QSizePolicy@@0@Z 00000001400147e8     Qt5Widgets:Qt5Widgets.dll
 0002:000007f0       __imp_?setChecked@QAbstractButton@@QEAAX_N@Z 00000001400147f0     Qt5Widgets:Qt5Widgets.dll
 0002:000007f8       __imp_?isChecked@QAbstractButton@@QEBA_NXZ 00000001400147f8     Qt5Widgets:Qt5Widgets.dll
 0002:00000800       __imp_?setCheckable@QAbstractButton@@QEAAX_N@Z 0000000140014800     Qt5Widgets:Qt5Widgets.dll
 0002:00000808       __imp_?setAttribute@QWidget@@QEAAXW4WidgetAttribute@Qt@@_N@Z 0000000140014808     Qt5Widgets:Qt5Widgets.dll
 0002:00000810       __imp_?setFocusPolicy@QWidget@@QEAAXW4FocusPolicy@Qt@@@Z 0000000140014810     Qt5Widgets:Qt5Widgets.dll
 0002:00000818       __imp_?setToolTip@QWidget@@QEAAXAEBVQString@@@Z 0000000140014818     Qt5Widgets:Qt5Widgets.dll
 0002:00000820       __imp_?staticMetaObject@QTreeView@@2UQMetaObject@@B 0000000140014820     Qt5Widgets:Qt5Widgets.dll
 0002:00000828       __imp_?staticMetaObject@QListView@@2UQMetaObject@@B 0000000140014828     Qt5Widgets:Qt5Widgets.dll
 0002:00000830       __imp_?setOption@QFileDialog@@QEAAXW4Option@1@_N@Z 0000000140014830     Qt5Widgets:Qt5Widgets.dll
 0002:00000838       __imp_?setViewMode@QFileDialog@@QEAAXW4ViewMode@1@@Z 0000000140014838     Qt5Widgets:Qt5Widgets.dll
 0002:00000840       __imp_?setNameFilters@QFileDialog@@QEAAXAEBVQStringList@@@Z 0000000140014840     Qt5Widgets:Qt5Widgets.dll
 0002:00000848       __imp_?selectedFiles@QFileDialog@@QEBA?AVQStringList@@XZ 0000000140014848     Qt5Widgets:Qt5Widgets.dll
 0002:00000850       __imp_?setDirectory@QFileDialog@@QEAAXAEBVQString@@@Z 0000000140014850     Qt5Widgets:Qt5Widgets.dll
 0002:00000858       __imp_??1QFileDialog@@UEAA@XZ 0000000140014858     Qt5Widgets:Qt5Widgets.dll
 0002:00000860       __imp_??0QFileDialog@@QEAA@PEAVQWidget@@AEBVQString@@11@Z 0000000140014860     Qt5Widgets:Qt5Widgets.dll
 0002:00000868       __imp_?setSelectionMode@QAbstractItemView@@QEAAXW4SelectionMode@1@@Z 0000000140014868     Qt5Widgets:Qt5Widgets.dll
 0002:00000870       __imp_?addWidget@QGridLayout@@QEAAXPEAVQWidget@@HHV?$QFlags@W4AlignmentFlag@Qt@@@@@Z 0000000140014870     Qt5Widgets:Qt5Widgets.dll
 0002:00000878       __imp_?setHorizontalSpacing@QGridLayout@@QEAAXH@Z 0000000140014878     Qt5Widgets:Qt5Widgets.dll
 0002:00000880       __imp_?layout@QWidget@@QEBAPEAVQLayout@@XZ 0000000140014880     Qt5Widgets:Qt5Widgets.dll
 0002:00000888       __imp_?takeAt@QBoxLayout@@UEAAPEAVQLayoutItem@@H@Z 0000000140014888     Qt5Widgets:Qt5Widgets.dll
 0002:00000890       __imp_?sizeHint@QLabel@@UEBA?AVQSize@@XZ 0000000140014890     Qt5Widgets:Qt5Widgets.dll
 0002:00000898       __imp_?sizeHint@QBoxLayout@@UEBA?AVQSize@@XZ 0000000140014898     Qt5Widgets:Qt5Widgets.dll
 0002:000008a0       __imp_?setGeometry@QBoxLayout@@UEAAXAEBVQRect@@@Z 00000001400148a0     Qt5Widgets:Qt5Widgets.dll
 0002:000008a8       __imp_?qt_metacast@QVBoxLayout@@UEAAPEAXPEBD@Z 00000001400148a8     Qt5Widgets:Qt5Widgets.dll
 0002:000008b0       __imp_?qt_metacast@QLabel@@UEAAPEAXPEBD@Z 00000001400148b0     Qt5Widgets:Qt5Widgets.dll
 0002:000008b8       __imp_?qt_metacall@QVBoxLayout@@UEAAHW4Call@QMetaObject@@HPEAPEAX@Z 00000001400148b8     Qt5Widgets:Qt5Widgets.dll
 0002:000008c0       __imp_?qt_metacall@QLabel@@UEAAHW4Call@QMetaObject@@HPEAPEAX@Z 00000001400148c0     Qt5Widgets:Qt5Widgets.dll
 0002:000008c8       __imp_?paintEvent@QLabel@@MEAAXPEAVQPaintEvent@@@Z 00000001400148c8     Qt5Widgets:Qt5Widgets.dll
 0002:000008d0       __imp_?mouseReleaseEvent@QLabel@@MEAAXPEAVQMouseEvent@@@Z 00000001400148d0     Qt5Widgets:Qt5Widgets.dll
 0002:000008d8       __imp_?mousePressEvent@QLabel@@MEAAXPEAVQMouseEvent@@@Z 00000001400148d8     Qt5Widgets:Qt5Widgets.dll
 0002:000008e0       __imp_?mouseMoveEvent@QLabel@@MEAAXPEAVQMouseEvent@@@Z 00000001400148e0     Qt5Widgets:Qt5Widgets.dll
 0002:000008e8       __imp_?minimumSizeHint@QLabel@@UEBA?AVQSize@@XZ 00000001400148e8     Qt5Widgets:Qt5Widgets.dll
 0002:000008f0       __imp_?minimumSize@QBoxLayout@@UEBA?AVQSize@@XZ 00000001400148f0     Qt5Widgets:Qt5Widgets.dll
 0002:000008f8       __imp_?minimumHeightForWidth@QBoxLayout@@UEBAHH@Z 00000001400148f8     Qt5Widgets:Qt5Widgets.dll
 0002:00000900       __imp_?metaObject@QVBoxLayout@@UEBAPEBUQMetaObject@@XZ 0000000140014900     Qt5Widgets:Qt5Widgets.dll
 0002:00000908       __imp_?metaObject@QLabel@@UEBAPEBUQMetaObject@@XZ 0000000140014908     Qt5Widgets:Qt5Widgets.dll
 0002:00000910       __imp_?maximumSize@QBoxLayout@@UEBA?AVQSize@@XZ 0000000140014910     Qt5Widgets:Qt5Widgets.dll
 0002:00000918       __imp_?keyPressEvent@QLabel@@MEAAXPEAVQKeyEvent@@@Z 0000000140014918     Qt5Widgets:Qt5Widgets.dll
 0002:00000920       __imp_?itemAt@QBoxLayout@@UEBAPEAVQLayoutItem@@H@Z 0000000140014920     Qt5Widgets:Qt5Widgets.dll
 0002:00000928       __imp_?invalidate@QBoxLayout@@UEAAXXZ 0000000140014928     Qt5Widgets:Qt5Widgets.dll
 0002:00000930       __imp_?heightForWidth@QLabel@@UEBAHH@Z 0000000140014930     Qt5Widgets:Qt5Widgets.dll
 0002:00000938       __imp_?heightForWidth@QBoxLayout@@UEBAHH@Z 0000000140014938     Qt5Widgets:Qt5Widgets.dll
 0002:00000940       __imp_?hasHeightForWidth@QBoxLayout@@UEBA_NXZ 0000000140014940     Qt5Widgets:Qt5Widgets.dll
 0002:00000948       __imp_?focusOutEvent@QLabel@@MEAAXPEAVQFocusEvent@@@Z 0000000140014948     Qt5Widgets:Qt5Widgets.dll
 0002:00000950       __imp_?focusNextPrevChild@QLabel@@MEAA_N_N@Z 0000000140014950     Qt5Widgets:Qt5Widgets.dll
 0002:00000958       __imp_?focusInEvent@QLabel@@MEAAXPEAVQFocusEvent@@@Z 0000000140014958     Qt5Widgets:Qt5Widgets.dll
 0002:00000960       __imp_?expandingDirections@QBoxLayout@@UEBA?AV?$QFlags@W4Orientation@Qt@@@@XZ 0000000140014960     Qt5Widgets:Qt5Widgets.dll
 0002:00000968       __imp_?event@QLabel@@MEAA_NPEAVQEvent@@@Z 0000000140014968     Qt5Widgets:Qt5Widgets.dll
 0002:00000970       __imp_?count@QBoxLayout@@UEBAHXZ 0000000140014970     Qt5Widgets:Qt5Widgets.dll
 0002:00000978       __imp_?contextMenuEvent@QLabel@@MEAAXPEAVQContextMenuEvent@@@Z 0000000140014978     Qt5Widgets:Qt5Widgets.dll
 0002:00000980       __imp_?changeEvent@QLabel@@MEAAXPEAVQEvent@@@Z 0000000140014980     Qt5Widgets:Qt5Widgets.dll
 0002:00000988       __imp_?addItem@QBoxLayout@@UEAAXPEAVQLayoutItem@@@Z 0000000140014988     Qt5Widgets:Qt5Widgets.dll
 0002:00000990       __imp_?setHtml@QTextEdit@@QEAAXAEBVQString@@@Z 0000000140014990     Qt5Widgets:Qt5Widgets.dll
 0002:00000998       __imp_?setText@QLabel@@QEAAXAEBVQString@@@Z 0000000140014998     Qt5Widgets:Qt5Widgets.dll
 0002:000009a0       __imp_??1QLabel@@UEAA@XZ   00000001400149a0     Qt5Widgets:Qt5Widgets.dll
 0002:000009a8       __imp_??0QLabel@@QEAA@PEAVQWidget@@V?$QFlags@W4WindowType@Qt@@@@@Z 00000001400149a8     Qt5Widgets:Qt5Widgets.dll
 0002:000009b0       __imp_?setFlat@QPushButton@@QEAAX_N@Z 00000001400149b0     Qt5Widgets:Qt5Widgets.dll
 0002:000009b8       __imp_?setAutoDefault@QPushButton@@QEAAX_N@Z 00000001400149b8     Qt5Widgets:Qt5Widgets.dll
 0002:000009c0       __imp_??1QVBoxLayout@@UEAA@XZ 00000001400149c0     Qt5Widgets:Qt5Widgets.dll
 0002:000009c8       __imp_??0QVBoxLayout@@QEAA@PEAVQWidget@@@Z 00000001400149c8     Qt5Widgets:Qt5Widgets.dll
 0002:000009d0       __imp_?setLineWidth@QFrame@@QEAAXH@Z 00000001400149d0     Qt5Widgets:Qt5Widgets.dll
 0002:000009d8       __imp_?setIconSize@QAbstractButton@@QEAAXAEBVQSize@@@Z 00000001400149d8     Qt5Widgets:Qt5Widgets.dll
 0002:000009e0       __imp_?setFont@QWidget@@QEAAXAEBVQFont@@@Z 00000001400149e0     Qt5Widgets:Qt5Widgets.dll
 0002:000009e8       __imp_?wheelEvent@QTextEdit@@MEAAXPEAVQWheelEvent@@@Z 00000001400149e8     Qt5Widgets:Qt5Widgets.dll
 0002:000009f0       __imp_?wheelEvent@QAbstractScrollArea@@MEAAXPEAVQWheelEvent@@@Z 00000001400149f0     Qt5Widgets:Qt5Widgets.dll
 0002:000009f8       __imp_?viewportSizeHint@QScrollArea@@MEBA?AVQSize@@XZ 00000001400149f8     Qt5Widgets:Qt5Widgets.dll
 0002:00000a00       __imp_?viewportSizeHint@QAbstractScrollArea@@MEBA?AVQSize@@XZ 0000000140014a00     Qt5Widgets:Qt5Widgets.dll
 0002:00000a08       __imp_?viewportEvent@QAbstractScrollArea@@MEAA_NPEAVQEvent@@@Z 0000000140014a08     Qt5Widgets:Qt5Widgets.dll
 0002:00000a10       __imp_?timerEvent@QTextEdit@@MEAAXPEAVQTimerEvent@@@Z 0000000140014a10     Qt5Widgets:Qt5Widgets.dll
 0002:00000a18       __imp_?timerEvent@QAbstractButton@@MEAAXPEAVQTimerEvent@@@Z 0000000140014a18     Qt5Widgets:Qt5Widgets.dll
 0002:00000a20       __imp_?sizeHint@QScrollArea@@UEBA?AVQSize@@XZ 0000000140014a20     Qt5Widgets:Qt5Widgets.dll
 0002:00000a28       __imp_?sizeHint@QPushButton@@UEBA?AVQSize@@XZ 0000000140014a28     Qt5Widgets:Qt5Widgets.dll
 0002:00000a30       __imp_?sizeHint@QDialog@@UEBA?AVQSize@@XZ 0000000140014a30     Qt5Widgets:Qt5Widgets.dll
 0002:00000a38       __imp_?sizeHint@QAbstractScrollArea@@UEBA?AVQSize@@XZ 0000000140014a38     Qt5Widgets:Qt5Widgets.dll
 0002:00000a40       __imp_?showEvent@QTextEdit@@MEAAXPEAVQShowEvent@@@Z 0000000140014a40     Qt5Widgets:Qt5Widgets.dll
 0002:00000a48       __imp_?setupViewport@QAbstractScrollArea@@UEAAXPEAVQWidget@@@Z 0000000140014a48     Qt5Widgets:Qt5Widgets.dll
 0002:00000a50       __imp_?setVisible@QDialog@@UEAAX_N@Z 0000000140014a50     Qt5Widgets:Qt5Widgets.dll
 0002:00000a58       __imp_?setSource@QTextBrowser@@UEAAXAEBVQUrl@@@Z 0000000140014a58     Qt5Widgets:Qt5Widgets.dll
 0002:00000a60       __imp_?scrollContentsBy@QTextEdit@@MEAAXHH@Z 0000000140014a60     Qt5Widgets:Qt5Widgets.dll
 0002:00000a68       __imp_?scrollContentsBy@QScrollArea@@MEAAXHH@Z 0000000140014a68     Qt5Widgets:Qt5Widgets.dll
 0002:00000a70       __imp_?resizeEvent@QTextEdit@@MEAAXPEAVQResizeEvent@@@Z 0000000140014a70     Qt5Widgets:Qt5Widgets.dll
 0002:00000a78       __imp_?resizeEvent@QScrollArea@@MEAAXPEAVQResizeEvent@@@Z 0000000140014a78     Qt5Widgets:Qt5Widgets.dll
 0002:00000a80       __imp_?reload@QTextBrowser@@UEAAXXZ 0000000140014a80     Qt5Widgets:Qt5Widgets.dll
 0002:00000a88       __imp_?reject@QDialog@@UEAAXXZ 0000000140014a88     Qt5Widgets:Qt5Widgets.dll
 0002:00000a90       __imp_?qt_metacast@QTextBrowser@@UEAAPEAXPEBD@Z 0000000140014a90     Qt5Widgets:Qt5Widgets.dll
 0002:00000a98       __imp_?qt_metacast@QScrollArea@@UEAAPEAXPEBD@Z 0000000140014a98     Qt5Widgets:Qt5Widgets.dll
 0002:00000aa0       __imp_?qt_metacast@QPushButton@@UEAAPEAXPEBD@Z 0000000140014aa0     Qt5Widgets:Qt5Widgets.dll
 0002:00000aa8       __imp_?qt_metacall@QTextBrowser@@UEAAHW4Call@QMetaObject@@HPEAPEAX@Z 0000000140014aa8     Qt5Widgets:Qt5Widgets.dll
 0002:00000ab0       __imp_?qt_metacall@QScrollArea@@UEAAHW4Call@QMetaObject@@HPEAPEAX@Z 0000000140014ab0     Qt5Widgets:Qt5Widgets.dll
 0002:00000ab8       __imp_?qt_metacall@QPushButton@@UEAAHW4Call@QMetaObject@@HPEAPEAX@Z 0000000140014ab8     Qt5Widgets:Qt5Widgets.dll
 0002:00000ac0       __imp_?paintEvent@QTextBrowser@@MEAAXPEAVQPaintEvent@@@Z 0000000140014ac0     Qt5Widgets:Qt5Widgets.dll
 0002:00000ac8       __imp_?paintEvent@QPushButton@@MEAAXPEAVQPaintEvent@@@Z 0000000140014ac8     Qt5Widgets:Qt5Widgets.dll
 0002:00000ad0       __imp_?paintEvent@QAbstractScrollArea@@MEAAXPEAVQPaintEvent@@@Z 0000000140014ad0     Qt5Widgets:Qt5Widgets.dll
 0002:00000ad8       __imp_?open@QDialog@@UEAAXXZ 0000000140014ad8     Qt5Widgets:Qt5Widgets.dll
 0002:00000ae0       __imp_?nextCheckState@QAbstractButton@@MEAAXXZ 0000000140014ae0     Qt5Widgets:Qt5Widgets.dll
 0002:00000ae8       __imp_?mouseReleaseEvent@QTextBrowser@@MEAAXPEAVQMouseEvent@@@Z 0000000140014ae8     Qt5Widgets:Qt5Widgets.dll
 0002:00000af0       __imp_?mouseReleaseEvent@QAbstractScrollArea@@MEAAXPEAVQMouseEvent@@@Z 0000000140014af0     Qt5Widgets:Qt5Widgets.dll
 0002:00000af8       __imp_?mouseReleaseEvent@QAbstractButton@@MEAAXPEAVQMouseEvent@@@Z 0000000140014af8     Qt5Widgets:Qt5Widgets.dll
 0002:00000b00       __imp_?mousePressEvent@QTextBrowser@@MEAAXPEAVQMouseEvent@@@Z 0000000140014b00     Qt5Widgets:Qt5Widgets.dll
 0002:00000b08       __imp_?mousePressEvent@QAbstractScrollArea@@MEAAXPEAVQMouseEvent@@@Z 0000000140014b08     Qt5Widgets:Qt5Widgets.dll
 0002:00000b10       __imp_?mousePressEvent@QAbstractButton@@MEAAXPEAVQMouseEvent@@@Z 0000000140014b10     Qt5Widgets:Qt5Widgets.dll
 0002:00000b18       __imp_?mouseMoveEvent@QTextBrowser@@MEAAXPEAVQMouseEvent@@@Z 0000000140014b18     Qt5Widgets:Qt5Widgets.dll
 0002:00000b20       __imp_?mouseMoveEvent@QAbstractScrollArea@@MEAAXPEAVQMouseEvent@@@Z 0000000140014b20     Qt5Widgets:Qt5Widgets.dll
 0002:00000b28       __imp_?mouseMoveEvent@QAbstractButton@@MEAAXPEAVQMouseEvent@@@Z 0000000140014b28     Qt5Widgets:Qt5Widgets.dll
 0002:00000b30       __imp_?mouseDoubleClickEvent@QTextEdit@@MEAAXPEAVQMouseEvent@@@Z 0000000140014b30     Qt5Widgets:Qt5Widgets.dll
 0002:00000b38       __imp_?mouseDoubleClickEvent@QAbstractScrollArea@@MEAAXPEAVQMouseEvent@@@Z 0000000140014b38     Qt5Widgets:Qt5Widgets.dll
 0002:00000b40       __imp_?minimumSizeHint@QPushButton@@UEBA?AVQSize@@XZ 0000000140014b40     Qt5Widgets:Qt5Widgets.dll
 0002:00000b48       __imp_?minimumSizeHint@QDialog@@UEBA?AVQSize@@XZ 0000000140014b48     Qt5Widgets:Qt5Widgets.dll
 0002:00000b50       __imp_?minimumSizeHint@QAbstractScrollArea@@UEBA?AVQSize@@XZ 0000000140014b50     Qt5Widgets:Qt5Widgets.dll
 0002:00000b58       __imp_?metaObject@QTextBrowser@@UEBAPEBUQMetaObject@@XZ 0000000140014b58     Qt5Widgets:Qt5Widgets.dll
 0002:00000b60       __imp_?metaObject@QScrollArea@@UEBAPEBUQMetaObject@@XZ 0000000140014b60     Qt5Widgets:Qt5Widgets.dll
 0002:00000b68       __imp_?metaObject@QPushButton@@UEBAPEBUQMetaObject@@XZ 0000000140014b68     Qt5Widgets:Qt5Widgets.dll
 0002:00000b70       __imp_?loadResource@QTextBrowser@@UEAA?AVQVariant@@HAEBVQUrl@@@Z 0000000140014b70     Qt5Widgets:Qt5Widgets.dll
 0002:00000b78       __imp_?keyReleaseEvent@QTextEdit@@MEAAXPEAVQKeyEvent@@@Z 0000000140014b78     Qt5Widgets:Qt5Widgets.dll
 0002:00000b80       __imp_?keyReleaseEvent@QAbstractButton@@MEAAXPEAVQKeyEvent@@@Z 0000000140014b80     Qt5Widgets:Qt5Widgets.dll
 0002:00000b88       __imp_?keyPressEvent@QTextBrowser@@MEAAXPEAVQKeyEvent@@@Z 0000000140014b88     Qt5Widgets:Qt5Widgets.dll
 0002:00000b90       __imp_?keyPressEvent@QPushButton@@MEAAXPEAVQKeyEvent@@@Z 0000000140014b90     Qt5Widgets:Qt5Widgets.dll
 0002:00000b98       __imp_?keyPressEvent@QDialog@@MEAAXPEAVQKeyEvent@@@Z 0000000140014b98     Qt5Widgets:Qt5Widgets.dll
 0002:00000ba0       __imp_?keyPressEvent@QAbstractScrollArea@@MEAAXPEAVQKeyEvent@@@Z 0000000140014ba0     Qt5Widgets:Qt5Widgets.dll
 0002:00000ba8       __imp_?insertFromMimeData@QTextEdit@@MEAAXPEBVQMimeData@@@Z 0000000140014ba8     Qt5Widgets:Qt5Widgets.dll
 0002:00000bb0       __imp_?inputMethodQuery@QTextEdit@@UEBA?AVQVariant@@W4InputMethodQuery@Qt@@@Z 0000000140014bb0     Qt5Widgets:Qt5Widgets.dll
 0002:00000bb8       __imp_?inputMethodEvent@QTextEdit@@MEAAXPEAVQInputMethodEvent@@@Z 0000000140014bb8     Qt5Widgets:Qt5Widgets.dll
 0002:00000bc0       __imp_?home@QTextBrowser@@UEAAXXZ 0000000140014bc0     Qt5Widgets:Qt5Widgets.dll
 0002:00000bc8       __imp_?hitButton@QAbstractButton@@MEBA_NAEBVQPoint@@@Z 0000000140014bc8     Qt5Widgets:Qt5Widgets.dll
 0002:00000bd0       __imp_?forward@QTextBrowser@@UEAAXXZ 0000000140014bd0     Qt5Widgets:Qt5Widgets.dll
 0002:00000bd8       __imp_?focusOutEvent@QTextBrowser@@MEAAXPEAVQFocusEvent@@@Z 0000000140014bd8     Qt5Widgets:Qt5Widgets.dll
 0002:00000be0       __imp_?focusOutEvent@QPushButton@@MEAAXPEAVQFocusEvent@@@Z 0000000140014be0     Qt5Widgets:Qt5Widgets.dll
 0002:00000be8       __imp_?focusNextPrevChild@QTextBrowser@@MEAA_N_N@Z 0000000140014be8     Qt5Widgets:Qt5Widgets.dll
 0002:00000bf0       __imp_?focusNextPrevChild@QScrollArea@@UEAA_N_N@Z 0000000140014bf0     Qt5Widgets:Qt5Widgets.dll
 0002:00000bf8       __imp_?focusInEvent@QTextEdit@@MEAAXPEAVQFocusEvent@@@Z 0000000140014bf8     Qt5Widgets:Qt5Widgets.dll
 0002:00000c00       __imp_?focusInEvent@QPushButton@@MEAAXPEAVQFocusEvent@@@Z 0000000140014c00     Qt5Widgets:Qt5Widgets.dll
 0002:00000c08       __imp_?exec@QDialog@@UEAAHXZ 0000000140014c08     Qt5Widgets:Qt5Widgets.dll
 0002:00000c10       __imp_?eventFilter@QScrollArea@@MEAA_NPEAVQObject@@PEAVQEvent@@@Z 0000000140014c10     Qt5Widgets:Qt5Widgets.dll
 0002:00000c18       __imp_?eventFilter@QDialog@@MEAA_NPEAVQObject@@PEAVQEvent@@@Z 0000000140014c18     Qt5Widgets:Qt5Widgets.dll
 0002:00000c20       __imp_?eventFilter@QAbstractScrollArea@@MEAA_NPEAVQObject@@PEAVQEvent@@@Z 0000000140014c20     Qt5Widgets:Qt5Widgets.dll
 0002:00000c28       __imp_?event@QTextBrowser@@MEAA_NPEAVQEvent@@@Z 0000000140014c28     Qt5Widgets:Qt5Widgets.dll
 0002:00000c30       __imp_?event@QScrollArea@@MEAA_NPEAVQEvent@@@Z 0000000140014c30     Qt5Widgets:Qt5Widgets.dll
 0002:00000c38       __imp_?event@QPushButton@@MEAA_NPEAVQEvent@@@Z 0000000140014c38     Qt5Widgets:Qt5Widgets.dll
 0002:00000c40       __imp_?dropEvent@QTextEdit@@MEAAXPEAVQDropEvent@@@Z 0000000140014c40     Qt5Widgets:Qt5Widgets.dll
 0002:00000c48       __imp_?dropEvent@QAbstractScrollArea@@MEAAXPEAVQDropEvent@@@Z 0000000140014c48     Qt5Widgets:Qt5Widgets.dll
 0002:00000c50       __imp_?dragMoveEvent@QTextEdit@@MEAAXPEAVQDragMoveEvent@@@Z 0000000140014c50     Qt5Widgets:Qt5Widgets.dll
 0002:00000c58       __imp_?dragMoveEvent@QAbstractScrollArea@@MEAAXPEAVQDragMoveEvent@@@Z 0000000140014c58     Qt5Widgets:Qt5Widgets.dll
 0002:00000c60       __imp_?dragLeaveEvent@QTextEdit@@MEAAXPEAVQDragLeaveEvent@@@Z 0000000140014c60     Qt5Widgets:Qt5Widgets.dll
 0002:00000c68       __imp_?dragLeaveEvent@QAbstractScrollArea@@MEAAXPEAVQDragLeaveEvent@@@Z 0000000140014c68     Qt5Widgets:Qt5Widgets.dll
 0002:00000c70       __imp_?dragEnterEvent@QTextEdit@@MEAAXPEAVQDragEnterEvent@@@Z 0000000140014c70     Qt5Widgets:Qt5Widgets.dll
 0002:00000c78       __imp_?dragEnterEvent@QAbstractScrollArea@@MEAAXPEAVQDragEnterEvent@@@Z 0000000140014c78     Qt5Widgets:Qt5Widgets.dll
 0002:00000c80       __imp_?done@QDialog@@UEAAXH@Z 0000000140014c80     Qt5Widgets:Qt5Widgets.dll
 0002:00000c88       __imp_?doSetTextCursor@QTextEdit@@MEAAXAEBVQTextCursor@@@Z 0000000140014c88     Qt5Widgets:Qt5Widgets.dll
 0002:00000c90       __imp_?createMimeDataFromSelection@QTextEdit@@MEBAPEAVQMimeData@@XZ 0000000140014c90     Qt5Widgets:Qt5Widgets.dll
 0002:00000c98       __imp_?contextMenuEvent@QTextEdit@@MEAAXPEAVQContextMenuEvent@@@Z 0000000140014c98     Qt5Widgets:Qt5Widgets.dll
 0002:00000ca0       __imp_?contextMenuEvent@QDialog@@MEAAXPEAVQContextMenuEvent@@@Z 0000000140014ca0     Qt5Widgets:Qt5Widgets.dll
 0002:00000ca8       __imp_?contextMenuEvent@QAbstractScrollArea@@MEAAXPEAVQContextMenuEvent@@@Z 0000000140014ca8     Qt5Widgets:Qt5Widgets.dll
 0002:00000cb0       __imp_?checkStateSet@QAbstractButton@@MEAAXXZ 0000000140014cb0     Qt5Widgets:Qt5Widgets.dll
 0002:00000cb8       __imp_?changeEvent@QTextEdit@@MEAAXPEAVQEvent@@@Z 0000000140014cb8     Qt5Widgets:Qt5Widgets.dll
 0002:00000cc0       __imp_?changeEvent@QAbstractButton@@MEAAXPEAVQEvent@@@Z 0000000140014cc0     Qt5Widgets:Qt5Widgets.dll
 0002:00000cc8       __imp_?canInsertFromMimeData@QTextEdit@@MEBA_NPEBVQMimeData@@@Z 0000000140014cc8     Qt5Widgets:Qt5Widgets.dll
 0002:00000cd0       __imp_?backward@QTextBrowser@@UEAAXXZ 0000000140014cd0     Qt5Widgets:Qt5Widgets.dll
 0002:00000cd8       __imp_?accept@QDialog@@UEAAXXZ 0000000140014cd8     Qt5Widgets:Qt5Widgets.dll
 0002:00000ce0       __imp_??1QTextBrowser@@UEAA@XZ 0000000140014ce0     Qt5Widgets:Qt5Widgets.dll
 0002:00000ce8       __imp_??0QTextBrowser@@QEAA@PEAVQWidget@@@Z 0000000140014ce8     Qt5Widgets:Qt5Widgets.dll
 0002:00000cf0       __imp_?setWidgetResizable@QScrollArea@@QEAAX_N@Z 0000000140014cf0     Qt5Widgets:Qt5Widgets.dll
 0002:00000cf8       __imp_?setWidget@QScrollArea@@QEAAXPEAVQWidget@@@Z 0000000140014cf8     Qt5Widgets:Qt5Widgets.dll
 0002:00000d00       __imp_??1QScrollArea@@UEAA@XZ 0000000140014d00     Qt5Widgets:Qt5Widgets.dll
 0002:00000d08       __imp_??0QScrollArea@@QEAA@PEAVQWidget@@@Z 0000000140014d08     Qt5Widgets:Qt5Widgets.dll
 0002:00000d10       __imp_??1QPushButton@@UEAA@XZ 0000000140014d10     Qt5Widgets:Qt5Widgets.dll
 0002:00000d18       __imp_??0QPushButton@@QEAA@PEAVQWidget@@@Z 0000000140014d18     Qt5Widgets:Qt5Widgets.dll
 0002:00000d20       __imp_?resizeEvent@QDialog@@MEAAXPEAVQResizeEvent@@@Z 0000000140014d20     Qt5Widgets:Qt5Widgets.dll
 0002:00000d28       __imp_?showEvent@QDialog@@MEAAXPEAVQShowEvent@@@Z 0000000140014d28     Qt5Widgets:Qt5Widgets.dll
 0002:00000d30       __imp_?closeEvent@QDialog@@MEAAXPEAVQCloseEvent@@@Z 0000000140014d30     Qt5Widgets:Qt5Widgets.dll
 0002:00000d38       __imp_??1QDialog@@UEAA@XZ  0000000140014d38     Qt5Widgets:Qt5Widgets.dll
 0002:00000d40       __imp_??0QDialog@@QEAA@PEAVQWidget@@V?$QFlags@W4WindowType@Qt@@@@@Z 0000000140014d40     Qt5Widgets:Qt5Widgets.dll
 0002:00000d48       __imp_?setText@QAbstractButton@@QEAAXAEBVQString@@@Z 0000000140014d48     Qt5Widgets:Qt5Widgets.dll
 0002:00000d50       __imp_?setGeometry@QWidget@@QEAAXAEBVQRect@@@Z 0000000140014d50     Qt5Widgets:Qt5Widgets.dll
 0002:00000d58       __imp_?setLayoutDirection@QWidget@@QEAAXW4LayoutDirection@Qt@@@Z 0000000140014d58     Qt5Widgets:Qt5Widgets.dll
 0002:00000d60       __imp_?widget@QLayoutItem@@UEAAPEAVQWidget@@XZ 0000000140014d60     Qt5Widgets:Qt5Widgets.dll
 0002:00000d68       __imp_?wheelEvent@QWidget@@MEAAXPEAVQWheelEvent@@@Z 0000000140014d68     Qt5Widgets:Qt5Widgets.dll
 0002:00000d70       __imp_?takeAt@QGridLayout@@UEAAPEAVQLayoutItem@@H@Z 0000000140014d70     Qt5Widgets:Qt5Widgets.dll
 0002:00000d78       __imp_?tabletEvent@QWidget@@MEAAXPEAVQTabletEvent@@@Z 0000000140014d78     Qt5Widgets:Qt5Widgets.dll
 0002:00000d80       __imp_?spacerItem@QLayoutItem@@UEAAPEAVQSpacerItem@@XZ 0000000140014d80     Qt5Widgets:Qt5Widgets.dll
 0002:00000d88       __imp_?sizeHint@QWidget@@UEBA?AVQSize@@XZ 0000000140014d88     Qt5Widgets:Qt5Widgets.dll
 0002:00000d90       __imp_?sizeHint@QGridLayout@@UEBA?AVQSize@@XZ 0000000140014d90     Qt5Widgets:Qt5Widgets.dll
 0002:00000d98       __imp_?sizeHint@QFrame@@UEBA?AVQSize@@XZ 0000000140014d98     Qt5Widgets:Qt5Widgets.dll
 0002:00000da0       __imp_?sharedPainter@QWidget@@MEBAPEAVQPainter@@XZ 0000000140014da0     Qt5Widgets:Qt5Widgets.dll
 0002:00000da8       __imp_?setVisible@QWidget@@UEAAX_N@Z 0000000140014da8     Qt5Widgets:Qt5Widgets.dll
 0002:00000db0       __imp_?setGeometry@QGridLayout@@UEAAXAEBVQRect@@@Z 0000000140014db0     Qt5Widgets:Qt5Widgets.dll
 0002:00000db8       __imp_?redirected@QWidget@@MEBAPEAVQPaintDevice@@PEAVQPoint@@@Z 0000000140014db8     Qt5Widgets:Qt5Widgets.dll
 0002:00000dc0       __imp_?qt_metacast@QWidget@@UEAAPEAXPEBD@Z 0000000140014dc0     Qt5Widgets:Qt5Widgets.dll
 0002:00000dc8       __imp_?qt_metacast@QGridLayout@@UEAAPEAXPEBD@Z 0000000140014dc8     Qt5Widgets:Qt5Widgets.dll
 0002:00000dd0       __imp_?qt_metacast@QFrame@@UEAAPEAXPEBD@Z 0000000140014dd0     Qt5Widgets:Qt5Widgets.dll
 0002:00000dd8       __imp_?qt_metacall@QWidget@@UEAAHW4Call@QMetaObject@@HPEAPEAX@Z 0000000140014dd8     Qt5Widgets:Qt5Widgets.dll
 0002:00000de0       __imp_?qt_metacall@QGridLayout@@UEAAHW4Call@QMetaObject@@HPEAPEAX@Z 0000000140014de0     Qt5Widgets:Qt5Widgets.dll
 0002:00000de8       __imp_?qt_metacall@QFrame@@UEAAHW4Call@QMetaObject@@HPEAPEAX@Z 0000000140014de8     Qt5Widgets:Qt5Widgets.dll
 0002:00000df0       __imp_?paintEvent@QWidget@@MEAAXPEAVQPaintEvent@@@Z 0000000140014df0     Qt5Widgets:Qt5Widgets.dll
 0002:00000df8       __imp_?paintEvent@QFrame@@MEAAXPEAVQPaintEvent@@@Z 0000000140014df8     Qt5Widgets:Qt5Widgets.dll
 0002:00000e00       __imp_?paintEngine@QWidget@@UEBAPEAVQPaintEngine@@XZ 0000000140014e00     Qt5Widgets:Qt5Widgets.dll
 0002:00000e08       __imp_?nativeEvent@QWidget@@MEAA_NAEBVQByteArray@@PEAXPEAJ@Z 0000000140014e08     Qt5Widgets:Qt5Widgets.dll
 0002:00000e10       __imp_?moveEvent@QWidget@@MEAAXPEAVQMoveEvent@@@Z 0000000140014e10     Qt5Widgets:Qt5Widgets.dll
 0002:00000e18       __imp_?mouseReleaseEvent@QWidget@@MEAAXPEAVQMouseEvent@@@Z 0000000140014e18     Qt5Widgets:Qt5Widgets.dll
 0002:00000e20       __imp_?mousePressEvent@QWidget@@MEAAXPEAVQMouseEvent@@@Z 0000000140014e20     Qt5Widgets:Qt5Widgets.dll
 0002:00000e28       __imp_?mouseMoveEvent@QWidget@@MEAAXPEAVQMouseEvent@@@Z 0000000140014e28     Qt5Widgets:Qt5Widgets.dll
 0002:00000e30       __imp_?mouseDoubleClickEvent@QWidget@@MEAAXPEAVQMouseEvent@@@Z 0000000140014e30     Qt5Widgets:Qt5Widgets.dll
 0002:00000e38       __imp_?minimumSizeHint@QWidget@@UEBA?AVQSize@@XZ 0000000140014e38     Qt5Widgets:Qt5Widgets.dll
 0002:00000e40       __imp_?minimumSize@QGridLayout@@UEBA?AVQSize@@XZ 0000000140014e40     Qt5Widgets:Qt5Widgets.dll
 0002:00000e48       __imp_?minimumHeightForWidth@QGridLayout@@UEBAHH@Z 0000000140014e48     Qt5Widgets:Qt5Widgets.dll
 0002:00000e50       __imp_?metric@QWidget@@MEBAHW4PaintDeviceMetric@QPaintDevice@@@Z 0000000140014e50     Qt5Widgets:Qt5Widgets.dll
 0002:00000e58       __imp_?metaObject@QWidget@@UEBAPEBUQMetaObject@@XZ 0000000140014e58     Qt5Widgets:Qt5Widgets.dll
 0002:00000e60       __imp_?metaObject@QGridLayout@@UEBAPEBUQMetaObject@@XZ 0000000140014e60     Qt5Widgets:Qt5Widgets.dll
 0002:00000e68       __imp_?metaObject@QFrame@@UEBAPEBUQMetaObject@@XZ 0000000140014e68     Qt5Widgets:Qt5Widgets.dll
 0002:00000e70       __imp_?maximumSize@QGridLayout@@UEBA?AVQSize@@XZ 0000000140014e70     Qt5Widgets:Qt5Widgets.dll
 0002:00000e78       __imp_?leaveEvent@QWidget@@MEAAXPEAVQEvent@@@Z 0000000140014e78     Qt5Widgets:Qt5Widgets.dll
 0002:00000e80       __imp_?layout@QLayout@@UEAAPEAV1@XZ 0000000140014e80     Qt5Widgets:Qt5Widgets.dll
 0002:00000e88       __imp_?keyReleaseEvent@QWidget@@MEAAXPEAVQKeyEvent@@@Z 0000000140014e88     Qt5Widgets:Qt5Widgets.dll
 0002:00000e90       __imp_?keyPressEvent@QWidget@@MEAAXPEAVQKeyEvent@@@Z 0000000140014e90     Qt5Widgets:Qt5Widgets.dll
 0002:00000e98       __imp_?itemAt@QGridLayout@@UEBAPEAVQLayoutItem@@H@Z 0000000140014e98     Qt5Widgets:Qt5Widgets.dll
 0002:00000ea0       __imp_?isEmpty@QLayout@@UEBA_NXZ 0000000140014ea0     Qt5Widgets:Qt5Widgets.dll
 0002:00000ea8       __imp_?invalidate@QGridLayout@@UEAAXXZ 0000000140014ea8     Qt5Widgets:Qt5Widgets.dll
 0002:00000eb0       __imp_?inputMethodQuery@QWidget@@UEBA?AVQVariant@@W4InputMethodQuery@Qt@@@Z 0000000140014eb0     Qt5Widgets:Qt5Widgets.dll
 0002:00000eb8       __imp_?inputMethodEvent@QWidget@@MEAAXPEAVQInputMethodEvent@@@Z 0000000140014eb8     Qt5Widgets:Qt5Widgets.dll
 0002:00000ec0       __imp_?initPainter@QWidget@@MEBAXPEAVQPainter@@@Z 0000000140014ec0     Qt5Widgets:Qt5Widgets.dll
 0002:00000ec8       __imp_?indexOf@QLayout@@UEBAHPEAVQWidget@@@Z 0000000140014ec8     Qt5Widgets:Qt5Widgets.dll
 0002:00000ed0       __imp_?hideEvent@QWidget@@MEAAXPEAVQHideEvent@@@Z 0000000140014ed0     Qt5Widgets:Qt5Widgets.dll
 0002:00000ed8       __imp_?heightForWidth@QWidget@@UEBAHH@Z 0000000140014ed8     Qt5Widgets:Qt5Widgets.dll
 0002:00000ee0       __imp_?heightForWidth@QGridLayout@@UEBAHH@Z 0000000140014ee0     Qt5Widgets:Qt5Widgets.dll
 0002:00000ee8       __imp_?hasHeightForWidth@QWidget@@UEBA_NXZ 0000000140014ee8     Qt5Widgets:Qt5Widgets.dll
 0002:00000ef0       __imp_?hasHeightForWidth@QGridLayout@@UEBA_NXZ 0000000140014ef0     Qt5Widgets:Qt5Widgets.dll
 0002:00000ef8       __imp_?geometry@QLayout@@UEBA?AVQRect@@XZ 0000000140014ef8     Qt5Widgets:Qt5Widgets.dll
 0002:00000f00       __imp_?focusOutEvent@QWidget@@MEAAXPEAVQFocusEvent@@@Z 0000000140014f00     Qt5Widgets:Qt5Widgets.dll
 0002:00000f08       __imp_?focusNextPrevChild@QWidget@@MEAA_N_N@Z 0000000140014f08     Qt5Widgets:Qt5Widgets.dll
 0002:00000f10       __imp_?focusInEvent@QWidget@@MEAAXPEAVQFocusEvent@@@Z 0000000140014f10     Qt5Widgets:Qt5Widgets.dll
 0002:00000f18       __imp_?expandingDirections@QGridLayout@@UEBA?AV?$QFlags@W4Orientation@Qt@@@@XZ 0000000140014f18     Qt5Widgets:Qt5Widgets.dll
 0002:00000f20       __imp_?event@QWidget@@MEAA_NPEAVQEvent@@@Z 0000000140014f20     Qt5Widgets:Qt5Widgets.dll
 0002:00000f28       __imp_?event@QMainWindow@@MEAA_NPEAVQEvent@@@Z 0000000140014f28     Qt5Widgets:Qt5Widgets.dll
 0002:00000f30       __imp_?event@QFrame@@MEAA_NPEAVQEvent@@@Z 0000000140014f30     Qt5Widgets:Qt5Widgets.dll
 0002:00000f38       __imp_?enterEvent@QWidget@@MEAAXPEAVQEvent@@@Z 0000000140014f38     Qt5Widgets:Qt5Widgets.dll
 0002:00000f40       __imp_?dropEvent@QWidget@@MEAAXPEAVQDropEvent@@@Z 0000000140014f40     Qt5Widgets:Qt5Widgets.dll
 0002:00000f48       __imp_?dragMoveEvent@QWidget@@MEAAXPEAVQDragMoveEvent@@@Z 0000000140014f48     Qt5Widgets:Qt5Widgets.dll
 0002:00000f50       __imp_?dragLeaveEvent@QWidget@@MEAAXPEAVQDragLeaveEvent@@@Z 0000000140014f50     Qt5Widgets:Qt5Widgets.dll
 0002:00000f58       __imp_?dragEnterEvent@QWidget@@MEAAXPEAVQDragEnterEvent@@@Z 0000000140014f58     Qt5Widgets:Qt5Widgets.dll
 0002:00000f60       __imp_?devType@QWidget@@UEBAHXZ 0000000140014f60     Qt5Widgets:Qt5Widgets.dll
 0002:00000f68       __imp_?createPopupMenu@QMainWindow@@UEAAPEAVQMenu@@XZ 0000000140014f68     Qt5Widgets:Qt5Widgets.dll
 0002:00000f70       __imp_?count@QGridLayout@@UEBAHXZ 0000000140014f70     Qt5Widgets:Qt5Widgets.dll
 0002:00000f78       __imp_?controlTypes@QLayout@@UEBA?AV?$QFlags@W4ControlType@QSizePolicy@@@@XZ 0000000140014f78     Qt5Widgets:Qt5Widgets.dll
 0002:00000f80       __imp_?contextMenuEvent@QWidget@@MEAAXPEAVQContextMenuEvent@@@Z 0000000140014f80     Qt5Widgets:Qt5Widgets.dll
 0002:00000f88       __imp_?contextMenuEvent@QMainWindow@@MEAAXPEAVQContextMenuEvent@@@Z 0000000140014f88     Qt5Widgets:Qt5Widgets.dll
 0002:00000f90       __imp_?childEvent@QLayout@@MEAAXPEAVQChildEvent@@@Z 0000000140014f90     Qt5Widgets:Qt5Widgets.dll
 0002:00000f98       __imp_?changeEvent@QWidget@@MEAAXPEAVQEvent@@@Z 0000000140014f98     Qt5Widgets:Qt5Widgets.dll
 0002:00000fa0       __imp_?changeEvent@QFrame@@MEAAXPEAVQEvent@@@Z 0000000140014fa0     Qt5Widgets:Qt5Widgets.dll
 0002:00000fa8       __imp_?addItem@QGridLayout@@MEAAXPEAVQLayoutItem@@@Z 0000000140014fa8     Qt5Widgets:Qt5Widgets.dll
 0002:00000fb0       __imp_?actionEvent@QWidget@@MEAAXPEAVQActionEvent@@@Z 0000000140014fb0     Qt5Widgets:Qt5Widgets.dll
 0002:00000fb8       __imp_?setCentralWidget@QMainWindow@@QEAAXPEAVQWidget@@@Z 0000000140014fb8     Qt5Widgets:Qt5Widgets.dll
 0002:00000fc0       __imp_??1QMainWindow@@UEAA@XZ 0000000140014fc0     Qt5Widgets:Qt5Widgets.dll
 0002:00000fc8       __imp_??0QMainWindow@@QEAA@PEAVQWidget@@V?$QFlags@W4WindowType@Qt@@@@@Z 0000000140014fc8     Qt5Widgets:Qt5Widgets.dll
 0002:00000fd0       __imp_?availableGeometry@QDesktopWidget@@QEBA?BVQRect@@H@Z 0000000140014fd0     Qt5Widgets:Qt5Widgets.dll
 0002:00000fd8       __imp_?screenNumber@QDesktopWidget@@QEBAHAEBVQPoint@@@Z 0000000140014fd8     Qt5Widgets:Qt5Widgets.dll
 0002:00000fe0       __imp_?addWidget@QGridLayout@@QEAAXPEAVQWidget@@HHHHV?$QFlags@W4AlignmentFlag@Qt@@@@@Z 0000000140014fe0     Qt5Widgets:Qt5Widgets.dll
 0002:00000fe8       __imp_?setSpacing@QGridLayout@@QEAAXH@Z 0000000140014fe8     Qt5Widgets:Qt5Widgets.dll
 0002:00000ff0       __imp_?setVerticalSpacing@QGridLayout@@QEAAXH@Z 0000000140014ff0     Qt5Widgets:Qt5Widgets.dll
 0002:00000ff8       __imp_??1QGridLayout@@UEAA@XZ 0000000140014ff8     Qt5Widgets:Qt5Widgets.dll
 0002:00001000       __imp_??0QGridLayout@@QEAA@PEAVQWidget@@@Z 0000000140015000     Qt5Widgets:Qt5Widgets.dll
 0002:00001008       __imp_?setContentsMargins@QLayout@@QEAAXHHHH@Z 0000000140015008     Qt5Widgets:Qt5Widgets.dll
 0002:00001010       __imp_?desktop@QApplication@@SAPEAVQDesktopWidget@@XZ 0000000140015010     Qt5Widgets:Qt5Widgets.dll
 0002:00001018       __imp_?setFrameShadow@QFrame@@QEAAXW4Shadow@1@@Z 0000000140015018     Qt5Widgets:Qt5Widgets.dll
 0002:00001020       __imp_?setFrameShape@QFrame@@QEAAXW4Shape@1@@Z 0000000140015020     Qt5Widgets:Qt5Widgets.dll
 0002:00001028       __imp_??1QFrame@@UEAA@XZ   0000000140015028     Qt5Widgets:Qt5Widgets.dll
 0002:00001030       __imp_??0QFrame@@QEAA@PEAVQWidget@@V?$QFlags@W4WindowType@Qt@@@@@Z 0000000140015030     Qt5Widgets:Qt5Widgets.dll
 0002:00001038       __imp_?showEvent@QWidget@@MEAAXPEAVQShowEvent@@@Z 0000000140015038     Qt5Widgets:Qt5Widgets.dll
 0002:00001040       __imp_?closeEvent@QWidget@@MEAAXPEAVQCloseEvent@@@Z 0000000140015040     Qt5Widgets:Qt5Widgets.dll
 0002:00001048       __imp_?resizeEvent@QWidget@@MEAAXPEAVQResizeEvent@@@Z 0000000140015048     Qt5Widgets:Qt5Widgets.dll
 0002:00001050       __imp_?update@QWidget@@QEAAXXZ 0000000140015050     Qt5Widgets:Qt5Widgets.dll
 0002:00001058       __imp_??0QSizePolicy@@QEAA@W4Policy@0@0W4ControlType@0@@Z 0000000140015058     Qt5Widgets:Qt5Widgets.dll
 0002:00001060       __imp_?setHeightForWidth@QSizePolicy@@QEAAX_N@Z 0000000140015060     Qt5Widgets:Qt5Widgets.dll
 0002:00001068       __imp_?hasHeightForWidth@QSizePolicy@@QEBA_NXZ 0000000140015068     Qt5Widgets:Qt5Widgets.dll
 0002:00001070       __imp_?setHorizontalStretch@QSizePolicy@@QEAAXH@Z 0000000140015070     Qt5Widgets:Qt5Widgets.dll
 0002:00001078       __imp_?setVerticalStretch@QSizePolicy@@QEAAXH@Z 0000000140015078     Qt5Widgets:Qt5Widgets.dll
 0002:00001080       __imp_??0QWidget@@QEAA@PEAV0@V?$QFlags@W4WindowType@Qt@@@@@Z 0000000140015080     Qt5Widgets:Qt5Widgets.dll
 0002:00001088       __imp_??1QWidget@@UEAA@XZ  0000000140015088     Qt5Widgets:Qt5Widgets.dll
 0002:00001090       __imp_?setMinimumSize@QWidget@@QEAAXAEBVQSize@@@Z 0000000140015090     Qt5Widgets:Qt5Widgets.dll
 0002:00001098       __imp_?setMinimumSize@QWidget@@QEAAXHH@Z 0000000140015098     Qt5Widgets:Qt5Widgets.dll
 0002:000010a0       __imp_?setMaximumSize@QWidget@@QEAAXAEBVQSize@@@Z 00000001400150a0     Qt5Widgets:Qt5Widgets.dll
 0002:000010a8       __imp_?setBaseSize@QWidget@@QEAAXAEBVQSize@@@Z 00000001400150a8     Qt5Widgets:Qt5Widgets.dll
 0002:000010b0       __imp_?setWindowTitle@QWidget@@QEAAXAEBVQString@@@Z 00000001400150b0     Qt5Widgets:Qt5Widgets.dll
 0002:000010b8       __imp_?setStyleSheet@QWidget@@QEAAXAEBVQString@@@Z 00000001400150b8     Qt5Widgets:Qt5Widgets.dll
 0002:000010c0       __imp_?activateWindow@QWidget@@QEAAXXZ 00000001400150c0     Qt5Widgets:Qt5Widgets.dll
 0002:000010c8       __imp_?show@QWidget@@QEAAXXZ 00000001400150c8     Qt5Widgets:Qt5Widgets.dll
 0002:000010d0       __imp_?setAcceptDrops@QWidget@@QEAAX_N@Z 00000001400150d0     Qt5Widgets:Qt5Widgets.dll
 0002:000010d8       __imp_?setSizePolicy@QWidget@@QEAAXVQSizePolicy@@@Z 00000001400150d8     Qt5Widgets:Qt5Widgets.dll
 0002:000010e0       __imp_?sizePolicy@QWidget@@QEBA?AVQSizePolicy@@XZ 00000001400150e0     Qt5Widgets:Qt5Widgets.dll
 0002:000010e8       __imp_?windowState@QWidget@@QEBA?AV?$QFlags@W4WindowState@Qt@@@@XZ 00000001400150e8     Qt5Widgets:Qt5Widgets.dll
 0002:000010f0       __imp_?resize@QWidget@@QEAAXHH@Z 00000001400150f0     Qt5Widgets:Qt5Widgets.dll
 0002:000010f8       __imp_?move@QWidget@@QEAAXAEBVQPoint@@@Z 00000001400150f8     Qt5Widgets:Qt5Widgets.dll
 0002:00001100       __imp_?raise@QWidget@@QEAAXXZ 0000000140015100     Qt5Widgets:Qt5Widgets.dll
 0002:00001108       __imp_?close@QWidget@@QEAA_NXZ 0000000140015108     Qt5Widgets:Qt5Widgets.dll
 0002:00001110       __imp_?showNormal@QWidget@@QEAAXXZ 0000000140015110     Qt5Widgets:Qt5Widgets.dll
 0002:00001118       __imp_?showMaximized@QWidget@@QEAAXXZ 0000000140015118     Qt5Widgets:Qt5Widgets.dll
 0002:00001120       \177Qt5Widgets_NULL_THUNK_DATA 0000000140015120     Qt5Widgets:Qt5Widgets.dll
 0002:00001128       __imp_CommandLineToArgvW   0000000140015128     shell32:SHELL32.dll
 0002:00001130       \177SHELL32_NULL_THUNK_DATA 0000000140015130     shell32:SHELL32.dll
 0002:00001138       __imp_RegisterClassExW     0000000140015138     user32:USER32.dll
 0002:00001140       __imp_CreateWindowExW      0000000140015140     user32:USER32.dll
 0002:00001148       __imp_IsWindow             0000000140015148     user32:USER32.dll
 0002:00001150       __imp_DestroyWindow        0000000140015150     user32:USER32.dll
 0002:00001158       __imp_ShowWindow           0000000140015158     user32:USER32.dll
 0002:00001160       __imp_GetWindowLongPtrW    0000000140015160     user32:USER32.dll
 0002:00001168       __imp_SetWindowLongPtrW    0000000140015168     user32:USER32.dll
 0002:00001170       __imp_DefWindowProcW       0000000140015170     user32:USER32.dll
 0002:00001178       __imp_wsprintfW            0000000140015178     user32:USER32.dll
 0002:00001180       __imp_PostMessageW         0000000140015180     user32:USER32.dll
 0002:00001188       __imp_FindWindowW          0000000140015188     user32:USER32.dll
 0002:00001190       __imp_UnregisterClassW     0000000140015190     user32:USER32.dll
 0002:00001198       __imp_GetDesktopWindow     0000000140015198     user32:USER32.dll
 0002:000011a0       \177USER32_NULL_THUNK_DATA 00000001400151a0     user32:USER32.dll
 0002:000011a8       __imp__CxxThrowException   00000001400151a8     vcruntime:VCRUNTIME140.dll
 0002:000011b0       __imp___RTDynamicCast      00000001400151b0     vcruntime:VCRUNTIME140.dll
 0002:000011b8       __imp_memcpy               00000001400151b8     vcruntime:VCRUNTIME140.dll
 0002:000011c0       __imp_memmove              00000001400151c0     vcruntime:VCRUNTIME140.dll
 0002:000011c8       __imp___C_specific_handler 00000001400151c8     vcruntime:VCRUNTIME140.dll
 0002:000011d0       __imp___std_exception_copy 00000001400151d0     vcruntime:VCRUNTIME140.dll
 0002:000011d8       __imp___std_exception_destroy 00000001400151d8     vcruntime:VCRUNTIME140.dll
 0002:000011e0       __imp_memset               00000001400151e0     vcruntime:VCRUNTIME140.dll
 0002:000011e8       __imp___CxxFrameHandler3   00000001400151e8     vcruntime:VCRUNTIME140.dll
 0002:000011f0       __imp__purecall            00000001400151f0     vcruntime:VCRUNTIME140.dll
 0002:000011f8       __imp___std_terminate      00000001400151f8     vcruntime:VCRUNTIME140.dll
 0002:00001200       \177VCRUNTIME140_NULL_THUNK_DATA 0000000140015200     vcruntime:VCRUNTIME140.dll
 0002:00001208       __imp__set_new_mode        0000000140015208     ucrt:api-ms-win-crt-heap-l1-1-0.dll
 0002:00001210       __imp_malloc               0000000140015210     ucrt:api-ms-win-crt-heap-l1-1-0.dll
 0002:00001218       __imp_free                 0000000140015218     ucrt:api-ms-win-crt-heap-l1-1-0.dll
 0002:00001220       __imp__callnewh            0000000140015220     ucrt:api-ms-win-crt-heap-l1-1-0.dll
 0002:00001228       \177api-ms-win-crt-heap-l1-1-0_NULL_THUNK_DATA 0000000140015228     ucrt:api-ms-win-crt-heap-l1-1-0.dll
 0002:00001230       __imp__configthreadlocale  0000000140015230     ucrt:api-ms-win-crt-locale-l1-1-0.dll
 0002:00001238       \177api-ms-win-crt-locale-l1-1-0_NULL_THUNK_DATA 0000000140015238     ucrt:api-ms-win-crt-locale-l1-1-0.dll
 0002:00001240       __imp___setusermatherr     0000000140015240     ucrt:api-ms-win-crt-math-l1-1-0.dll
 0002:00001248       \177api-ms-win-crt-math-l1-1-0_NULL_THUNK_DATA 0000000140015248     ucrt:api-ms-win-crt-math-l1-1-0.dll
 0002:00001250       __imp__initterm_e          0000000140015250     ucrt:api-ms-win-crt-runtime-l1-1-0.dll
 0002:00001258       __imp_exit                 0000000140015258     ucrt:api-ms-win-crt-runtime-l1-1-0.dll
 0002:00001260       __imp__initialize_narrow_environment 0000000140015260     ucrt:api-ms-win-crt-runtime-l1-1-0.dll
 0002:00001268       __imp__configure_narrow_argv 0000000140015268     ucrt:api-ms-win-crt-runtime-l1-1-0.dll
 0002:00001270       __imp_terminate            0000000140015270     ucrt:api-ms-win-crt-runtime-l1-1-0.dll
 0002:00001278       __imp__exit                0000000140015278     ucrt:api-ms-win-crt-runtime-l1-1-0.dll
 0002:00001280       __imp__initterm            0000000140015280     ucrt:api-ms-win-crt-runtime-l1-1-0.dll
 0002:00001288       __imp__register_thread_local_exe_atexit_callback 0000000140015288     ucrt:api-ms-win-crt-runtime-l1-1-0.dll
 0002:00001290       __imp__invalid_parameter_noinfo_noreturn 0000000140015290     ucrt:api-ms-win-crt-runtime-l1-1-0.dll
 0002:00001298       __imp__c_exit              0000000140015298     ucrt:api-ms-win-crt-runtime-l1-1-0.dll
 0002:000012a0       __imp__get_narrow_winmain_command_line 00000001400152a0     ucrt:api-ms-win-crt-runtime-l1-1-0.dll
 0002:000012a8       __imp__register_onexit_function 00000001400152a8     ucrt:api-ms-win-crt-runtime-l1-1-0.dll
 0002:000012b0       __imp__set_app_type        00000001400152b0     ucrt:api-ms-win-crt-runtime-l1-1-0.dll
 0002:000012b8       __imp__seh_filter_exe      00000001400152b8     ucrt:api-ms-win-crt-runtime-l1-1-0.dll
 0002:000012c0       __imp__cexit               00000001400152c0     ucrt:api-ms-win-crt-runtime-l1-1-0.dll
 0002:000012c8       __imp__crt_atexit          00000001400152c8     ucrt:api-ms-win-crt-runtime-l1-1-0.dll
 0002:000012d0       __imp__initialize_onexit_table 00000001400152d0     ucrt:api-ms-win-crt-runtime-l1-1-0.dll
 0002:000012d8       \177api-ms-win-crt-runtime-l1-1-0_NULL_THUNK_DATA 00000001400152d8     ucrt:api-ms-win-crt-runtime-l1-1-0.dll
 0002:000012e0       __imp__set_fmode           00000001400152e0     ucrt:api-ms-win-crt-stdio-l1-1-0.dll
 0002:000012e8       __imp___p__commode         00000001400152e8     ucrt:api-ms-win-crt-stdio-l1-1-0.dll
 0002:000012f0       __imp___stdio_common_vsprintf 00000001400152f0     ucrt:api-ms-win-crt-stdio-l1-1-0.dll
 0002:000012f8       \177api-ms-win-crt-stdio-l1-1-0_NULL_THUNK_DATA 00000001400152f8     ucrt:api-ms-win-crt-stdio-l1-1-0.dll
 0002:00001300       __guard_check_icall_fptr   0000000140015300     MSVCRT:guard_support.obj
 0002:00001308       __guard_dispatch_icall_fptr 0000000140015308     MSVCRT:guard_support.obj
 0002:00001310       __xc_a                     0000000140015310     MSVCRT:initializers.obj
 0002:000013a8       __xc_z                     00000001400153a8     MSVCRT:initializers.obj
 0002:000013b0       __xi_a                     00000001400153b0     MSVCRT:initializers.obj
 0002:000013d0       __xi_z                     00000001400153d0     MSVCRT:initializers.obj
 0002:000013d8       __xl_a                     00000001400153d8     MSVCRT:tlssup.obj
 0002:000013e0       __xl_z                     00000001400153e0     MSVCRT:tlssup.obj
 0002:000013e8       __xp_a                     00000001400153e8     MSVCRT:initializers.obj
 0002:000013f0       __xp_z                     00000001400153f0     MSVCRT:initializers.obj
 0002:000013f8       __xt_a                     00000001400153f8     MSVCRT:initializers.obj
 0002:00001400       __xt_z                     0000000140015400     MSVCRT:initializers.obj
 0002:00001418       ??_7CAppAssistWnd@@6B@     0000000140015418     AppAssistWnd.obj
 0002:00001810       ??_C@_00CNPNBAHC@@         0000000140015810     AppMainWnd.obj
 0002:00001828       ??_SQWidget@@6BQObject@@@  0000000140015828     AppMainWnd.obj
 0002:00001998       ??_SQWidget@@6BQPaintDevice@@@ 0000000140015998     AppMainWnd.obj
 0002:000019d8       ??_SQFrame@@6BQObject@@@   00000001400159d8     AppMainWnd.obj
 0002:00001b48       ??_SQFrame@@6BQPaintDevice@@@ 0000000140015b48     AppMainWnd.obj
 0002:00001b88       ??_SQGridLayout@@6BQObject@@@ 0000000140015b88     AppMainWnd.obj
 0002:00001c18       ??_SQGridLayout@@6BQLayoutItem@@@ 0000000140015c18     AppMainWnd.obj
 0002:00001c98       ??_C@_0BA@HKBKIPPA@AppMainWndClass@ 0000000140015c98     AppMainWnd.obj
 0002:00001ca8       ??_C@_0L@JGIFKO@wnd_layout@ 0000000140015ca8     AppMainWnd.obj
 0002:00001cb8       ??_C@_0N@BFPPMMOI@gridLayout_4@ 0000000140015cb8     AppMainWnd.obj
 0002:00001cc8       ??_C@_0L@IHJKJLOM@top_layout@ 0000000140015cc8     AppMainWnd.obj
 0002:00001cd8       ??_C@_0N@MOEPNKJ@gridLayout_5@ 0000000140015cd8     AppMainWnd.obj
 0002:00001ce8       ??_C@_04HJPCFDOP@line@     0000000140015ce8     AppMainWnd.obj
 0002:00001cf0       ??_C@_0O@CGHBJHCB@center_layout@ 0000000140015cf0     AppMainWnd.obj
 0002:00001d00       ??_C@_0L@HFKHLBOD@gridLayout@ 0000000140015d00     AppMainWnd.obj
 0002:00001d10       ??_C@_0M@NJDNBCPH@edit_layout@ 0000000140015d10     AppMainWnd.obj
 0002:00001d20       ??_C@_0N@FKLOFKCP@gridLayout_3@ 0000000140015d20     AppMainWnd.obj
 0002:00001d30       ??_C@_0M@NGODGCBF@home_layout@ 0000000140015d30     AppMainWnd.obj
 0002:00001d40       ??_C@_0N@EDKFGLGO@gridLayout_2@ 0000000140015d40     AppMainWnd.obj
 0002:00001d50       ??_C@_0L@GPGLGDA@AppMainWnd@ 0000000140015d50     AppMainWnd.obj
 0002:00001d68       ??_7AppMainWnd@@6BQObject@@@ 0000000140015d68     AppMainWnd.obj
 0002:00001ee0       ??_7AppMainWnd@@6BQPaintDevice@@@ 0000000140015ee0     AppMainWnd.obj
 0002:00001f20       ??_7AppMainWnd@@6B@        0000000140015f20     AppMainWnd.obj
 0002:00001f30       ??_C@_0BN@ONKBLNEB@1OnFileSelected?$CIQStringList?$CJ@ 0000000140015f30     AppMainWnd.obj
 0002:00001f50       ??_C@_0BL@PEGNIDMK@2FileSelected?$CIQStringList?$CJ@ 0000000140015f50     AppMainWnd.obj
 0002:00001f70       ??_C@_0O@OKOFBKJK@text?1uri?9list@ 0000000140015f70     AppMainWnd.obj
 0002:00001f80       ??_C@_0BC@EPJDIFIB@?1ArcConverter?4exe@ 0000000140015f80     AppMainWnd.obj
 0002:00001f98       ??_C@_0BA@JFNIOLAK@string?5too?5long@ 0000000140015f98     AppMainWnd.obj
 0002:00001fa8       ??_C@_0BE@JONHPENG@map?1set?$DMT?$DO?5too?5long@ 0000000140015fa8     AppMainWnd.obj
 0002:00001fc0       __xmm@000000000000000f0000000000000000 0000000140015fc0     AppMainWnd.obj
 0002:00002028       ??_SQPushButton@@6BQObject@@@ 0000000140016028     DlgAbout.obj
 0002:000021b8       ??_SQPushButton@@6BQPaintDevice@@@ 00000001400161b8     DlgAbout.obj
 0002:000021f8       ??_SQScrollArea@@6BQObject@@@ 00000001400161f8     DlgAbout.obj
 0002:00002388       ??_SQScrollArea@@6BQPaintDevice@@@ 0000000140016388     DlgAbout.obj
 0002:000023c8       ??_SQTextBrowser@@6BQObject@@@ 00000001400163c8     DlgAbout.obj
 0002:000025a8       ??_SQTextBrowser@@6BQPaintDevice@@@ 00000001400165a8     DlgAbout.obj
 0002:000025e0       ??_C@_0N@LENKMOJI@Dialog_about@ 00000001400165e0     DlgAbout.obj
 0002:000025f0       ??_C@_08JGCEGMJA@btn_exit@ 00000001400165f0     DlgAbout.obj
 0002:00002600       ??_C@_0L@LLIJDPKF@scrollArea@ 0000000140016600     DlgAbout.obj
 0002:00002610       ??_C@_0BJ@GIOELLGD@scrollAreaWidgetContents@ 0000000140016610     DlgAbout.obj
 0002:00002630       ??_C@_0M@ECLEHGNL@textBrowser@ 0000000140016630     DlgAbout.obj
 0002:0000263c       ??_C@_06EBLJEIEC@Dialog@   000000014001663c     DlgAbout.obj
 0002:00002644       ??_C@_04LBABLPF@Exit@      0000000140016644     DlgAbout.obj
 0002:00002658       ??_7DlgAbout@@6BQObject@@@ 0000000140016658     DlgAbout.obj
 0002:000027f0       ??_7DlgAbout@@6BQPaintDevice@@@ 00000001400167f0     DlgAbout.obj
 0002:00002888       ??_SQVBoxLayout@@6BQObject@@@ 0000000140016888     DlgHelp.obj
 0002:00002918       ??_SQVBoxLayout@@6BQLayoutItem@@@ 0000000140016918     DlgHelp.obj
 0002:000029a8       ??_SQLabel@@6BQObject@@@   00000001400169a8     DlgHelp.obj
 0002:00002b18       ??_SQLabel@@6BQPaintDevice@@@ 0000000140016b18     DlgHelp.obj
 0002:00002b50       ??_C@_0P@KAIKBMEH@Dialog_setting@ 0000000140016b50     DlgHelp.obj
 0002:00002b60       ??_C@_0DO@GJFPEOCD@background?9color?3?5rgb?$CI77?0?577?0?57@ 0000000140016b60     DlgHelp.obj
 0002:00002ba0       ??_C@_0L@LNMPCDBG@gridWidget@ 0000000140016ba0     DlgHelp.obj
 0002:00002bb0       ??_C@_0N@OFNAAJMP@border?3?50px?$DL@ 0000000140016bb0     DlgHelp.obj
 0002:00002bc0       ??_C@_07NPNGPBBI@label_2@  0000000140016bc0     DlgHelp.obj
 0002:00002bc8       ??_C@_0BA@NEEMFJCD@Microsoft?5YaHei@ 0000000140016bc8     DlgHelp.obj
 0002:00002be0       ??_C@_0EG@BBEKP@color?3?5rgb?$CI204?0?5204?0?5204?$CJ?$DL?6bord@ 0000000140016be0     DlgHelp.obj
 0002:00002c28       ??_C@_09ILAOLDMM@btn_close@ 0000000140016c28     DlgHelp.obj
 0002:00002c40       ??_C@_0BAN@PPLBEFJE@QPushButton?$HL?6border?9image?3?5url?$CI@ 0000000140016c40     DlgHelp.obj
 0002:00002d50       ??_C@_0P@CCIAHFDO@verticalWidget@ 0000000140016d50     DlgHelp.obj
 0002:00002d60       ??_C@_0CP@IJMLNGFJ@border?30px?$DL?6background?9color?3?5r@ 0000000140016d60     DlgHelp.obj
 0002:00002d90       ??_C@_0P@OKOIOHML@verticalLayout@ 0000000140016d90     DlgHelp.obj
 0002:00002da0       ??_C@_06KLKLDLLI@widget@   0000000140016da0     DlgHelp.obj
 0002:00002da8       ??_C@_0DN@FPNBGFKJ@background?9color?3?5rgb?$CI66?0?566?0?56@ 0000000140016da8     DlgHelp.obj
 0002:00002de8       ??_C@_06JOOHNKDD@btn_ok@   0000000140016de8     DlgHelp.obj
 0002:00002df0       ??_C@_0BFP@OKKPDPIC@QPushButton?$HL?6?7background?9color?3@ 0000000140016df0     DlgHelp.obj
 0002:00002f50       ??_C@_0N@BLCAKABI@?d?$LN?$LP?g?$JE?$KI?h?$KP?$LE?f?$JI?$IO@ 0000000140016f50     DlgHelp.obj
 0002:00002f60       ??_C@_0ECCI@CAFEJOFL@?$DM?$CBDOCTYPE?5HTML?5PUBLIC?5?$CC?9?1?1W3C?1?1@ 0000000140016f60     DlgHelp.obj
 0002:00007188       ??_C@_02GIPFHKNO@OK@       000000014001b188     DlgHelp.obj
 0002:00007198       ??_7DlgHelp@@6BQObject@@@  000000014001b198     DlgHelp.obj
 0002:00007330       ??_7DlgHelp@@6BQPaintDevice@@@ 000000014001b330     DlgHelp.obj
 0002:00007368       ??_C@_0P@FCNLEOLE@1OnBtnOK?$CIbool?$CJ@ 000000014001b368     DlgHelp.obj
 0002:00007378       ??_C@_0P@PLKFGFEO@2clicked?$CIbool?$CJ@ 000000014001b378     DlgHelp.obj
 0002:00007388       ??_C@_0BC@ELMHHDCL@1OnBtnClose?$CIbool?$CJ@ 000000014001b388     DlgHelp.obj
 0002:00007468       ??_C@_09OIOABJIK@edit_root@ 000000014001b468     ComparePage.obj
 0002:00007478       ??_C@_0O@DFFAIIF@bottom_layout@ 000000014001b478     ComparePage.obj
 0002:00007488       ??_C@_0N@DONCJPCL@gridLayout_7@ 000000014001b488     ComparePage.obj
 0002:00007498       ??_C@_0N@CHMJKOGK@gridLayout_6@ 000000014001b498     ComparePage.obj
 0002:000074a8       ??_C@_04KANOLIK@Form@      000000014001b4a8     ComparePage.obj
 0002:000074b8       ??_7ComparePage@@6B@       000000014001b4b8     ComparePage.obj
 0002:000075b0       ??_7FileBrowser@@6B@       000000014001b5b0     FileBrowser.obj
 0002:00007608       ??_C@_0BJ@DGPPAHKM@Select?5Image?1Video?5Files@ 000000014001b608     FileBrowser.obj
 0002:00007628       ??_C@_0P@EKMMKLOC@All?5files?$CI?$CK?4?$CK?$CJ@ 000000014001b628     FileBrowser.obj
 0002:00007638       ??_C@_08POCJMDAI@listView@ 000000014001b638     FileBrowser.obj
 0002:00007648       ??_C@_08EGEHGNG@treeView@  000000014001b648     FileBrowser.obj
 0002:00007708       ??_SQSpacerItem@@6B@       000000014001b708     HomePage.obj
 0002:00007798       ??_SQHBoxLayout@@6BQObject@@@ 000000014001b798     HomePage.obj
 0002:00007828       ??_SQHBoxLayout@@6BQLayoutItem@@@ 000000014001b828     HomePage.obj
 0002:000078b8       ??_SQRadioButton@@6BQObject@@@ 000000014001b8b8     HomePage.obj
 0002:00007a48       ??_SQRadioButton@@6BQPaintDevice@@@ 000000014001ba48     HomePage.obj
 0002:00007a80       ??_C@_09NKKIJFGH@home_root@ 000000014001ba80     HomePage.obj
 0002:00007a90       ??_C@_0CD@HBKIJNHM@background?9color?3?5rgb?$CI77?0?577?0?57@ 000000014001ba90     HomePage.obj
 0002:00007ab8       ??_C@_0BB@HFKLJEIK@horizontalWidget@ 000000014001bab8     HomePage.obj
 0002:00007ad0       ??_C@_0N@LDNPKGDA@radio_normal@ 000000014001bad0     HomePage.obj
 0002:00007ae0       ??_C@_0BD@MFOGKEOC@Microsoft?5YaHei?5UI@ 000000014001bae0     HomePage.obj
 0002:00007b00       ??_C@_0CII@IJNPNDCD@QRadioButton?5?$HL?6color?3?5rgb?$CI204?0?5@ 000000014001bb00     HomePage.obj
 0002:00007d88       ??_C@_0P@HEBDJEPB@radio_advanced@ 000000014001bd88     HomePage.obj
 0002:00007da0       ??_C@_0CCD@DONMPAKD@QRadioButton?5?$HL?6color?3?5rgb?$CI204?0?5@ 000000014001bda0     HomePage.obj
 0002:00007fc8       ??_C@_0O@NALAKKEH@root_dragarea@ 000000014001bfc8     HomePage.obj
 0002:00007fd8       ??_C@_0DM@EDJMFGNK@background?9color?3?5rgb?$CI64?064?064?$CJ@ 000000014001bfd8     HomePage.obj
 0002:00008018       ??_C@_0N@IAGAOMKK@label_addtip@ 000000014001c018     HomePage.obj
 0002:00008028       ??_C@_0DD@BCNMDNKK@color?3?5rgb?$CI204?0?5204?0?5204?$CJ?$DL?6bord@ 000000014001c028     HomePage.obj
 0002:00008060       ??_C@_09NPFGOIBG@label_add@ 000000014001c060     HomePage.obj
 0002:00008070       ??_C@_0DF@IADPBIIA@border?9image?3?5url?$CI?3?1AppMainWnd?1@ 000000014001c070     HomePage.obj
 0002:000080a8       ??_C@_0BD@MLFEEADD@horizontalLayout_2@ 000000014001c0a8     HomePage.obj
 0002:000080c0       ??_C@_08GMDDMHEB@btn_file@ 000000014001c0c0     HomePage.obj
 0002:000080d0       ??_C@_0BC@MLEFMGBI@horizontalWidget1@ 000000014001c0d0     HomePage.obj
 0002:000080e8       ??_C@_0BB@LNMDAGHP@horizontalLayout@ 000000014001c0e8     HomePage.obj
 0002:00008100       ??_C@_0O@MFMBKJHM@label_fliebtn@ 000000014001c100     HomePage.obj
 0002:00008110       ??_C@_0CG@MJAMJNGA@color?3?5rgb?$CI128?0?5128?0?5128?$CJ?$DL?6font@ 000000014001c110     HomePage.obj
 0002:00008138       ??_C@_08KOGACAIM@btn_help@ 000000014001c138     HomePage.obj
 0002:00008150       ??_C@_0PE@CAOJOMAC@QPushButton?$HL?6border?9image?3?5url?$CI@ 000000014001c150     HomePage.obj
 0002:00008248       ??_C@_0N@PGOOLKJF@?f?$JJ?$KO?i?$IA?$JK?f?$KI?$KB?e?$LM?$IP@ 000000014001c248     HomePage.obj
 0002:00008258       ??_C@_0N@FCENHKDH@?i?$KL?$JI?g?$LK?$KH?f?$KI?$KB?e?$LM?$IP@ 000000014001c258     HomePage.obj
 0002:00008268       ??_C@_0DI@PEDNJGGN@?e?$LA?$IG?e?$JL?$LO?g?$IJ?$IH?1?h?$KH?$IG?i?$KC?$JB?f?$IL?$JG?f?$IL?$LN?e?$II?$LA?h?$JJ?$JK?g?$LK?$LP@ 000000014001c268     HomePage.obj
 0002:000082a0       ??_C@_0BD@IEFOBOFJ@?i?$IA?$IJ?f?$IL?$KJ?e?$KP?$LJ?f?$KP?$JE?f?$JG?$IH?d?$LL?$LG@ 000000014001c2a0     HomePage.obj
 0002:000082b8       ??_C@_0CG@NIIDAPDJ@?f?$JE?$KP?f?$IM?$IB2?94?e?$LM?$KA?e?$JL?$LO?g?$IJ?$IH?1?h?$KH?$IG?i?$KC?$JB?e?$JA?$IM?f?$KN?$KF@ 000000014001c2b8     HomePage.obj
 0002:000082e8       ??_7HomePage@@6B@          000000014001c2e8     HomePage.obj
 0002:000083a8       ??_C@_0BH@BHDLOBED@1OnBtnSelectFile?$CIbool?$CJ@ 000000014001c3a8     HomePage.obj
 0002:000083c0       ??_C@_0BG@PMDGKIOD@1OnVideoModeToggled?$CI?$CJ@ 000000014001c3c0     HomePage.obj
 0002:000083d8       ??_C@_0P@POCECEMJ@2toggled?$CIbool?$CJ@ 000000014001c3d8     HomePage.obj
 0002:000083e8       ??_C@_0BB@BFOEJPPK@1OnBtnHelp?$CIbool?$CJ@ 000000014001c3e8     HomePage.obj
 0002:00008400       ??_C@_0DO@PDJEKJIF@background?9color?3?5rgb?$CI77?0?577?0?57@ 000000014001c400     HomePage.obj
 0002:000085d8       ??_7AISFReferenceInter@ARC_AISF@@6B@ 000000014001c5d8     CompareViewPanel.obj
 0002:000085f8       ??_7AISFReferenceImp@@6B@  000000014001c5f8     CompareViewPanel.obj
 0002:00008610       ??_7IAISFCompareViewCallback@ARC_AISF@@6B@ 000000014001c610     CompareViewPanel.obj
 0002:00008640       ??_C@_0N@BNMJBMEM@compare_root@ 000000014001c640     CompareViewPanel.obj
 0002:00008650       ??_C@_0BE@NNEGGGKK@bottom_layout_cover@ 000000014001c650     CompareViewPanel.obj
 0002:00008668       ??_C@_07LMEJMGBI@btn_pre@  000000014001c668     CompareViewPanel.obj
 0002:00008670       ??_C@_0CCL@KLNNHMOG@?6?5?5?5?5?5?5?5?5?5?5?5?5?5?5?5?5?5QPushButton?$HL?6@ 000000014001c670     CompareViewPanel.obj
 0002:000088a0       ??_C@_08FOGDBLIE@btn_next@ 000000014001c8a0     CompareViewPanel.obj
 0002:000088b0       ??_C@_0CCL@LHDDEIFP@?6?5?5?5?5?5?5?5?5?5?5?5?5?5?5?5?5?5QPushButton?$HL?6@ 000000014001c8b0     CompareViewPanel.obj
 0002:00008ae0       ??_C@_0BA@KJDPEPAL@?d?$LI?$IK?d?$LI?$IA?d?$LI?$KK?f?$JG?$IH?d?$LL?$LG@ 000000014001cae0     CompareViewPanel.obj
 0002:00008af0       ??_C@_0BA@DEDAKOHN@?d?$LI?$IL?d?$LI?$IA?d?$LI?$KK?f?$JG?$IH?d?$LL?$LG@ 000000014001caf0     CompareViewPanel.obj
 0002:00008b00       ??_C@_09DKPFEIGH@draw_root@ 000000014001cb00     CompareViewPanel.obj
 0002:00008b18       ??_7MyCompareViewCallback@@6BIAISFCompareViewCallback@ARC_AISF@@@ 000000014001cb18     CompareViewPanel.obj
 0002:00008b50       ??_7MyCompareViewCallback@@6BAISFReferenceImp@@@ 000000014001cb50     CompareViewPanel.obj
 0002:00008b68       ??_7?$MyAutoPtr@VAISFCompareView@ARC_AISF@@@@6B@ 000000014001cb68     CompareViewPanel.obj
 0002:00008b78       ??_7CompareViewPanel@@6B@  000000014001cb78     CompareViewPanel.obj
 0002:00008c38       ??_C@_0BI@MCPDCCCA@1OnBtnPre_clicked?$CIbool?$CJ@ 000000014001cc38     CompareViewPanel.obj
 0002:00008c50       ??_C@_0BJ@KCMPHBME@1OnBtnNext_clicked?$CIbool?$CJ@ 000000014001cc50     CompareViewPanel.obj
 0002:00008c6c       ??_C@_05GFOLEBJA@?$CFs?1?$CFs@ 000000014001cc6c     CompareViewPanel.obj
 0002:00008c78       ??_C@_0BD@BGHBFKGB@1OnAddRectEnd?$CIint?$CJ@ 000000014001cc78     CompareViewPanel.obj
 0002:00008c90       ??_C@_0BB@HEEPOPCF@2AddRectEnd?$CIint?$CJ@ 000000014001cc90     CompareViewPanel.obj
 0002:00008de8       ??_C@_01KMDKNFGN@?1@       000000014001cde8     IniSetting.obj
 0002:00008df0       ??_C@_0BA@BJNEGFNM@?1userconfig?4txt@ 000000014001cdf0     IniSetting.obj
 0002:00008e00       ??_C@_0BM@ILEMHKFN@?1arccompareview_setting?4txt@ 000000014001ce00     IniSetting.obj
 0002:00008e20       ??_C@_0BK@DCJILLNL@?1arcconverter_setting?4txt@ 000000014001ce20     IniSetting.obj
 0002:00008e3c       ??_C@_04ODLBFFJE@User@     000000014001ce3c     IniSetting.obj
 0002:00008e48       ??_C@_0O@LKKKLIFD@LastInputPath@ 000000014001ce48     IniSetting.obj
 0002:00008e58       ??_C@_0P@BPHLEFPE@LastFilterType@ 000000014001ce58     IniSetting.obj
 0002:00008e68       ??_C@_08MGBGGDON@settings@ 000000014001ce68     IniSetting.obj
 0002:00008e74       ??_C@_01PKGAHCOL@?$CJ@     000000014001ce74     IniSetting.obj
 0002:00008e78       ??_C@_0M@BIKKABLP@imagefilter@ 000000014001ce78     IniSetting.obj
 0002:00008e88       ??_C@_08JDJLFHGB@Images?$CI?5@ 000000014001ce88     IniSetting.obj
 0002:00008e98       ??_C@_0M@IPOAPPLK@videofilter@ 000000014001ce98     IniSetting.obj
 0002:00008ea8       ??_C@_07BFJCLCDP@Video?$CI?5@ 000000014001cea8     IniSetting.obj
 0002:00008eb0       ??_C@_0L@DICCCMGH@ArcSoftApp@ 000000014001ceb0     IniSetting.obj
 0002:00008ec0       ??_C@_07JMMLMDIC@appname@  000000014001cec0     IniSetting.obj
 0002:00008ec8       ??_C@_0O@CEPKCMBH@ShowDrawPanel@ 000000014001cec8     IniSetting.obj
 0002:00008ee0       ??_C@_0OA@FHGIHCBI@QPushButton?$HLborder?9image?3?5url?$CI?3@ 000000014001cee0     MainToolbarPanel.obj
 0002:00008fc0       ??_C@_0OA@OKFECACJ@QPushButton?$HLborder?9image?3?5url?$CI?3@ 000000014001cfc0     MainToolbarPanel.obj
 0002:00009128       ??_SQCheckBox@@6BQObject@@@ 000000014001d128     MainToolbarPanel.obj
 0002:000092b8       ??_SQCheckBox@@6BQPaintDevice@@@ 000000014001d2b8     MainToolbarPanel.obj
 0002:000092f0       ??_C@_0BB@JLGABLDE@maintoolbar_root@ 000000014001d2f0     MainToolbarPanel.obj
 0002:00009308       ??_C@_0N@NIIDMMCE@toolbar_root@ 000000014001d308     MainToolbarPanel.obj
 0002:00009318       ??_C@_0L@KFPGMPPL@label_note@ 000000014001d318     MainToolbarPanel.obj
 0002:00009328       ??_C@_0CF@CBFFNOHH@color?3?5rgb?$CI19?0?5166?0?5232?$CJ?$DL?6font?3@ 000000014001d328     MainToolbarPanel.obj
 0002:00009350       ??_C@_0N@BFHAMMHM@convert_root@ 000000014001d350     MainToolbarPanel.obj
 0002:00009360       ??_C@_0M@BLFFLHPO@btn_convert@ 000000014001d360     MainToolbarPanel.obj
 0002:00009370       ??_C@_0BKA@GEKNBDDE@?6?5?5?5?5?5?5?5?5?5?5?5?5?5?5?5?5?5QPushButton?$HL?6@ 000000014001d370     MainToolbarPanel.obj
 0002:00009510       ??_C@_0BB@HNKMABMI@btn_batchconvert@ 000000014001d510     MainToolbarPanel.obj
 0002:00009530       ??_C@_0BJK@NGOIAEII@?6?5?5?5?5?5?5?5?5?5?5?5?5?5?5?5?5?5QPushButton?$HL?6@ 000000014001d530     MainToolbarPanel.obj
 0002:000096cc       ??_C@_05IDCCNNGI@label@    000000014001d6cc     MainToolbarPanel.obj
 0002:000096d8       ??_C@_0DA@JGKLLKHJ@image?3?5url?$CI?3?1AppMainWnd?1images?1@ 000000014001d6d8     MainToolbarPanel.obj
 0002:00009708       ??_C@_09ILKIFGMD@chk_fitin@ 000000014001d708     MainToolbarPanel.obj
 0002:00009720       ??_C@_0BBL@PIIBJCIN@QCheckBox?$HL?6color?3?5rgb?$CI242?0?5242?0@ 000000014001d720     MainToolbarPanel.obj
 0002:00009840       ??_C@_0N@ICNBFIJG@chk_fileInfo@ 000000014001d840     MainToolbarPanel.obj
 0002:00009850       ??_C@_07KIHDALPM@btn_cut@  000000014001d850     MainToolbarPanel.obj
 0002:00009860       ??_C@_0BLB@DMKKKFDI@?6QPushButton?6?$HL?7?6?7font?3?514pt?5?$CCMi@ 000000014001d860     MainToolbarPanel.obj
 0002:00009a18       ??_C@_0N@BCDOPEC@?e?$LO?$KO?h?$LN?$KP?i?$JL?$IF?i?$LL?$JB@ 000000014001da18     MainToolbarPanel.obj
 0002:00009a30       ??_C@_0HA@MKANPNEA@QPushButton?$HL?6color?3?5rgb?$CI242?0?524@ 000000014001da30     MainToolbarPanel.obj
 0002:00009aa0       ??_C@_0DJ@CIHECJEG@?f?$IP?$JA?g?$KE?$LK?o?$LM?$JKCtrl?$CL?g?$JF?$IM?i?$JN?$KC?f?$IM?$IJ?i?$JC?$KO?e?$IP?$KP?e?$KP@ 000000014001daa0     MainToolbarPanel.obj
 0002:00009ae0       ??_C@_0N@IDBEHBGP@?f?$KA?$LM?e?$LM?$IP?h?$LN?$KM?f?$IN?$KC@ 000000014001dae0     MainToolbarPanel.obj
 0002:00009af0       ??_C@_0BG@KNGPJEBL@?f?$IJ?$LJ?e?$KE?$IE?g?$JA?$IG?f?$KA?$LM?e?$LM?$IP?h?$LN?$KM?f?$IN?$KC@ 000000014001daf0     MainToolbarPanel.obj
 0002:00009b08       ??_C@_0N@PEMCEOHA@?h?$IH?$KK?e?$IK?$KI?i?$IA?$IC?e?$JA?$II@ 000000014001db08     MainToolbarPanel.obj
 0002:00009b18       ??_C@_0N@KMCGOIJF@?f?$JG?$IH?d?$LL?$LG?d?$LP?$KB?f?$IB?$KP@ 000000014001db18     MainToolbarPanel.obj
 0002:00009b28       ??_C@_0BO@EKFDFPI@Result?5image?5for?5saved?5params@ 000000014001db28     MainToolbarPanel.obj
 0002:00009b48       ??_C@_03EOHDMBHJ@Cut@      000000014001db48     MainToolbarPanel.obj
 0002:00009b4c       ??_C@_06EAAMJNDC@?i?$IA?$IA?e?$IH?$LK@ 000000014001db4c     MainToolbarPanel.obj
 0002:00009b58       ??_C@_07EBDEPPHD@?5?i?$IA?$IA?e?$IH?$LK@ 000000014001db58     MainToolbarPanel.obj
 0002:00009b68       ??_7MainToolbarPanel@@6B@  000000014001db68     MainToolbarPanel.obj
 0002:00009c28       ??_C@_0CG@BCGIFDML@?3?1AppMainWnd?1images?1icon_sign?5o@ 000000014001dc28     MainToolbarPanel.obj
 0002:00009c50       ??_C@_04MOKELPN@?M?K?$LD?v@ 000000014001dc50     MainToolbarPanel.obj
 0002:00009c60       ??_C@_0BGG@BOJKBKL@QPushButton?$HLborder?31px?5solid?5rg@ 000000014001dc60     MainToolbarPanel.obj
 0002:00009dc8       ??_C@_0BL@IAIMLDEK@1OnCutScreen_clicked?$CIbool?$CJ@ 000000014001ddc8     MainToolbarPanel.obj
 0002:00009de8       ??_C@_0BG@PFHJBMFJ@1OnHome_clicked?$CIbool?$CJ@ 000000014001dde8     MainToolbarPanel.obj
 0002:00009e00       ??_C@_0BC@HDJLEBMG@1OnChkFitIn?$CIbool?$CJ@ 000000014001de00     MainToolbarPanel.obj
 0002:00009e18       ??_C@_0BJ@CIJLMMJO@1OnChkShowFileInfo?$CIbool?$CJ@ 000000014001de18     MainToolbarPanel.obj
 0002:00009e38       ??_C@_0BJ@KOKEADLP@1OnConvert_clicked?$CIbool?$CJ@ 000000014001de38     MainToolbarPanel.obj
 0002:00009e58       ??_C@_0BO@NEGOHHK@1OnBatchConvert_clicked?$CIbool?$CJ@ 000000014001de58     MainToolbarPanel.obj
 0002:00009e80       ??_C@_0BJH@NJNIKHOB@QMenu?$HL?7?7?7?7?7?5?5border?3?50px?5solid?5@ 000000014001de80     MenuManager.obj
 0002:0000a020       ??_7MyPanelBase@@6B@       000000014001e020     MyPanelBase.obj
 0002:0000a0e0       ??_C@_0BO@CGHJPDJA@1OnPanelResize?$CIQResizeEvent?$CK?$CJ@ 000000014001e0e0     MyPanelBase.obj
 0002:0000a100       ??_C@_0BJ@JJNHKDOM@2onResize?$CIQResizeEvent?$CK?$CJ@ 000000014001e100     MyPanelBase.obj
 0002:0000a120       ??_C@_0CB@DMOMOINM@1OnPanelMousePress?$CIQMouseEvent?$CK@ 000000014001e120     MyPanelBase.obj
 0002:0000a148       ??_C@_0CB@KKEMGMNO@2onMousePressEvent?$CIQMouseEvent?$CK@ 000000014001e148     MyPanelBase.obj
 0002:0000a170       ??_C@_0CA@BFBIMAEO@1OnPanelMouseMove?$CIQMouseEvent?$CK?$CJ@ 000000014001e170     MyPanelBase.obj
 0002:0000a190       ??_C@_0CA@FGGMJEDI@2onMouseMoveEvent?$CIQMouseEvent?$CK?$CJ@ 000000014001e190     MyPanelBase.obj
 0002:0000a1b0       ??_C@_0CD@JDGBKCIJ@1OnPanelMouseRelease?$CIQMouseEven@ 000000014001e1b0     MyPanelBase.obj
 0002:0000a1d8       ??_C@_0CD@PABCNAGN@2onMouseReleaseEvent?$CIQMouseEven@ 000000014001e1d8     MyPanelBase.obj
 0002:0000a200       ??_C@_0CH@JEFCHDIL@1OnPanelMouseDoubleClick?$CIQMouse@ 000000014001e200     MyPanelBase.obj
 0002:0000a228       ??_C@_0CH@BOCPIGDC@2onMouseDoubleClickEvent?$CIQMouse@ 000000014001e228     MyPanelBase.obj
 0002:0000a250       ??_C@_0CG@HHDILKIG@1OnPanelMouseWheelEvent?$CIQWheelE@ 000000014001e250     MyPanelBase.obj
 0002:0000a278       ??_C@_0CB@BOJDDILF@2onMouseWheelEvent?$CIQWheelEvent?$CK@ 000000014001e278     MyPanelBase.obj
 0002:0000a2d0       ??_7MyWidget@@6BQObject@@@ 000000014001e2d0     MyWidget.obj
 0002:0000a440       ??_7MyWidget@@6BQPaintDevice@@@ 000000014001e440     MyWidget.obj
 0002:0000a4f8       ??_7MyDrawWidget@@6BQObject@@@ 000000014001e4f8     MyDrawWidget.obj
 0002:0000a668       ??_7MyDrawWidget@@6BQPaintDevice@@@ 000000014001e668     MyDrawWidget.obj
 0002:0000a6a0       __real@4010000000000000    000000014001e6a0     MyDrawWidget.obj
 0002:0000a778       ??_C@_0O@BONJANKC@titlebar_root@ 000000014001e778     TitleBar.obj
 0002:0000a788       ??_C@_0L@FGNOCADH@label_name@ 000000014001e788     TitleBar.obj
 0002:0000a798       ??_C@_0CG@GHPJPDG@color?3?5rgb?$CI242?0?5242?0?5242?$CJ?$DL?6font@ 000000014001e798     TitleBar.obj
 0002:0000a7c0       ??_C@_07ONLNNMAA@btn_min@  000000014001e7c0     TitleBar.obj
 0002:0000a7d0       ??_C@_0PK@HBPCDAGI@QPushButton?$HL?6border?9image?3?5url?$CI@ 000000014001e7d0     TitleBar.obj
 0002:0000a8d0       ??_C@_07PPDGDIGP@btn_max@  000000014001e8d0     TitleBar.obj
 0002:0000a8e0       ??_C@_0BCG@FFFACMGI@?5QPushButton?$HLborder?9image?3?5url?$CI@ 000000014001e8e0     TitleBar.obj
 0002:0000aa10       ??_C@_0BCB@GBLMFNIC@QPushButton?$HL?6border?9image?3?5url?$CI@ 000000014001ea10     TitleBar.obj
 0002:0000ab38       ??_C@_0BG@OEPAIMB@?e?$JL?$LO?e?$ID?$IP?h?$KH?$IG?i?$KC?$JB?f?$JP?$KF?g?$JM?$IL?e?$JJ?$KI@ 000000014001eb38     TitleBar.obj
 0002:0000ab50       ??_C@_09PGCBNLL@?f?$JM?$IA?e?$LA?$IP?e?$IM?$JG@ 000000014001eb50     TitleBar.obj
 0002:0000ab60       ??_C@_09GGJEDJPD@?f?$JM?$IA?e?$KE?$KH?e?$IM?$JG@ 000000014001eb60     TitleBar.obj
 0002:0000ab6c       ??_C@_06GCJDDMPN@?e?$IF?$LD?i?$JH?$KN@ 000000014001eb6c     TitleBar.obj
 0002:0000ab80       ??_7TitleBar@@6B@          000000014001eb80     TitleBar.obj
 0002:0000ac40       ??_C@_0BH@JDLPEIJO@1OnMaxWndClicked?$CIbool?$CJ@ 000000014001ec40     TitleBar.obj
 0002:0000ac58       ??_C@_0BK@JNMCAIPJ@2MaxWndClickedEvent?$CIbool?$CJ@ 000000014001ec58     TitleBar.obj
 0002:0000ac78       ??_C@_0BG@LCEODJLF@1OnCloseClicked?$CIbool?$CJ@ 000000014001ec78     TitleBar.obj
 0002:0000ac90       ??_C@_0BH@LKMBLFIG@1OnMinWndClicked?$CIbool?$CJ@ 000000014001ec90     TitleBar.obj
 0002:0000acf8       ??_C@_1BI@NGHAHEIK@?$AAD?$AAb?$AAg?$AAH?$AAe?$AAl?$AAp?$AA?4?$AAd?$AAl?$AAl@ 000000014001ecf8     main.obj
 0002:0000ad10       ??_C@_0BC@MNIKNFKD@MiniDumpWriteDump@ 000000014001ed10     main.obj
 0002:0000ad28       ??_C@_1BE@CFAKGCCN@?$AAC?$AAr?$AAa?$AAs?$AAh?$AAD?$AAu?$AAm?$AAp@ 000000014001ed28     main.obj
 0002:0000ad40       ??_C@_1EC@CLCMLPEP@?$AA?$CF?$AAs?$AA?9?$AA?$CF?$AA0?$AA4?$AAd?$AA?$CF?$AA0?$AA2?$AAd?$AA?$CF?$AA0?$AA2?$AAd@ 000000014001ed40     main.obj
 0002:0000ad88       ??_C@_1CI@IJKEMMG@?$AAA?$AAr?$AAc?$AAC?$AAo?$AAm?$AAp?$AAa?$AAr?$AAe?$AAV?$AAi?$AAe?$AAw?$AA_@ 000000014001ed88     main.obj
 0002:0000adb0       ??_C@_01LFCBOECM@?4@       000000014001edb0     main.obj
 0002:0000adb8       ??_C@_0BN@LOKEFIJG@?3?1AppMainWnd?1images?1icon?4ico@ 000000014001edb8     main.obj
 0002:00021a10       ?staticMetaObject@MainToolbarPanel@@2UQMetaObject@@B 0000000140035a10     moc_MainToolbarPanel.obj
 0002:00022090       ?staticMetaObject@CompareViewPanel@@2UQMetaObject@@B 0000000140036090     moc_CompareViewPanel.obj
 0002:00022d80       ?staticMetaObject@ComparePage@@2UQMetaObject@@B 0000000140036d80     moc_ComparePage.obj
 0002:00022e20       ?staticMetaObject@HomePage@@2UQMetaObject@@B 0000000140036e20     moc_HomePage.obj
 0002:00022fc0       ?staticMetaObject@TitleBar@@2UQMetaObject@@B 0000000140036fc0     moc_TitleBar.obj
 0002:00023280       ?qUiItemRoles@QFormInternal@@3QBUQUiItemRolePair@@B 0000000140037280     Qt5UiTools:quiloader.obj
 0002:000232e8       ??_C@_0M@MAJGLKEB@buttonGroup?$AA@ 00000001400372e8     Qt5UiTools:abstractformbuilder.obj
 0002:00023408       ??_7type_info@@6B@         0000000140037408     MSVCRT:std_type_info_static.obj
 0002:00023440       ??_C@_1EC@JIJBPKFM@?$AAa?$AAp?$AAi?$AA?9?$AAm?$AAs?$AA?9?$AAw?$AAi?$AAn?$AA?9?$AAc?$AAo?$AAr?$AAe@ 0000000140037440     MSVCRT:thread_safe_statics.obj
 0002:00023488       ??_C@_1BK@MGMFAEKH@?$AAk?$AAe?$AAr?$AAn?$AAe?$AAl?$AA3?$AA2?$AA?4?$AAd?$AAl?$AAl@ 0000000140037488     MSVCRT:thread_safe_statics.obj
 0002:000234a8       ??_C@_0BM@HLJJNPAH@InitializeConditionVariable@ 00000001400374a8     MSVCRT:thread_safe_statics.obj
 0002:000234c8       ??_C@_0BJ@JEBJOJFJ@SleepConditionVariableCS@ 00000001400374c8     MSVCRT:thread_safe_statics.obj
 0002:000234e8       ??_C@_0BJ@PGPPEPCC@WakeAllConditionVariable@ 00000001400374e8     MSVCRT:thread_safe_statics.obj
 0002:00023510       ??_7exception@std@@6B@     0000000140037510     MSVCRT:throw_bad_alloc.obj
 0002:00023520       ??_C@_0BC@EOODALEL@Unknown?5exception@ 0000000140037520     MSVCRT:throw_bad_alloc.obj
 0002:00023540       ??_7bad_alloc@std@@6B@     0000000140037540     MSVCRT:throw_bad_alloc.obj
 0002:00023550       ??_C@_0P@GHFPNOJB@bad?5allocation@ 0000000140037550     MSVCRT:throw_bad_alloc.obj
 0002:00023568       ??_7bad_array_new_length@std@@6B@ 0000000140037568     MSVCRT:throw_bad_alloc.obj
 0002:00023578       ??_C@_0BF@KINCDENJ@bad?5array?5new?5length@ 0000000140037578     MSVCRT:throw_bad_alloc.obj
 0002:000235c0       _load_config_used          00000001400375c0     MSVCRT:loadcfg.obj
 0002:000236c0       _tls_used                  00000001400376c0     MSVCRT:tlssup.obj
 0002:000236f0       ??_R1A@?0A@EA@QObject@@8   00000001400376f0     MyVideoSurface.obj
 0002:00023718       ??_R3QObject@@8            0000000140037718     MyVideoSurface.obj
 0002:00023730       ??_R2QObject@@8            0000000140037730     MyVideoSurface.obj
 0002:00023740       ??_R4CAppAssistWnd@@6B@    0000000140037740     AppAssistWnd.obj
 0002:00023768       ??_R3CAppAssistWnd@@8      0000000140037768     AppAssistWnd.obj
 0002:00023780       ??_R2CAppAssistWnd@@8      0000000140037780     AppAssistWnd.obj
 0002:00023790       ??_R1A@?0A@EA@CAppAssistWnd@@8 0000000140037790     AppAssistWnd.obj
 0002:000237b8       ??_R4QWidget@@6BQObject@@@ 00000001400377b8     AppMainWnd.obj
 0002:000237e0       ??_R3QWidget@@8            00000001400377e0     AppMainWnd.obj
 0002:000237f8       ??_R2QWidget@@8            00000001400377f8     AppMainWnd.obj
 0002:00023818       ??_R1A@?0A@EA@QWidget@@8   0000000140037818     AppMainWnd.obj
 0002:00023840       ??_R1BA@?0A@EA@QPaintDevice@@8 0000000140037840     AppMainWnd.obj
 0002:00023868       ??_R3QPaintDevice@@8       0000000140037868     AppMainWnd.obj
 0002:00023880       ??_R2QPaintDevice@@8       0000000140037880     AppMainWnd.obj
 0002:00023890       ??_R1A@?0A@EA@QPaintDevice@@8 0000000140037890     AppMainWnd.obj
 0002:000238b8       ??_R4QWidget@@6BQPaintDevice@@@ 00000001400378b8     AppMainWnd.obj
 0002:000238e0       ??_R4QFrame@@6BQObject@@@  00000001400378e0     AppMainWnd.obj
 0002:00023908       ??_R3QFrame@@8             0000000140037908     AppMainWnd.obj
 0002:00023920       ??_R2QFrame@@8             0000000140037920     AppMainWnd.obj
 0002:00023948       ??_R1A@?0A@EA@QFrame@@8    0000000140037948     AppMainWnd.obj
 0002:00023970       ??_R4QFrame@@6BQPaintDevice@@@ 0000000140037970     AppMainWnd.obj
 0002:00023998       ??_R1A@?0A@EA@QLayoutItem@@8 0000000140037998     AppMainWnd.obj
 0002:000239c0       ??_R3QLayoutItem@@8        00000001400379c0     AppMainWnd.obj
 0002:000239d8       ??_R2QLayoutItem@@8        00000001400379d8     AppMainWnd.obj
 0002:000239e8       ??_R4QGridLayout@@6BQObject@@@ 00000001400379e8     AppMainWnd.obj
 0002:00023a10       ??_R3QGridLayout@@8        0000000140037a10     AppMainWnd.obj
 0002:00023a28       ??_R2QGridLayout@@8        0000000140037a28     AppMainWnd.obj
 0002:00023a50       ??_R1A@?0A@EA@QGridLayout@@8 0000000140037a50     AppMainWnd.obj
 0002:00023a78       ??_R1A@?0A@EA@QLayout@@8   0000000140037a78     AppMainWnd.obj
 0002:00023aa0       ??_R3QLayout@@8            0000000140037aa0     AppMainWnd.obj
 0002:00023ab8       ??_R2QLayout@@8            0000000140037ab8     AppMainWnd.obj
 0002:00023ad8       ??_R1BA@?0A@EA@QLayoutItem@@8 0000000140037ad8     AppMainWnd.obj
 0002:00023b00       ??_R4QGridLayout@@6BQLayoutItem@@@ 0000000140037b00     AppMainWnd.obj
 0002:00023b28       ??_R4AppMainWnd@@6BQObject@@@ 0000000140037b28     AppMainWnd.obj
 0002:00023b50       ??_R3AppMainWnd@@8         0000000140037b50     AppMainWnd.obj
 0002:00023b68       ??_R2AppMainWnd@@8         0000000140037b68     AppMainWnd.obj
 0002:00023ba0       ??_R1A@?0A@EA@AppMainWnd@@8 0000000140037ba0     AppMainWnd.obj
 0002:00023bc8       ??_R1A@?0A@EA@QMainWindow@@8 0000000140037bc8     AppMainWnd.obj
 0002:00023bf0       ??_R3QMainWindow@@8        0000000140037bf0     AppMainWnd.obj
 0002:00023c08       ??_R2QMainWindow@@8        0000000140037c08     AppMainWnd.obj
 0002:00023c30       ??_R1DA@?0A@EA@IAppHandle@@8 0000000140037c30     AppMainWnd.obj
 0002:00023c58       ??_R3IAppHandle@@8         0000000140037c58     AppMainWnd.obj
 0002:00023c70       ??_R2IAppHandle@@8         0000000140037c70     AppMainWnd.obj
 0002:00023c80       ??_R1A@?0A@EA@IAppHandle@@8 0000000140037c80     AppMainWnd.obj
 0002:00023ca8       ??_R4AppMainWnd@@6BQPaintDevice@@@ 0000000140037ca8     AppMainWnd.obj
 0002:00023cd0       ??_R4AppMainWnd@@6B@       0000000140037cd0     AppMainWnd.obj
 0002:00023cf8       ??_R4QPushButton@@6BQObject@@@ 0000000140037cf8     DlgAbout.obj
 0002:00023d20       ??_R3QPushButton@@8        0000000140037d20     DlgAbout.obj
 0002:00023d38       ??_R2QPushButton@@8        0000000140037d38     DlgAbout.obj
 0002:00023d68       ??_R1A@?0A@EA@QPushButton@@8 0000000140037d68     DlgAbout.obj
 0002:00023d90       ??_R1A@?0A@EA@QAbstractButton@@8 0000000140037d90     DlgAbout.obj
 0002:00023db8       ??_R3QAbstractButton@@8    0000000140037db8     DlgAbout.obj
 0002:00023dd0       ??_R2QAbstractButton@@8    0000000140037dd0     DlgAbout.obj
 0002:00023df8       ??_R4QPushButton@@6BQPaintDevice@@@ 0000000140037df8     DlgAbout.obj
 0002:00023e20       ??_R4QScrollArea@@6BQObject@@@ 0000000140037e20     DlgAbout.obj
 0002:00023e48       ??_R3QScrollArea@@8        0000000140037e48     DlgAbout.obj
 0002:00023e60       ??_R2QScrollArea@@8        0000000140037e60     DlgAbout.obj
 0002:00023e98       ??_R1A@?0A@EA@QScrollArea@@8 0000000140037e98     DlgAbout.obj
 0002:00023ec0       ??_R1A@?0A@EA@QAbstractScrollArea@@8 0000000140037ec0     DlgAbout.obj
 0002:00023ee8       ??_R3QAbstractScrollArea@@8 0000000140037ee8     DlgAbout.obj
 0002:00023f00       ??_R2QAbstractScrollArea@@8 0000000140037f00     DlgAbout.obj
 0002:00023f30       ??_R4QScrollArea@@6BQPaintDevice@@@ 0000000140037f30     DlgAbout.obj
 0002:00023f58       ??_R4QTextBrowser@@6BQObject@@@ 0000000140037f58     DlgAbout.obj
 0002:00023f80       ??_R3QTextBrowser@@8       0000000140037f80     DlgAbout.obj
 0002:00023f98       ??_R2QTextBrowser@@8       0000000140037f98     DlgAbout.obj
 0002:00023fd8       ??_R1A@?0A@EA@QTextBrowser@@8 0000000140037fd8     DlgAbout.obj
 0002:00024000       ??_R1A@?0A@EA@QTextEdit@@8 0000000140038000     DlgAbout.obj
 0002:00024028       ??_R3QTextEdit@@8          0000000140038028     DlgAbout.obj
 0002:00024040       ??_R2QTextEdit@@8          0000000140038040     DlgAbout.obj
 0002:00024078       ??_R4QTextBrowser@@6BQPaintDevice@@@ 0000000140038078     DlgAbout.obj
 0002:000240a0       ??_R4DlgAbout@@6BQObject@@@ 00000001400380a0     DlgAbout.obj
 0002:000240c8       ??_R3DlgAbout@@8           00000001400380c8     DlgAbout.obj
 0002:000240e0       ??_R2DlgAbout@@8           00000001400380e0     DlgAbout.obj
 0002:00024110       ??_R1A@?0A@EA@DlgAbout@@8  0000000140038110     DlgAbout.obj
 0002:00024138       ??_R1A@?0A@EA@QDialog@@8   0000000140038138     DlgAbout.obj
 0002:00024160       ??_R3QDialog@@8            0000000140038160     DlgAbout.obj
 0002:00024178       ??_R2QDialog@@8            0000000140038178     DlgAbout.obj
 0002:000241a0       ??_R4DlgAbout@@6BQPaintDevice@@@ 00000001400381a0     DlgAbout.obj
 0002:000241c8       ??_R4QVBoxLayout@@6BQObject@@@ 00000001400381c8     DlgHelp.obj
 0002:000241f0       ??_R3QVBoxLayout@@8        00000001400381f0     DlgHelp.obj
 0002:00024208       ??_R2QVBoxLayout@@8        0000000140038208     DlgHelp.obj
 0002:00024238       ??_R1A@?0A@EA@QVBoxLayout@@8 0000000140038238     DlgHelp.obj
 0002:00024260       ??_R1A@?0A@EA@QBoxLayout@@8 0000000140038260     DlgHelp.obj
 0002:00024288       ??_R3QBoxLayout@@8         0000000140038288     DlgHelp.obj
 0002:000242a0       ??_R2QBoxLayout@@8         00000001400382a0     DlgHelp.obj
 0002:000242c8       ??_R4QVBoxLayout@@6BQLayoutItem@@@ 00000001400382c8     DlgHelp.obj
 0002:000242f0       ??_R4QLabel@@6BQObject@@@  00000001400382f0     DlgHelp.obj
 0002:00024318       ??_R3QLabel@@8             0000000140038318     DlgHelp.obj
 0002:00024330       ??_R2QLabel@@8             0000000140038330     DlgHelp.obj
 0002:00024360       ??_R1A@?0A@EA@QLabel@@8    0000000140038360     DlgHelp.obj
 0002:00024388       ??_R4QLabel@@6BQPaintDevice@@@ 0000000140038388     DlgHelp.obj
 0002:000243b0       ??_R4DlgHelp@@6BQObject@@@ 00000001400383b0     DlgHelp.obj
 0002:000243d8       ??_R3DlgHelp@@8            00000001400383d8     DlgHelp.obj
 0002:000243f0       ??_R2DlgHelp@@8            00000001400383f0     DlgHelp.obj
 0002:00024420       ??_R1A@?0A@EA@DlgHelp@@8   0000000140038420     DlgHelp.obj
 0002:00024448       ??_R4DlgHelp@@6BQPaintDevice@@@ 0000000140038448     DlgHelp.obj
 0002:00024470       ??_R4ComparePage@@6B@      0000000140038470     ComparePage.obj
 0002:00024498       ??_R3ComparePage@@8        0000000140038498     ComparePage.obj
 0002:000244b0       ??_R2ComparePage@@8        00000001400384b0     ComparePage.obj
 0002:000244d0       ??_R1A@?0A@EA@ComparePage@@8 00000001400384d0     ComparePage.obj
 0002:000244f8       ??_R1A@?0A@EA@MyPanelBase@@8 00000001400384f8     ComparePage.obj
 0002:00024520       ??_R3MyPanelBase@@8        0000000140038520     ComparePage.obj
 0002:00024538       ??_R2MyPanelBase@@8        0000000140038538     ComparePage.obj
 0002:00024550       ??_R4FileBrowser@@6B@      0000000140038550     FileBrowser.obj
 0002:00024578       ??_R3FileBrowser@@8        0000000140038578     FileBrowser.obj
 0002:00024590       ??_R2FileBrowser@@8        0000000140038590     FileBrowser.obj
 0002:000245a8       ??_R1A@?0A@EA@FileBrowser@@8 00000001400385a8     FileBrowser.obj
 0002:000245d0       ??_R4QSpacerItem@@6B@      00000001400385d0     HomePage.obj
 0002:000245f8       ??_R3QSpacerItem@@8        00000001400385f8     HomePage.obj
 0002:00024610       ??_R2QSpacerItem@@8        0000000140038610     HomePage.obj
 0002:00024628       ??_R1A@?0A@EA@QSpacerItem@@8 0000000140038628     HomePage.obj
 0002:00024650       ??_R4QHBoxLayout@@6BQObject@@@ 0000000140038650     HomePage.obj
 0002:00024678       ??_R3QHBoxLayout@@8        0000000140038678     HomePage.obj
 0002:00024690       ??_R2QHBoxLayout@@8        0000000140038690     HomePage.obj
 0002:000246c0       ??_R1A@?0A@EA@QHBoxLayout@@8 00000001400386c0     HomePage.obj
 0002:000246e8       ??_R4QHBoxLayout@@6BQLayoutItem@@@ 00000001400386e8     HomePage.obj
 0002:00024710       ??_R4QRadioButton@@6BQObject@@@ 0000000140038710     HomePage.obj
 0002:00024738       ??_R3QRadioButton@@8       0000000140038738     HomePage.obj
 0002:00024750       ??_R2QRadioButton@@8       0000000140038750     HomePage.obj
 0002:00024780       ??_R1A@?0A@EA@QRadioButton@@8 0000000140038780     HomePage.obj
 0002:000247a8       ??_R4QRadioButton@@6BQPaintDevice@@@ 00000001400387a8     HomePage.obj
 0002:000247d0       ??_R4HomePage@@6B@         00000001400387d0     HomePage.obj
 0002:000247f8       ??_R3HomePage@@8           00000001400387f8     HomePage.obj
 0002:00024810       ??_R2HomePage@@8           0000000140038810     HomePage.obj
 0002:00024830       ??_R1A@?0A@EA@HomePage@@8  0000000140038830     HomePage.obj
 0002:00024858       ??_R4AISFReferenceInter@ARC_AISF@@6B@ 0000000140038858     CompareViewPanel.obj
 0002:00024880       ??_R3AISFReferenceInter@ARC_AISF@@8 0000000140038880     CompareViewPanel.obj
 0002:00024898       ??_R2AISFReferenceInter@ARC_AISF@@8 0000000140038898     CompareViewPanel.obj
 0002:000248a8       ??_R1A@?0A@EA@AISFReferenceInter@ARC_AISF@@8 00000001400388a8     CompareViewPanel.obj
 0002:000248d0       ??_R4AISFReferenceImp@@6B@ 00000001400388d0     CompareViewPanel.obj
 0002:000248f8       ??_R3AISFReferenceImp@@8   00000001400388f8     CompareViewPanel.obj
 0002:00024910       ??_R2AISFReferenceImp@@8   0000000140038910     CompareViewPanel.obj
 0002:00024920       ??_R1A@?0A@EA@AISFReferenceImp@@8 0000000140038920     CompareViewPanel.obj
 0002:00024948       ??_R4IAISFCompareViewCallback@ARC_AISF@@6B@ 0000000140038948     CompareViewPanel.obj
 0002:00024970       ??_R3IAISFCompareViewCallback@ARC_AISF@@8 0000000140038970     CompareViewPanel.obj
 0002:00024988       ??_R2IAISFCompareViewCallback@ARC_AISF@@8 0000000140038988     CompareViewPanel.obj
 0002:000249a0       ??_R1A@?0A@EA@IAISFCompareViewCallback@ARC_AISF@@8 00000001400389a0     CompareViewPanel.obj
 0002:000249c8       ??_R4CompareViewPanel@@6B@ 00000001400389c8     CompareViewPanel.obj
 0002:000249f0       ??_R3CompareViewPanel@@8   00000001400389f0     CompareViewPanel.obj
 0002:00024a08       ??_R2CompareViewPanel@@8   0000000140038a08     CompareViewPanel.obj
 0002:00024a28       ??_R1A@?0A@EA@CompareViewPanel@@8 0000000140038a28     CompareViewPanel.obj
 0002:00024a50       ??_R4MyCompareViewCallback@@6BIAISFCompareViewCallback@ARC_AISF@@@ 0000000140038a50     CompareViewPanel.obj
 0002:00024a78       ??_R3MyCompareViewCallback@@8 0000000140038a78     CompareViewPanel.obj
 0002:00024a90       ??_R2MyCompareViewCallback@@8 0000000140038a90     CompareViewPanel.obj
 0002:00024ab8       ??_R1A@?0A@EA@MyCompareViewCallback@@8 0000000140038ab8     CompareViewPanel.obj
 0002:00024ae0       ??_R17?0A@EA@AISFReferenceImp@@8 0000000140038ae0     CompareViewPanel.obj
 0002:00024b08       ??_R4MyCompareViewCallback@@6BAISFReferenceImp@@@ 0000000140038b08     CompareViewPanel.obj
 0002:00024b30       ??_R4?$MyAutoPtr@VAISFCompareView@ARC_AISF@@@@6B@ 0000000140038b30     CompareViewPanel.obj
 0002:00024b58       ??_R3?$MyAutoPtr@VAISFCompareView@ARC_AISF@@@@8 0000000140038b58     CompareViewPanel.obj
 0002:00024b70       ??_R2?$MyAutoPtr@VAISFCompareView@ARC_AISF@@@@8 0000000140038b70     CompareViewPanel.obj
 0002:00024b80       ??_R1A@?0A@EA@?$MyAutoPtr@VAISFCompareView@ARC_AISF@@@@8 0000000140038b80     CompareViewPanel.obj
 0002:00024ba8       ??_R4QCheckBox@@6BQObject@@@ 0000000140038ba8     MainToolbarPanel.obj
 0002:00024bd0       ??_R3QCheckBox@@8          0000000140038bd0     MainToolbarPanel.obj
 0002:00024be8       ??_R2QCheckBox@@8          0000000140038be8     MainToolbarPanel.obj
 0002:00024c18       ??_R1A@?0A@EA@QCheckBox@@8 0000000140038c18     MainToolbarPanel.obj
 0002:00024c40       ??_R4QCheckBox@@6BQPaintDevice@@@ 0000000140038c40     MainToolbarPanel.obj
 0002:00024c68       ??_R4MainToolbarPanel@@6B@ 0000000140038c68     MainToolbarPanel.obj
 0002:00024c90       ??_R3MainToolbarPanel@@8   0000000140038c90     MainToolbarPanel.obj
 0002:00024ca8       ??_R2MainToolbarPanel@@8   0000000140038ca8     MainToolbarPanel.obj
 0002:00024cc8       ??_R1A@?0A@EA@MainToolbarPanel@@8 0000000140038cc8     MainToolbarPanel.obj
 0002:00024cf0       ??_R4MyPanelBase@@6B@      0000000140038cf0     MyPanelBase.obj
 0002:00024d18       ??_R4MyWidget@@6BQObject@@@ 0000000140038d18     MyWidget.obj
 0002:00024d40       ??_R3MyWidget@@8           0000000140038d40     MyWidget.obj
 0002:00024d58       ??_R2MyWidget@@8           0000000140038d58     MyWidget.obj
 0002:00024d80       ??_R1A@?0A@EA@MyWidget@@8  0000000140038d80     MyWidget.obj
 0002:00024da8       ??_R4MyWidget@@6BQPaintDevice@@@ 0000000140038da8     MyWidget.obj
 0002:00024dd0       ??_R4MyDrawWidget@@6BQObject@@@ 0000000140038dd0     MyDrawWidget.obj
 0002:00024df8       ??_R3MyDrawWidget@@8       0000000140038df8     MyDrawWidget.obj
 0002:00024e10       ??_R2MyDrawWidget@@8       0000000140038e10     MyDrawWidget.obj
 0002:00024e38       ??_R1A@?0A@EA@MyDrawWidget@@8 0000000140038e38     MyDrawWidget.obj
 0002:00024e60       ??_R4MyDrawWidget@@6BQPaintDevice@@@ 0000000140038e60     MyDrawWidget.obj
 0002:00024e88       ??_R4TitleBar@@6B@         0000000140038e88     TitleBar.obj
 0002:00024eb0       ??_R3TitleBar@@8           0000000140038eb0     TitleBar.obj
 0002:00024ec8       ??_R2TitleBar@@8           0000000140038ec8     TitleBar.obj
 0002:00024ee8       ??_R1A@?0A@EA@TitleBar@@8  0000000140038ee8     TitleBar.obj
 0002:00024f10       ??_R4type_info@@6B@        0000000140038f10     MSVCRT:std_type_info_static.obj
 0002:00024f38       ??_R3type_info@@8          0000000140038f38     MSVCRT:std_type_info_static.obj
 0002:00024f50       ??_R2type_info@@8          0000000140038f50     MSVCRT:std_type_info_static.obj
 0002:00024f60       ??_R1A@?0A@EA@type_info@@8 0000000140038f60     MSVCRT:std_type_info_static.obj
 0002:00024f88       ??_R4exception@std@@6B@    0000000140038f88     MSVCRT:throw_bad_alloc.obj
 0002:00024fb0       ??_R3exception@std@@8      0000000140038fb0     MSVCRT:throw_bad_alloc.obj
 0002:00024fc8       ??_R2exception@std@@8      0000000140038fc8     MSVCRT:throw_bad_alloc.obj
 0002:00024fd8       ??_R1A@?0A@EA@exception@std@@8 0000000140038fd8     MSVCRT:throw_bad_alloc.obj
 0002:00025000       ??_R4bad_alloc@std@@6B@    0000000140039000     MSVCRT:throw_bad_alloc.obj
 0002:00025028       ??_R3bad_alloc@std@@8      0000000140039028     MSVCRT:throw_bad_alloc.obj
 0002:00025040       ??_R2bad_alloc@std@@8      0000000140039040     MSVCRT:throw_bad_alloc.obj
 0002:00025058       ??_R1A@?0A@EA@bad_alloc@std@@8 0000000140039058     MSVCRT:throw_bad_alloc.obj
 0002:00025080       ??_R4bad_array_new_length@std@@6B@ 0000000140039080     MSVCRT:throw_bad_alloc.obj
 0002:000250a8       ??_R3bad_array_new_length@std@@8 00000001400390a8     MSVCRT:throw_bad_alloc.obj
 0002:000250c0       ??_R2bad_array_new_length@std@@8 00000001400390c0     MSVCRT:throw_bad_alloc.obj
 0002:000250e0       ??_R1A@?0A@EA@bad_array_new_length@std@@8 00000001400390e0     MSVCRT:throw_bad_alloc.obj
 0002:00025468       __rtc_iaa                  0000000140039468     MSVCRT:initsect.obj
 0002:00025470       __rtc_izz                  0000000140039470     MSVCRT:initsect.obj
 0002:00025478       __rtc_taa                  0000000140039478     MSVCRT:initsect.obj
 0002:00025480       __rtc_tzz                  0000000140039480     MSVCRT:initsect.obj
 0002:00025488       _tls_start                 0000000140039488     MSVCRT:tlssup.obj
 0002:0002548c       _Init_thread_epoch         000000014003948c     MSVCRT:thread_safe_statics.obj
 0002:00025490       _tls_end                   0000000140039490     MSVCRT:tlssup.obj
 0002:00028e28       _TI2?AVbad_alloc@std@@     000000014003ce28     MSVCRT:throw_bad_alloc.obj
 0002:00028e48       _CTA2?AVbad_alloc@std@@    000000014003ce48     MSVCRT:throw_bad_alloc.obj
 0002:00028e60       _CT??_R0?AVbad_alloc@std@@@8??0bad_alloc@std@@QEAA@AEBV01@@Z24 000000014003ce60     MSVCRT:throw_bad_alloc.obj
 0002:00028e88       _CT??_R0?AVexception@std@@@8??0exception@std@@QEAA@AEBV01@@Z24 000000014003ce88     MSVCRT:throw_bad_alloc.obj
 0002:00028eb0       _TI3?AVbad_array_new_length@std@@ 000000014003ceb0     MSVCRT:throw_bad_alloc.obj
 0002:00028ed0       _CTA3?AVbad_array_new_length@std@@ 000000014003ced0     MSVCRT:throw_bad_alloc.obj
 0002:00028ef0       _CT??_R0?AVbad_array_new_length@std@@@8??0bad_array_new_length@std@@QEAA@AEBV01@@Z24 000000014003cef0     MSVCRT:throw_bad_alloc.obj
 0002:00028f14       __IMPORT_DESCRIPTOR_Qt5Multimedia 000000014003cf14     Qt5Multimedia:Qt5Multimedia.dll
 0002:00028f28       __IMPORT_DESCRIPTOR_Qt5Widgets 000000014003cf28     Qt5Widgets:Qt5Widgets.dll
 0002:00028f3c       __IMPORT_DESCRIPTOR_Qt5Gui 000000014003cf3c     Qt5Gui:Qt5Gui.dll
 0002:00028f50       __IMPORT_DESCRIPTOR_Qt5Core 000000014003cf50     Qt5Core:Qt5Core.dll
 0002:00028f64       __IMPORT_DESCRIPTOR_KERNEL32 000000014003cf64     kernel32:KERNEL32.dll
 0002:00028f78       __IMPORT_DESCRIPTOR_USER32 000000014003cf78     user32:USER32.dll
 0002:00028f8c       __IMPORT_DESCRIPTOR_MSVCP140 000000014003cf8c     msvcprt:MSVCP140.dll
 0002:00028fa0       __IMPORT_DESCRIPTOR_AISFCompareView 000000014003cfa0     AISFCompareView:AISFCompareView.dll
 0002:00028fb4       __IMPORT_DESCRIPTOR_VCRUNTIME140 000000014003cfb4     vcruntime:VCRUNTIME140.dll
 0002:00028fc8       __IMPORT_DESCRIPTOR_api-ms-win-crt-runtime-l1-1-0 000000014003cfc8     ucrt:api-ms-win-crt-runtime-l1-1-0.dll
 0002:00028fdc       __IMPORT_DESCRIPTOR_api-ms-win-crt-heap-l1-1-0 000000014003cfdc     ucrt:api-ms-win-crt-heap-l1-1-0.dll
 0002:00028ff0       __IMPORT_DESCRIPTOR_api-ms-win-crt-stdio-l1-1-0 000000014003cff0     ucrt:api-ms-win-crt-stdio-l1-1-0.dll
 0002:00029004       __IMPORT_DESCRIPTOR_api-ms-win-crt-math-l1-1-0 000000014003d004     ucrt:api-ms-win-crt-math-l1-1-0.dll
 0002:00029018       __IMPORT_DESCRIPTOR_api-ms-win-crt-locale-l1-1-0 000000014003d018     ucrt:api-ms-win-crt-locale-l1-1-0.dll
 0002:0002902c       __IMPORT_DESCRIPTOR_SHELL32 000000014003d02c     shell32:SHELL32.dll
 0002:00029040       __NULL_IMPORT_DESCRIPTOR   000000014003d040     Qt5Multimedia:Qt5Multimedia.dll
 0003:000000d8       ?staticMetaObject@MyDrawWidget@@2UQMetaObject@@B 00000001400450d8     moc_MyDrawWidget.obj
 0003:00000108       ?staticMetaObject@AppMainWnd@@2UQMetaObject@@B 0000000140045108     moc_AppMainWnd.obj
 0003:00000138       ?staticMetaObject@MyVideoSurface@@2UQMetaObject@@B 0000000140045138     moc_MyVideoSurface.obj
 0003:00000168       ?staticMetaObject@DlgAbout@@2UQMetaObject@@B 0000000140045168     moc_DlgAbout.obj
 0003:00000198       ?staticMetaObject@DlgHelp@@2UQMetaObject@@B 0000000140045198     moc_DlgHelp.obj
 0003:000001c8       ?staticMetaObject@MenuManager@@2UQMetaObject@@B 00000001400451c8     moc_MenuManager.obj
 0003:000001f8       ?staticMetaObject@MyLabel@@2UQMetaObject@@B 00000001400451f8     moc_MyLabel.obj
 0003:00000228       ?staticMetaObject@MyPanelBase@@2UQMetaObject@@B 0000000140045228     moc_MyPanelBase.obj
 0003:00000258       ?staticMetaObject@MyWidget@@2UQMetaObject@@B 0000000140045258     moc_MyWidget.obj
 0003:00000288       ?staticMetaObject@FileBrowser@@2UQMetaObject@@B 0000000140045288     moc_FileBrowser.obj
 0003:000002c0       ?staticMetaObject@TranslationWatcher@QFormInternal@@2UQMetaObject@@B 00000001400452c0     Qt5UiTools:quiloader.obj
 0003:00000330       ?staticMetaObject@QUiLoader@@2UQMetaObject@@B 0000000140045330     Qt5UiTools:moc_quiloader.obj
 0003:00000390       ?staticMetaObject@QAbstractFormBuilderGadget@QFormInternal@@2UQMetaObject@@B 0000000140045390     Qt5UiTools:moc_properties_p.obj
 0003:000008e0       __security_cookie_complement 00000001400458e0     MSVCRT:gs_cookie.obj
 0003:000008e8       __security_cookie          00000001400458e8     MSVCRT:gs_cookie.obj
 0003:000008f0       _fltused                   00000001400458f0     MSVCRT:fltused.obj
 0003:000008f4       _Init_global_epoch         00000001400458f4     MSVCRT:thread_safe_statics.obj
 0003:000008f8       __scrt_native_dllmain_reason 00000001400458f8     MSVCRT:utility.obj
 0003:00000900       __isa_available            0000000140045900     MSVCRT:cpu_disp.obj
 0003:00000904       __isa_enabled              0000000140045904     MSVCRT:cpu_disp.obj
 0003:00000908       __memcpy_nt_iters          0000000140045908     MSVCRT:cpu_disp.obj
 0003:00000910       __scrt_default_matherr     0000000140045910     MSVCRT:matherr.obj
 0003:00000920       __scrt_ucrt_dll_is_in_use  0000000140045920     MSVCRT:ucrt_stubs.obj
 0003:00000928       ??_R0?AVQObject@@@8        0000000140045928     MyVideoSurface.obj
 0003:00000948       ??_R0?AVCAppAssistWnd@@@8  0000000140045948     AppAssistWnd.obj
 0003:00000970       ??_R0?AVMyPanelBase@@@8    0000000140045970     AppMainWnd.obj
 0003:00000998       ??_R0?AVComparePage@@@8    0000000140045998     AppMainWnd.obj
 0003:000009c0       ??_R0?AVMainToolbarPanel@@@8 00000001400459c0     AppMainWnd.obj
 0003:000009e8       ??_R0?AVQWidget@@@8        00000001400459e8     AppMainWnd.obj
 0003:00000a08       ??_R0?AVQPaintDevice@@@8   0000000140045a08     AppMainWnd.obj
 0003:00000a30       ??_R0?AVQFrame@@@8         0000000140045a30     AppMainWnd.obj
 0003:00000a50       ??_R0?AVQLayoutItem@@@8    0000000140045a50     AppMainWnd.obj
 0003:00000a78       ??_R0?AVQGridLayout@@@8    0000000140045a78     AppMainWnd.obj
 0003:00000aa0       ??_R0?AVQLayout@@@8        0000000140045aa0     AppMainWnd.obj
 0003:00000ac0       ??_R0?AVAppMainWnd@@@8     0000000140045ac0     AppMainWnd.obj
 0003:00000ae8       ??_R0?AVQMainWindow@@@8    0000000140045ae8     AppMainWnd.obj
 0003:00000b10       ??_R0?AVIAppHandle@@@8     0000000140045b10     AppMainWnd.obj
 0003:00000b38       ??_R0?AVQPushButton@@@8    0000000140045b38     DlgAbout.obj
 0003:00000b60       ??_R0?AVQAbstractButton@@@8 0000000140045b60     DlgAbout.obj
 0003:00000b88       ??_R0?AVQScrollArea@@@8    0000000140045b88     DlgAbout.obj
 0003:00000bb0       ??_R0?AVQAbstractScrollArea@@@8 0000000140045bb0     DlgAbout.obj
 0003:00000be0       ??_R0?AVQTextBrowser@@@8   0000000140045be0     DlgAbout.obj
 0003:00000c08       ??_R0?AVQTextEdit@@@8      0000000140045c08     DlgAbout.obj
 0003:00000c28       ??_R0?AVDlgAbout@@@8       0000000140045c28     DlgAbout.obj
 0003:00000c48       ??_R0?AVQDialog@@@8        0000000140045c48     DlgAbout.obj
 0003:00000c68       ??_R0?AVQVBoxLayout@@@8    0000000140045c68     DlgHelp.obj
 0003:00000c90       ??_R0?AVQBoxLayout@@@8     0000000140045c90     DlgHelp.obj
 0003:00000cb8       ??_R0?AVQLabel@@@8         0000000140045cb8     DlgHelp.obj
 0003:00000cd8       ??_R0?AVDlgHelp@@@8        0000000140045cd8     DlgHelp.obj
 0003:00000cf8       ??_R0?AVCompareViewPanel@@@8 0000000140045cf8     ComparePage.obj
 0003:00000d20       ??_R0?AVFileBrowser@@@8    0000000140045d20     FileBrowser.obj
 0003:00000d48       ??_R0?AVQSpacerItem@@@8    0000000140045d48     HomePage.obj
 0003:00000d70       ??_R0?AVQHBoxLayout@@@8    0000000140045d70     HomePage.obj
 0003:00000d98       ??_R0?AVQRadioButton@@@8   0000000140045d98     HomePage.obj
 0003:00000dc0       ??_R0?AVHomePage@@@8       0000000140045dc0     HomePage.obj
 0003:00000de0       ??_R0?AVAISFReferenceInter@ARC_AISF@@@8 0000000140045de0     CompareViewPanel.obj
 0003:00000e18       ??_R0?AVAISFReferenceImp@@@8 0000000140045e18     CompareViewPanel.obj
 0003:00000e40       ??_R0?AVIAISFCompareViewCallback@ARC_AISF@@@8 0000000140045e40     CompareViewPanel.obj
 0003:00000e78       ??_R0?AVMyCompareViewCallback@@@8 0000000140045e78     CompareViewPanel.obj
 0003:00000ea8       ??_R0?AV?$MyAutoPtr@VAISFCompareView@ARC_AISF@@@@@8 0000000140045ea8     CompareViewPanel.obj
 0003:00000ee8       ??_R0?AVQCheckBox@@@8      0000000140045ee8     MainToolbarPanel.obj
 0003:00000f08       ??_R0?AVMyWidget@@@8       0000000140045f08     MyWidget.obj
 0003:00000f28       ??_R0?AVMyDrawWidget@@@8   0000000140045f28     MyDrawWidget.obj
 0003:00000f50       ??_R0?AVTitleBar@@@8       0000000140045f50     TitleBar.obj
 0003:00000f70       ??_R0?AVtype_info@@@8      0000000140045f70     MSVCRT:std_type_info_static.obj
 0003:00000f90       ??_R0?AVbad_alloc@std@@@8  0000000140045f90     MSVCRT:throw_bad_alloc.obj
 0003:00000fb8       ??_R0?AVexception@std@@@8  0000000140045fb8     MSVCRT:throw_bad_alloc.obj
 0003:00000fe0       ??_R0?AVbad_array_new_length@std@@@8 0000000140045fe0     MSVCRT:throw_bad_alloc.obj
 0003:00001078       ?_OptionsStorage@?1??__local_stdio_printf_options@@9@4_KA 0000000140046078     CompareViewPanel.obj
 0003:00001138       ?strQssMenu@@3VQString@@A  0000000140046138     MenuManager.obj
 0003:00001174       ?dummy@?A0x7ab48115@@3Uinitializer@1@A 0000000140046174     qrc_appmainwnd.obj
 0003:00001178       ?guard@Q_QGS_g_widgets@?A0x135e8798@@3V?$QBasicAtomicInteger@H@@A 0000000140046178     Qt5UiTools:quiloader.obj
 0003:00001180       __@@_PchSym_@00@UfhvihUjgUdlipUjgUjggllohUhixUwvhrtmviUhixUfrgllohUOkxsUivovzhvUjgFfrgllohPkxsOlyq@4B2008FD98C1DD4 0000000140046180     Qt5UiTools:Qt5UiTools_pch.obj
 0003:00001200       _tls_index                 0000000140046200     MSVCRT:tlssup.obj
 0003:00001208       __scrt_current_native_startup_state 0000000140046208     MSVCRT:utility.obj
 0003:00001210       __scrt_native_startup_lock 0000000140046210     MSVCRT:utility.obj
 0003:000017c0       __scrt_debugger_hook_flag  00000001400467c0     MSVCRT:utility_desktop.obj
 0003:000017c4       __favor                    00000001400467c4     MSVCRT:cpu_disp.obj
 0003:000017d0       ?__type_info_root_node@@3U__type_info_node@@A 00000001400467d0     MSVCRT:tncleanup.obj
 0003:000017e0       ?_OptionsStorage@?1??__local_stdio_scanf_options@@9@4_KA 00000001400467e0     MSVCRT:default_local_stdio_options.obj
 0003:000017e8       __dyn_tls_dtor_callback    00000001400467e8     <common>
 0003:000017f0       __dyn_tls_init_callback    00000001400467f0     <common>

 entry point at        0001:000109b0

 Static symbols

 0001:00000000       ??__ELIST_RGBCCMatrix@AISFGLRGBColorSpace@ARC_AISF@@YAXXZ 0000000140001000 f   IniSetting.obj
 0001:000000d0       ??__EstrQssMenu@@YAXXZ     00000001400010d0 f   MenuManager.obj
 0001:00000100       ??__Edummy@?A0x7ab48115@@YAXXZ 0000000140001100 f   qrc_appmainwnd.obj
 0001:00000140       ??__E?staticMetaObject@MyDrawWidget@@2UQMetaObject@@B@@YAXXZ 0000000140001140 f   moc_MyDrawWidget.obj
 0001:00000150       ??__E?staticMetaObject@AppMainWnd@@2UQMetaObject@@B@@YAXXZ 0000000140001150 f   moc_AppMainWnd.obj
 0001:00000160       ??__E?staticMetaObject@MyVideoSurface@@2UQMetaObject@@B@@YAXXZ 0000000140001160 f   moc_MyVideoSurface.obj
 0001:00000170       ??__E?staticMetaObject@DlgAbout@@2UQMetaObject@@B@@YAXXZ 0000000140001170 f   moc_DlgAbout.obj
 0001:00000180       ??__E?staticMetaObject@DlgHelp@@2UQMetaObject@@B@@YAXXZ 0000000140001180 f   moc_DlgHelp.obj
 0001:00000190       ??__E?staticMetaObject@MenuManager@@2UQMetaObject@@B@@YAXXZ 0000000140001190 f   moc_MenuManager.obj
 0001:000001a0       ??__E?staticMetaObject@MyLabel@@2UQMetaObject@@B@@YAXXZ 00000001400011a0 f   moc_MyLabel.obj
 0001:000001b0       ??__E?staticMetaObject@MyPanelBase@@2UQMetaObject@@B@@YAXXZ 00000001400011b0 f   moc_MyPanelBase.obj
 0001:000001c0       ??__E?staticMetaObject@MyWidget@@2UQMetaObject@@B@@YAXXZ 00000001400011c0 f   moc_MyWidget.obj
 0001:000001d0       ??__E?staticMetaObject@FileBrowser@@2UQMetaObject@@B@@YAXXZ 00000001400011d0 f   moc_FileBrowser.obj
 0001:000001e0       ??__E?staticMetaObject@TranslationWatcher@QFormInternal@@2UQMetaObject@@B@@YAXXZ 00000001400011e0 f   Qt5UiTools:quiloader.obj
 0001:000001f0       ??__E?staticMetaObject@QUiLoader@@2UQMetaObject@@B@@YAXXZ 00000001400011f0 f   Qt5UiTools:moc_quiloader.obj
 0001:00000200       ??__E?staticMetaObject@QAbstractFormBuilderGadget@QFormInternal@@2UQMetaObject@@B@@YAXXZ 0000000140001200 f   Qt5UiTools:moc_properties_p.obj
 0001:00000210       ??__Eqt_meta_extradata_QFormInternal__QAbstractFormBuilderGadget@@YAXXZ 0000000140001210 f   Qt5UiTools:moc_properties_p.obj
 0001:0000e2ec       $LN13                      000000014000f2ec     moc_MainToolbarPanel.obj
 0001:0000e41c       $LN21                      000000014000f41c     moc_MainToolbarPanel.obj
 0001:0000eeac       $LN13                      000000014000feac     moc_MyPanelBase.obj
 0001:0000f33c       $LN76                      000000014001033c     moc_MyWidget.obj
 0001:0000f788       $LN16                      0000000140010788     moc_TitleBar.obj
 0001:0000f8ec       $LN24                      00000001400108ec     moc_TitleBar.obj
 0001:0000f9a4       $LN63                      00000001400109a4     Qt5UiTools:moc_properties_p.obj
 0001:000100b0       $$000000                   00000001400110b0     MSVCRT:amdsecgs.obj
 0001:00010110       ?__scrt_initialize_thread_safe_statics@@YAHXZ 0000000140011110 f   MSVCRT:thread_safe_statics.obj
 0001:00010270       ?__scrt_uninitialize_thread_safe_statics@@YAXXZ 0000000140011270 f   MSVCRT:thread_safe_statics.obj
 0001:00010758       ?pre_c_initialization@@YAHXZ 0000000140011758 f   MSVCRT:exe_winmain.obj
 0001:00010810       ?post_pgo_initialization@@YAHXZ 0000000140011810 f   MSVCRT:exe_winmain.obj
 0001:00010820       ?pre_cpp_initialization@@YAXXZ 0000000140011820 f   MSVCRT:exe_winmain.obj
 0001:0001083c       ?__scrt_common_main_seh@@YAHXZ 000000014001183c f   MSVCRT:exe_winmain.obj
 0001:00010c78       capture_previous_context   0000000140011c78 f   MSVCRT:gs_report.obj
 0001:000114e0       $$000000                   00000001400124e0     MSVCRT:guard_dispatch.obj
 0001:00011500       ?catch$0@?0???$_Buynode@U?$pair@W4PANEL_TYPE@ComparePage@@PEAVMyPanelBase@@@std@@@?$_Tree_comp_alloc@V?$_Tmap_traits@HPEAVMyPanelBase@@U?$less@H@std@@V?$allocator@U?$pair@$$CBHPEAVMyPanelBase@@@std@@@3@$0A@@std@@@std@@QEAAPEAU?$_Tree_node@U?$pair@$$CBHPEAVMyPanelBase@@@std@@PEAX@1@$$QEAU?$pair@W4PANEL_TYPE@ComparePage@@PEAVMyPanelBase@@@1@@Z@4HA 0000000140012500 f   ComparePage.obj
 0001:00011500       ?catch$0@?0???$_Buynode@U?$pair@W4PAGE_TYPE@AppMainWnd@@PEAVMyPanelBase@@@std@@@?$_Tree_comp_alloc@V?$_Tmap_traits@HPEAVMyPanelBase@@U?$less@H@std@@V?$allocator@U?$pair@$$CBHPEAVMyPanelBase@@@std@@@3@$0A@@std@@@std@@QEAAPEAU?$_Tree_node@U?$pair@$$CBHPEAVMyPanelBase@@@std@@PEAX@1@$$QEAU?$pair@W4PAGE_TYPE@AppMainWnd@@PEAVMyPanelBase@@@1@@Z@4HA 0000000140012500 f   AppMainWnd.obj
 0001:0001150d       __catch$??$_Buynode@U?$pair@W4PAGE_TYPE@AppMainWnd@@PEAVMyPanelBase@@@std@@@?$_Tree_comp_alloc@V?$_Tmap_traits@HPEAVMyPanelBase@@U?$less@H@std@@V?$allocator@U?$pair@$$CBHPEAVMyPanelBase@@@std@@@3@$0A@@std@@@std@@QEAAPEAU?$_Tree_node@U?$pair@$$CBHPEAVMyPanelBase@@@std@@PEAX@1@$$QEAU?$pair@W4PAGE_TYPE@AppMainWnd@@PEAVMyPanelBase@@@1@@Z$0 000000014001250d f   AppMainWnd.obj
 0001:0001150d       __catch$??$_Buynode@U?$pair@W4PANEL_TYPE@ComparePage@@PEAVMyPanelBase@@@std@@@?$_Tree_comp_alloc@V?$_Tmap_traits@HPEAVMyPanelBase@@U?$less@H@std@@V?$allocator@U?$pair@$$CBHPEAVMyPanelBase@@@std@@@3@$0A@@std@@@std@@QEAAPEAU?$_Tree_node@U?$pair@$$CBHPEAVMyPanelBase@@@std@@PEAX@1@$$QEAU?$pair@W4PANEL_TYPE@ComparePage@@PEAVMyPanelBase@@@1@@Z$0 000000014001250d f   ComparePage.obj
 0001:00011530       ?catch$0@?0???$_Insert_nohint@AEAU?$pair@$$CBHPEAVMyPanelBase@@@std@@PEAU?$_Tree_node@U?$pair@$$CBHPEAVMyPanelBase@@@std@@PEAX@2@@?$_Tree@V?$_Tmap_traits@HPEAVMyPanelBase@@U?$less@H@std@@V?$allocator@U?$pair@$$CBHPEAVMyPanelBase@@@std@@@3@$0A@@std@@@std@@IEAA?AU?$pair@V?$_Tree_iterator@V?$_Tree_val@U?$_Tree_simple_types@U?$pair@$$CBHPEAVMyPanelBase@@@std@@@std@@@std@@@std@@_N@1@_NAEAU?$pair@$$CBHPEAVMyPanelBase@@@1@PEAU?$_Tree_node@U?$pair@$$CBHPEAVMyPanelBase@@@std@@PEAX@1@@Z@4HA 0000000140012530 f   AppMainWnd.obj
 0001:0001153d       __catch$??$_Insert_nohint@AEAU?$pair@$$CBHPEAVMyPanelBase@@@std@@PEAU?$_Tree_node@U?$pair@$$CBHPEAVMyPanelBase@@@std@@PEAX@2@@?$_Tree@V?$_Tmap_traits@HPEAVMyPanelBase@@U?$less@H@std@@V?$allocator@U?$pair@$$CBHPEAVMyPanelBase@@@std@@@3@$0A@@std@@@std@@IEAA?AU?$pair@V?$_Tree_iterator@V?$_Tree_val@U?$_Tree_simple_types@U?$pair@$$CBHPEAVMyPanelBase@@@std@@@std@@@std@@@std@@_N@1@_NAEAU?$pair@$$CBHPEAVMyPanelBase@@@1@PEAU?$_Tree_node@U?$pair@$$CBHPEAVMyPanelBase@@@std@@PEAX@1@@Z$0 000000014001253d f   AppMainWnd.obj
 0001:00011560       ?catch$0@?0???0?$QList@VQString@@@@QEAA@AEBV0@@Z@4HA 0000000140012560 f   AppMainWnd.obj
 0001:0001156d       __catch$??0?$QList@VQString@@@@QEAA@AEBV0@@Z$0 000000014001256d f   AppMainWnd.obj
 0001:00011590       ?dtor$0@?0???0AppMainWnd@@QEAA@PEAVQWidget@@@Z@4HA 0000000140012590 f   AppMainWnd.obj
 0001:000115a0       ?dtor$1@?0???0AppMainWnd@@QEAA@PEAVQWidget@@@Z@4HA 00000001400125a0 f   AppMainWnd.obj
 0001:000115c0       ?dtor$2@?0???0AppMainWnd@@QEAA@PEAVQWidget@@@Z@4HA 00000001400125c0 f   AppMainWnd.obj
 0001:000115e0       ?dtor$4@?0??GetAppName@IniSetting@@SA?AVQString@@W4SETTING_TYPE@1@@Z@4HA 00000001400125e0 f   IniSetting.obj
 0001:000115e0       ?dtor$11@?0??Init@MainToolbarPanel@@UEAAXXZ@4HA 00000001400125e0 f   MainToolbarPanel.obj
 0001:000115e0       ?dtor$5@?0??OpenFileDialog@FileBrowser@@QEAAXXZ@4HA 00000001400125e0 f   FileBrowser.obj
 0001:000115e0       ?dtor$2@?0??GetLastInputPath@IniSetting@@SA?AVQString@@PEBD@Z@4HA 00000001400125e0 f   IniSetting.obj
 0001:000115e0       ?dtor$3@?0???0AppMainWnd@@QEAA@PEAVQWidget@@@Z@4HA 00000001400125e0 f   AppMainWnd.obj
 0001:000115e0       ?dtor$55@?0??setupUi@Ui_home_root@@QEAAXPEAVQWidget@@@Z@4HA 00000001400125e0 f   HomePage.obj
 0001:000115e0       ?dtor$4@?0??GetLastInputPath@IniSetting@@SA?AVQString@@PEBD@Z@4HA 00000001400125e0 f   IniSetting.obj
 0001:000115e0       ?dtor$2@?0??GetAppName@IniSetting@@SA?AVQString@@W4SETTING_TYPE@1@@Z@4HA 00000001400125e0 f   IniSetting.obj
 0001:000115f0       ?dtor$4@?0???0AppMainWnd@@QEAA@PEAVQWidget@@@Z@4HA 00000001400125f0 f   AppMainWnd.obj
 0001:00011600       ?dtor$5@?0???0AppMainWnd@@QEAA@PEAVQWidget@@@Z@4HA 0000000140012600 f   AppMainWnd.obj
 0001:00011620       ?dtor$0@?0???H@YA?BVQString@@AEBV0@PEBD@Z@4HA 0000000140012620 f   AppMainWnd.obj
 0001:00011650       ?dtor$6@?0??Init@TitleBar@@UEAAXXZ@4HA 0000000140012650 f   TitleBar.obj
 0001:00011650       ?dtor$19@?0??OpenFileDialog@FileBrowser@@QEAAXXZ@4HA 0000000140012650 f   FileBrowser.obj
 0001:00011650       ?dtor$1@?0???H@YA?BVQString@@AEBV0@PEBD@Z@4HA 0000000140012650 f   AppMainWnd.obj
 0001:00011660       ?dtor$0@?0??ActivePage@AppMainWnd@@QEAAXW4PAGE_TYPE@1@_N@Z@4HA 0000000140012660 f   AppMainWnd.obj
 0001:00011680       ?dtor$1@?0??ActivePage@AppMainWnd@@QEAAXW4PAGE_TYPE@1@_N@Z@4HA 0000000140012680 f   AppMainWnd.obj
 0001:000116a0       ?dtor$0@?0??DoBatchFileConvert@AppMainWnd@@QEAAXXZ@4HA 00000001400126a0 f   AppMainWnd.obj
 0001:000116b0       ?dtor$7@?0??setupUi@Ui_maintoolbar_root@@QEAAXPEAVQWidget@@@Z@4HA 00000001400126b0 f   MainToolbarPanel.obj
 0001:000116b0       ?dtor$1@?0??DoBatchFileConvert@AppMainWnd@@QEAAXXZ@4HA 00000001400126b0 f   AppMainWnd.obj
 0001:000116b0       ?dtor$34@?0??setupUi@Ui_Dialog_setting@@QEAAXPEAVQDialog@@@Z@4HA 00000001400126b0 f   DlgHelp.obj
 0001:000116b0       ?dtor$6@?0??setupUi@Ui_maintoolbar_root@@QEAAXPEAVQWidget@@@Z@4HA 00000001400126b0 f   MainToolbarPanel.obj
 0001:000116b0       ?dtor$4@?0??setupUi@Ui_maintoolbar_root@@QEAAXPEAVQWidget@@@Z@4HA 00000001400126b0 f   MainToolbarPanel.obj
 0001:000116b0       ?dtor$35@?0??setupUi@Ui_Dialog_setting@@QEAAXPEAVQDialog@@@Z@4HA 00000001400126b0 f   DlgHelp.obj
 0001:000116b0       ?dtor$42@?0??setupUi@Ui_maintoolbar_root@@QEAAXPEAVQWidget@@@Z@4HA 00000001400126b0 f   MainToolbarPanel.obj
 0001:000116b0       ?dtor$13@?0??setupUi@Ui_Dialog_setting@@QEAAXPEAVQDialog@@@Z@4HA 00000001400126b0 f   DlgHelp.obj
 0001:000116b0       ?dtor$41@?0??setupUi@Ui_maintoolbar_root@@QEAAXPEAVQWidget@@@Z@4HA 00000001400126b0 f   MainToolbarPanel.obj
 0001:000116b0       ?dtor$39@?0??setupUi@Ui_maintoolbar_root@@QEAAXPEAVQWidget@@@Z@4HA 00000001400126b0 f   MainToolbarPanel.obj
 0001:000116b0       ?dtor$9@?0??setupUi@Ui_Dialog_setting@@QEAAXPEAVQDialog@@@Z@4HA 00000001400126b0 f   DlgHelp.obj
 0001:000116b0       ?dtor$37@?0??setupUi@Ui_maintoolbar_root@@QEAAXPEAVQWidget@@@Z@4HA 00000001400126b0 f   MainToolbarPanel.obj
 0001:000116b0       ?dtor$36@?0??setupUi@Ui_maintoolbar_root@@QEAAXPEAVQWidget@@@Z@4HA 00000001400126b0 f   MainToolbarPanel.obj
 0001:000116b0       ?dtor$33@?0??setupUi@Ui_Dialog_setting@@QEAAXPEAVQDialog@@@Z@4HA 00000001400126b0 f   DlgHelp.obj
 0001:000116b0       ?dtor$34@?0??setupUi@Ui_maintoolbar_root@@QEAAXPEAVQWidget@@@Z@4HA 00000001400126b0 f   MainToolbarPanel.obj
 0001:000116b0       ?dtor$33@?0??setupUi@Ui_maintoolbar_root@@QEAAXPEAVQWidget@@@Z@4HA 00000001400126b0 f   MainToolbarPanel.obj
 0001:000116b0       ?dtor$31@?0??setupUi@Ui_Dialog_setting@@QEAAXPEAVQDialog@@@Z@4HA 00000001400126b0 f   DlgHelp.obj
 0001:000116b0       ?dtor$6@?0??setupUi@Ui_Dialog_setting@@QEAAXPEAVQDialog@@@Z@4HA 00000001400126b0 f   DlgHelp.obj
 0001:000116b0       ?dtor$31@?0??setupUi@Ui_maintoolbar_root@@QEAAXPEAVQWidget@@@Z@4HA 00000001400126b0 f   MainToolbarPanel.obj
 0001:000116b0       ?dtor$30@?0??setupUi@Ui_maintoolbar_root@@QEAAXPEAVQWidget@@@Z@4HA 00000001400126b0 f   MainToolbarPanel.obj
 0001:000116b0       ?dtor$2@?0??setupUi@Ui_maintoolbar_root@@QEAAXPEAVQWidget@@@Z@4HA 00000001400126b0 f   MainToolbarPanel.obj
 0001:000116b0       ?dtor$28@?0??setupUi@Ui_maintoolbar_root@@QEAAXPEAVQWidget@@@Z@4HA 00000001400126b0 f   MainToolbarPanel.obj
 0001:000116b0       ?dtor$4@?0??setupUi@Ui_Dialog_setting@@QEAAXPEAVQDialog@@@Z@4HA 00000001400126b0 f   DlgHelp.obj
 0001:000116b0       ?dtor$9@?0??setupUi@Ui_maintoolbar_root@@QEAAXPEAVQWidget@@@Z@4HA 00000001400126b0 f   MainToolbarPanel.obj
 0001:000116b0       ?dtor$2@?0??setupUi@Ui_Dialog_setting@@QEAAXPEAVQDialog@@@Z@4HA 00000001400126b0 f   DlgHelp.obj
 0001:000116b0       ?dtor$25@?0??setupUi@Ui_maintoolbar_root@@QEAAXPEAVQWidget@@@Z@4HA 00000001400126b0 f   MainToolbarPanel.obj
 0001:000116b0       ?dtor$24@?0??setupUi@Ui_maintoolbar_root@@QEAAXPEAVQWidget@@@Z@4HA 00000001400126b0 f   MainToolbarPanel.obj
 0001:000116b0       ?dtor$29@?0??setupUi@Ui_Dialog_setting@@QEAAXPEAVQDialog@@@Z@4HA 00000001400126b0 f   DlgHelp.obj
 0001:000116b0       ?dtor$22@?0??setupUi@Ui_maintoolbar_root@@QEAAXPEAVQWidget@@@Z@4HA 00000001400126b0 f   MainToolbarPanel.obj
 0001:000116b0       ?dtor$21@?0??setupUi@Ui_maintoolbar_root@@QEAAXPEAVQWidget@@@Z@4HA 00000001400126b0 f   MainToolbarPanel.obj
 0001:000116b0       ?dtor$27@?0??setupUi@Ui_Dialog_setting@@QEAAXPEAVQDialog@@@Z@4HA 00000001400126b0 f   DlgHelp.obj
 0001:000116b0       ?dtor$1@?0??setupUi@Ui_maintoolbar_root@@QEAAXPEAVQWidget@@@Z@4HA 00000001400126b0 f   MainToolbarPanel.obj
 0001:000116b0       ?dtor$19@?0??setupUi@Ui_maintoolbar_root@@QEAAXPEAVQWidget@@@Z@4HA 00000001400126b0 f   MainToolbarPanel.obj
 0001:000116b0       ?dtor$17@?0??setupUi@Ui_maintoolbar_root@@QEAAXPEAVQWidget@@@Z@4HA 00000001400126b0 f   MainToolbarPanel.obj
 0001:000116b0       ?dtor$25@?0??setupUi@Ui_Dialog_setting@@QEAAXPEAVQDialog@@@Z@4HA 00000001400126b0 f   DlgHelp.obj
 0001:000116b0       ?dtor$24@?0??setupUi@Ui_Dialog_setting@@QEAAXPEAVQDialog@@@Z@4HA 00000001400126b0 f   DlgHelp.obj
 0001:000116b0       ?dtor$22@?0??setupUi@Ui_Dialog_setting@@QEAAXPEAVQDialog@@@Z@4HA 00000001400126b0 f   DlgHelp.obj
 0001:000116b0       ?dtor$14@?0??setupUi@Ui_maintoolbar_root@@QEAAXPEAVQWidget@@@Z@4HA 00000001400126b0 f   MainToolbarPanel.obj
 0001:000116b0       ?dtor$13@?0??setupUi@Ui_maintoolbar_root@@QEAAXPEAVQWidget@@@Z@4HA 00000001400126b0 f   MainToolbarPanel.obj
 0001:000116b0       ?dtor$20@?0??setupUi@Ui_Dialog_setting@@QEAAXPEAVQDialog@@@Z@4HA 00000001400126b0 f   DlgHelp.obj
 0001:000116b0       ?dtor$1@?0??setupUi@Ui_Dialog_setting@@QEAAXPEAVQDialog@@@Z@4HA 00000001400126b0 f   DlgHelp.obj
 0001:000116b0       ?dtor$11@?0??setupUi@Ui_maintoolbar_root@@QEAAXPEAVQWidget@@@Z@4HA 00000001400126b0 f   MainToolbarPanel.obj
 0001:000116b0       ?dtor$19@?0??setupUi@Ui_Dialog_setting@@QEAAXPEAVQDialog@@@Z@4HA 00000001400126b0 f   DlgHelp.obj
 0001:000116b0       ?dtor$0@?0??dragEnterEvent@AppMainWnd@@MEAAXPEAVQDragEnterEvent@@@Z@4HA 00000001400126b0 f   AppMainWnd.obj
 0001:000116b0       ?dtor$17@?0??setupUi@Ui_Dialog_setting@@QEAAXPEAVQDialog@@@Z@4HA 00000001400126b0 f   DlgHelp.obj
 0001:000116b0       ?dtor$16@?0??setupUi@Ui_Dialog_setting@@QEAAXPEAVQDialog@@@Z@4HA 00000001400126b0 f   DlgHelp.obj
 0001:000116b0       ?dtor$14@?0??setupUi@Ui_Dialog_setting@@QEAAXPEAVQDialog@@@Z@4HA 00000001400126b0 f   DlgHelp.obj
 0001:000116b0       ?dtor$11@?0??setupUi@Ui_Dialog_setting@@QEAAXPEAVQDialog@@@Z@4HA 00000001400126b0 f   DlgHelp.obj
 0001:000116b0       ?dtor$7@?0??setupUi@Ui_Dialog_setting@@QEAAXPEAVQDialog@@@Z@4HA 00000001400126b0 f   DlgHelp.obj
 0001:000116b0       ?dtor$36@?0??setupUi@Ui_Dialog_setting@@QEAAXPEAVQDialog@@@Z@4HA 00000001400126b0 f   DlgHelp.obj
 0001:000116b0       ?dtor$37@?0??setupUi@Ui_Dialog_setting@@QEAAXPEAVQDialog@@@Z@4HA 00000001400126b0 f   DlgHelp.obj
 0001:000116b0       ?dtor$17@?0??OpenFileDialog@FileBrowser@@QEAAXXZ@4HA 00000001400126b0 f   FileBrowser.obj
 0001:000116b0       ?dtor$27@?0??setupUi@Ui_maintoolbar_root@@QEAAXPEAVQWidget@@@Z@4HA 00000001400126b0 f   MainToolbarPanel.obj
 0001:000116b0       ?dtor$38@?0??setupUi@Ui_Dialog_setting@@QEAAXPEAVQDialog@@@Z@4HA 00000001400126b0 f   DlgHelp.obj
 0001:000116b0       ?dtor$39@?0??setupUi@Ui_Dialog_setting@@QEAAXPEAVQDialog@@@Z@4HA 00000001400126b0 f   DlgHelp.obj
 0001:000116b0       ?dtor$1@?0??setupUi@Ui_home_root@@QEAAXPEAVQWidget@@@Z@4HA 00000001400126b0 f   HomePage.obj
 0001:000116c0       ?dtor$11@?0??GetVideoExtFilter@IniSetting@@SA?AVQString@@W4SETTING_TYPE@1@@Z@4HA 00000001400126c0 f   IniSetting.obj
 0001:000116c0       ?dtor$11@?0??GetUserConfigFile@IniSetting@@CA?AVQString@@PEBD@Z@4HA 00000001400126c0 f   IniSetting.obj
 0001:000116c0       ?dtor$11@?0??GetImageExtFilter@IniSetting@@SA?AVQString@@W4SETTING_TYPE@1@@Z@4HA 00000001400126c0 f   IniSetting.obj
 0001:000116c0       ?dtor$7@?0??GetUserConfigFile@IniSetting@@CA?AVQString@@PEBD@Z@4HA 00000001400126c0 f   IniSetting.obj
 0001:000116c0       ?dtor$9@?0??GetUserConfigFile@IniSetting@@CA?AVQString@@PEBD@Z@4HA 00000001400126c0 f   IniSetting.obj
 0001:000116c0       ?dtor$2@?0??DoBatchFileConvert@AppMainWnd@@QEAAXXZ@4HA 00000001400126c0 f   AppMainWnd.obj
 0001:000116c0       ?dtor$10@?0??setupUi@Ui_titlebar_root@@QEAAXPEAVQWidget@@@Z@4HA 00000001400126c0 f   TitleBar.obj
 0001:000116c0       ?dtor$13@?0??setupUi@Ui_titlebar_root@@QEAAXPEAVQWidget@@@Z@4HA 00000001400126c0 f   TitleBar.obj
 0001:000116c0       ?dtor$15@?0??setupUi@Ui_titlebar_root@@QEAAXPEAVQWidget@@@Z@4HA 00000001400126c0 f   TitleBar.obj
 0001:000116c0       ?dtor$17@?0??setupUi@Ui_titlebar_root@@QEAAXPEAVQWidget@@@Z@4HA 00000001400126c0 f   TitleBar.obj
 0001:000116c0       ?dtor$18@?0??setupUi@Ui_titlebar_root@@QEAAXPEAVQWidget@@@Z@4HA 00000001400126c0 f   TitleBar.obj
 0001:000116c0       ?dtor$1@?0??setupUi@Ui_titlebar_root@@QEAAXPEAVQWidget@@@Z@4HA 00000001400126c0 f   TitleBar.obj
 0001:000116c0       ?dtor$20@?0??setupUi@Ui_titlebar_root@@QEAAXPEAVQWidget@@@Z@4HA 00000001400126c0 f   TitleBar.obj
 0001:000116c0       ?dtor$21@?0??setupUi@Ui_titlebar_root@@QEAAXPEAVQWidget@@@Z@4HA 00000001400126c0 f   TitleBar.obj
 0001:000116c0       ?dtor$23@?0??setupUi@Ui_titlebar_root@@QEAAXPEAVQWidget@@@Z@4HA 00000001400126c0 f   TitleBar.obj
 0001:000116c0       ?dtor$24@?0??setupUi@Ui_titlebar_root@@QEAAXPEAVQWidget@@@Z@4HA 00000001400126c0 f   TitleBar.obj
 0001:000116c0       ?dtor$2@?0??setupUi@Ui_titlebar_root@@QEAAXPEAVQWidget@@@Z@4HA 00000001400126c0 f   TitleBar.obj
 0001:000116c0       ?dtor$4@?0??setupUi@Ui_titlebar_root@@QEAAXPEAVQWidget@@@Z@4HA 00000001400126c0 f   TitleBar.obj
 0001:000116c0       ?dtor$7@?0??setupUi@Ui_titlebar_root@@QEAAXPEAVQWidget@@@Z@4HA 00000001400126c0 f   TitleBar.obj
 0001:000116c0       ?dtor$9@?0??setupUi@Ui_titlebar_root@@QEAAXPEAVQWidget@@@Z@4HA 00000001400126c0 f   TitleBar.obj
 0001:000116d0       ?dtor$2@?0??setupUi@Ui_home_root@@QEAAXPEAVQWidget@@@Z@4HA 00000001400126d0 f   HomePage.obj
 0001:000116d0       ?dtor$7@?0??setupUi@Ui_compare_root@@QEAAXPEAVQWidget@@@Z@4HA 00000001400126d0 f   CompareViewPanel.obj
 0001:000116d0       ?dtor$9@?0??setupUi@Ui_compare_root@@QEAAXPEAVQWidget@@@Z@4HA 00000001400126d0 f   CompareViewPanel.obj
 0001:000116d0       ?dtor$23@?0??setupUi@Ui_home_root@@QEAAXPEAVQWidget@@@Z@4HA 00000001400126d0 f   HomePage.obj
 0001:000116d0       ?dtor$21@?0??setupUi@Ui_home_root@@QEAAXPEAVQWidget@@@Z@4HA 00000001400126d0 f   HomePage.obj
 0001:000116d0       ?dtor$20@?0??setupUi@Ui_home_root@@QEAAXPEAVQWidget@@@Z@4HA 00000001400126d0 f   HomePage.obj
 0001:000116d0       ?dtor$5@?0??setupUi@Ui_compare_root@@QEAAXPEAVQWidget@@@Z@4HA 00000001400126d0 f   CompareViewPanel.obj
 0001:000116d0       ?dtor$8@?0??setupUi@Ui_home_root@@QEAAXPEAVQWidget@@@Z@4HA 00000001400126d0 f   HomePage.obj
 0001:000116d0       ?dtor$29@?0??setupUi@Ui_home_root@@QEAAXPEAVQWidget@@@Z@4HA 00000001400126d0 f   HomePage.obj
 0001:000116d0       ?dtor$17@?0??setupUi@Ui_home_root@@QEAAXPEAVQWidget@@@Z@4HA 00000001400126d0 f   HomePage.obj
 0001:000116d0       ?dtor$3@?0??setupUi@Ui_compare_root@@QEAAXPEAVQWidget@@@Z@4HA 00000001400126d0 f   CompareViewPanel.obj
 0001:000116d0       ?dtor$16@?0??setupUi@Ui_home_root@@QEAAXPEAVQWidget@@@Z@4HA 00000001400126d0 f   HomePage.obj
 0001:000116d0       ?dtor$14@?0??setupUi@Ui_home_root@@QEAAXPEAVQWidget@@@Z@4HA 00000001400126d0 f   HomePage.obj
 0001:000116d0       ?dtor$30@?0??setupUi@Ui_home_root@@QEAAXPEAVQWidget@@@Z@4HA 00000001400126d0 f   HomePage.obj
 0001:000116d0       ?dtor$13@?0??setupUi@Ui_home_root@@QEAAXPEAVQWidget@@@Z@4HA 00000001400126d0 f   HomePage.obj
 0001:000116d0       ?dtor$11@?0??setupUi@Ui_home_root@@QEAAXPEAVQWidget@@@Z@4HA 00000001400126d0 f   HomePage.obj
 0001:000116d0       ?dtor$6@?0??setupUi@Ui_home_root@@QEAAXPEAVQWidget@@@Z@4HA 00000001400126d0 f   HomePage.obj
 0001:000116d0       ?dtor$0@?0??UpdateTitleBar@TitleBar@@QEAAXXZ@4HA 00000001400126d0 f   TitleBar.obj
 0001:000116d0       ?dtor$43@?0??setupUi@Ui_home_root@@QEAAXPEAVQWidget@@@Z@4HA 00000001400126d0 f   HomePage.obj
 0001:000116d0       ?dtor$32@?0??setupUi@Ui_home_root@@QEAAXPEAVQWidget@@@Z@4HA 00000001400126d0 f   HomePage.obj
 0001:000116d0       ?dtor$33@?0??setupUi@Ui_home_root@@QEAAXPEAVQWidget@@@Z@4HA 00000001400126d0 f   HomePage.obj
 0001:000116d0       ?dtor$13@?0??setupUi@Ui_compare_root@@QEAAXPEAVQWidget@@@Z@4HA 00000001400126d0 f   CompareViewPanel.obj
 0001:000116d0       ?dtor$11@?0??setupUi@Ui_compare_root@@QEAAXPEAVQWidget@@@Z@4HA 00000001400126d0 f   CompareViewPanel.obj
 0001:000116d0       ?dtor$17@?0??setupUi@Ui_compare_root@@QEAAXPEAVQWidget@@@Z@4HA 00000001400126d0 f   CompareViewPanel.obj
 0001:000116d0       ?dtor$35@?0??setupUi@Ui_home_root@@QEAAXPEAVQWidget@@@Z@4HA 00000001400126d0 f   HomePage.obj
 0001:000116d0       ?dtor$4@?0??setupUi@Ui_home_root@@QEAAXPEAVQWidget@@@Z@4HA 00000001400126d0 f   HomePage.obj
 0001:000116d0       ?dtor$1@?0??UpdateTitleBar@TitleBar@@QEAAXXZ@4HA 00000001400126d0 f   TitleBar.obj
 0001:000116d0       ?dtor$23@?0??setupUi@Ui_compare_root@@QEAAXPEAVQWidget@@@Z@4HA 00000001400126d0 f   CompareViewPanel.obj
 0001:000116d0       ?dtor$50@?0??setupUi@Ui_home_root@@QEAAXPEAVQWidget@@@Z@4HA 00000001400126d0 f   HomePage.obj
 0001:000116d0       ?dtor$22@?0??setupUi@Ui_compare_root@@QEAAXPEAVQWidget@@@Z@4HA 00000001400126d0 f   CompareViewPanel.obj
 0001:000116d0       ?dtor$21@?0??setupUi@Ui_compare_root@@QEAAXPEAVQWidget@@@Z@4HA 00000001400126d0 f   CompareViewPanel.obj
 0001:000116d0       ?dtor$20@?0??setupUi@Ui_compare_root@@QEAAXPEAVQWidget@@@Z@4HA 00000001400126d0 f   CompareViewPanel.obj
 0001:000116d0       ?dtor$37@?0??setupUi@Ui_home_root@@QEAAXPEAVQWidget@@@Z@4HA 00000001400126d0 f   HomePage.obj
 0001:000116d0       ?dtor$39@?0??setupUi@Ui_home_root@@QEAAXPEAVQWidget@@@Z@4HA 00000001400126d0 f   HomePage.obj
 0001:000116d0       ?dtor$18@?0??setupUi@Ui_compare_root@@QEAAXPEAVQWidget@@@Z@4HA 00000001400126d0 f   CompareViewPanel.obj
 0001:000116d0       ?dtor$12@?0??OpenFileDialog@FileBrowser@@QEAAXXZ@4HA 00000001400126d0 f   FileBrowser.obj
 0001:000116d0       ?dtor$1@?0??setupUi@Ui_compare_root@@QEAAXPEAVQWidget@@@Z@4HA 00000001400126d0 f   CompareViewPanel.obj
 0001:000116d0       ?dtor$41@?0??setupUi@Ui_home_root@@QEAAXPEAVQWidget@@@Z@4HA 00000001400126d0 f   HomePage.obj
 0001:000116d0       ?dtor$48@?0??setupUi@Ui_home_root@@QEAAXPEAVQWidget@@@Z@4HA 00000001400126d0 f   HomePage.obj
 0001:000116d0       ?dtor$53@?0??setupUi@Ui_home_root@@QEAAXPEAVQWidget@@@Z@4HA 00000001400126d0 f   HomePage.obj
 0001:000116d0       ?dtor$44@?0??setupUi@Ui_home_root@@QEAAXPEAVQWidget@@@Z@4HA 00000001400126d0 f   HomePage.obj
 0001:000116d0       ?dtor$19@?0??setupUi@Ui_compare_root@@QEAAXPEAVQWidget@@@Z@4HA 00000001400126d0 f   CompareViewPanel.obj
 0001:000116d0       ?dtor$3@?0??DoBatchFileConvert@AppMainWnd@@QEAAXXZ@4HA 00000001400126d0 f   AppMainWnd.obj
 0001:000116d0       ?dtor$52@?0??setupUi@Ui_home_root@@QEAAXPEAVQWidget@@@Z@4HA 00000001400126d0 f   HomePage.obj
 0001:000116d0       ?dtor$14@?0??setupUi@Ui_compare_root@@QEAAXPEAVQWidget@@@Z@4HA 00000001400126d0 f   CompareViewPanel.obj
 0001:000116e0       ?dtor$4@?0??DoBatchFileConvert@AppMainWnd@@QEAAXXZ@4HA 00000001400126e0 f   AppMainWnd.obj
 0001:000116f0       ?dtor$0@?0??GetVideoExtFilter@IniSetting@@SA?AVQString@@W4SETTING_TYPE@1@@Z@4HA 00000001400126f0 f   IniSetting.obj
 0001:000116f0       ?dtor$0@?0??GetFileListbyPath@CompareViewPanel@@AEAAXPEAD@Z@4HA 00000001400126f0 f   CompareViewPanel.obj
 0001:000116f0       ?dtor$7@?0??GetAppSetFile@IniSetting@@CA?AVQString@@W4SETTING_TYPE@1@@Z@4HA 00000001400126f0 f   IniSetting.obj
 0001:000116f0       ?dtor$1@?0??dropEvent@AppMainWnd@@MEAAXPEAVQDropEvent@@@Z@4HA 00000001400126f0 f   AppMainWnd.obj
 0001:000116f0       ?dtor$1@?0??DoFileConvert@AppMainWnd@@QEAAXXZ@4HA 00000001400126f0 f   AppMainWnd.obj
 0001:000116f0       ?dtor$5@?0??DoBatchFileConvert@AppMainWnd@@QEAAXXZ@4HA 00000001400126f0 f   AppMainWnd.obj
 0001:000116f0       ?dtor$5@?0??GetAppSetFile@IniSetting@@CA?AVQString@@W4SETTING_TYPE@1@@Z@4HA 00000001400126f0 f   IniSetting.obj
 0001:000116f0       ?dtor$0@?0??GetImageExtFilter@IniSetting@@SA?AVQString@@W4SETTING_TYPE@1@@Z@4HA 00000001400126f0 f   IniSetting.obj
 0001:00011700       ?dtor$6@?0??DoBatchFileConvert@AppMainWnd@@QEAAXXZ@4HA 0000000140012700 f   AppMainWnd.obj
 0001:00011700       main$dtor$1                0000000140012700 f   main.obj
 0001:00011710       ?dtor$7@?0??DoBatchFileConvert@AppMainWnd@@QEAAXXZ@4HA 0000000140012710 f   AppMainWnd.obj
 0001:00011720       ?dtor$8@?0??DoBatchFileConvert@AppMainWnd@@QEAAXXZ@4HA 0000000140012720 f   AppMainWnd.obj
 0001:00011730       ?dtor$9@?0??DoBatchFileConvert@AppMainWnd@@QEAAXXZ@4HA 0000000140012730 f   AppMainWnd.obj
 0001:00011740       ?dtor$0@?0??DoCmdOpenFiles@AppMainWnd@@QEAAXVQStringList@@@Z@4HA 0000000140012740 f   AppMainWnd.obj
 0001:00011750       ?dtor$0@?0??DoFileConvert@AppMainWnd@@QEAAXXZ@4HA 0000000140012750 f   AppMainWnd.obj
 0001:00011760       ?dtor$0@?0??DoDisplayFilebyIndex@CompareViewPanel@@AEAAXH@Z@4HA 0000000140012760 f   CompareViewPanel.obj
 0001:00011760       ?dtor$3@?0??dropEvent@AppMainWnd@@MEAAXPEAVQDropEvent@@@Z@4HA 0000000140012760 f   AppMainWnd.obj
 0001:00011760       ?dtor$1@?0??SetCompareFiles@CompareViewPanel@@QEAAXVQStringList@@_N@Z@4HA 0000000140012760 f   CompareViewPanel.obj
 0001:00011760       ?dtor$2@?0??DoFileConvert@AppMainWnd@@QEAAXXZ@4HA 0000000140012760 f   AppMainWnd.obj
 0001:00011770       ?dtor$3@?0??DoDisplayFilebyIndex@CompareViewPanel@@AEAAXH@Z@4HA 0000000140012770 f   CompareViewPanel.obj
 0001:00011770       ?dtor$3@?0??DoFileConvert@AppMainWnd@@QEAAXXZ@4HA 0000000140012770 f   AppMainWnd.obj
 0001:00011780       ?dtor$0@?0??InitUI@AppMainWnd@@QEAAXW4PAGE_TYPE@1@@Z@4HA 0000000140012780 f   AppMainWnd.obj
 0001:000117a0       ?dtor$0@?0??FileSelected@FileBrowser@@QEAAXVQStringList@@@Z@4HA 00000001400127a0 f   moc_FileBrowser.obj
 0001:000117a0       ?dtor$0@?0??SetCompareFiles@ComparePage@@QEAAXVQStringList@@_N@Z@4HA 00000001400127a0 f   ComparePage.obj
 0001:000117a0       ?dtor$0@?0??OnFileSelected@AppMainWnd@@AEAAXVQStringList@@@Z@4HA 00000001400127a0 f   AppMainWnd.obj
 0001:000117b0       ?catch$0@?0??_Buyheadnode@?$_Tree_comp_alloc@V?$_Tmap_traits@HPEAVMyPanelBase@@U?$less@H@std@@V?$allocator@U?$pair@$$CBHPEAVMyPanelBase@@@std@@@3@$0A@@std@@@std@@QEAAPEAU?$_Tree_node@U?$pair@$$CBHPEAVMyPanelBase@@@std@@PEAX@2@XZ@4HA 00000001400127b0 f   AppMainWnd.obj
 0001:000117bd       __catch$?_Buyheadnode@?$_Tree_comp_alloc@V?$_Tmap_traits@HPEAVMyPanelBase@@U?$less@H@std@@V?$allocator@U?$pair@$$CBHPEAVMyPanelBase@@@std@@@3@$0A@@std@@@std@@QEAAPEAU?$_Tree_node@U?$pair@$$CBHPEAVMyPanelBase@@@std@@PEAX@2@XZ$0 00000001400127bd f   AppMainWnd.obj
 0001:000117e0       ?catch$0@?0??_Buynode0@?$_Tree_comp_alloc@V?$_Tmap_traits@HPEAVMyPanelBase@@U?$less@H@std@@V?$allocator@U?$pair@$$CBHPEAVMyPanelBase@@@std@@@3@$0A@@std@@@std@@QEAAPEAU?$_Tree_node@U?$pair@$$CBHPEAVMyPanelBase@@@std@@PEAX@2@XZ@4HA 00000001400127e0 f   AppMainWnd.obj
 0001:000117ed       __catch$?_Buynode0@?$_Tree_comp_alloc@V?$_Tmap_traits@HPEAVMyPanelBase@@U?$less@H@std@@V?$allocator@U?$pair@$$CBHPEAVMyPanelBase@@@std@@@3@$0A@@std@@@std@@QEAAPEAU?$_Tree_node@U?$pair@$$CBHPEAVMyPanelBase@@@std@@PEAX@2@XZ$0 00000001400127ed f   AppMainWnd.obj
 0001:00011810       ?catch$0@?0??append@?$QList@VQString@@@@QEAAXAEBVQString@@@Z@4HA 0000000140012810 f   AppMainWnd.obj
 0001:0001181d       __catch$?append@?$QList@VQString@@@@QEAAXAEBVQString@@@Z$0 000000014001281d f   AppMainWnd.obj
 0001:00011831       ?catch$1@?0??append@?$QList@VQString@@@@QEAAXAEBVQString@@@Z@4HA 0000000140012831 f   AppMainWnd.obj
 0001:0001183e       __catch$?append@?$QList@VQString@@@@QEAAXAEBVQString@@@Z$4 000000014001283e f   AppMainWnd.obj
 0001:00011860       ?catch$0@?0??detach_helper@?$QList@VQUrl@@@@AEAAXH@Z@4HA 0000000140012860 f   AppMainWnd.obj
 0001:0001186e       __catch$?detach_helper@?$QList@VQUrl@@@@AEAAXH@Z$0 000000014001286e f   AppMainWnd.obj
 0001:00011890       ?catch$1@?0??detach_helper_grow@?$QList@VQString@@@@AEAAPEAUNode@1@HH@Z@4HA 0000000140012890 f   AppMainWnd.obj
 0001:0001189e       __catch$?detach_helper_grow@?$QList@VQString@@@@AEAAPEAUNode@1@HH@Z$0 000000014001289e f   AppMainWnd.obj
 0001:000118bc       ?catch$0@?0??detach_helper_grow@?$QList@VQString@@@@AEAAPEAUNode@1@HH@Z@4HA 00000001400128bc f   AppMainWnd.obj
 0001:000118cb       __catch$?detach_helper_grow@?$QList@VQString@@@@AEAAPEAUNode@1@HH@Z$2 00000001400128cb f   AppMainWnd.obj
 0001:00011920       ?dtor$0@?0??dropEvent@AppMainWnd@@MEAAXPEAVQDropEvent@@@Z@4HA 0000000140012920 f   AppMainWnd.obj
 0001:00011930       ?dtor$2@?0??dropEvent@AppMainWnd@@MEAAXPEAVQDropEvent@@@Z@4HA 0000000140012930 f   AppMainWnd.obj
 0001:00011940       ?catch$0@?0??node_copy@?$QList@VQString@@@@AEAAXPEAUNode@1@00@Z@4HA 0000000140012940 f   AppMainWnd.obj
 0001:0001194f       __catch$?node_copy@?$QList@VQString@@@@AEAAXPEAUNode@1@00@Z$2 000000014001294f f   AppMainWnd.obj
 0001:00011980       ?catch$1@?0??node_copy@?$QList@VQUrl@@@@AEAAXPEAUNode@1@00@Z@4HA 0000000140012980 f   AppMainWnd.obj
 0001:0001198f       __catch$?node_copy@?$QList@VQUrl@@@@AEAAXPEAUNode@1@00@Z$2 000000014001298f f   AppMainWnd.obj
 0001:000119c0       ?dtor$27@?0??setupUi@Ui_AppMainWndClass@@QEAAXPEAVQMainWindow@@@Z@4HA 00000001400129c0 f   AppMainWnd.obj
 0001:000119c0       ?dtor$1@?0??setupUi@Ui_AppMainWndClass@@QEAAXPEAVQMainWindow@@@Z@4HA 00000001400129c0 f   AppMainWnd.obj
 0001:000119c0       ?dtor$18@?0??setupUi@Ui_AppMainWndClass@@QEAAXPEAVQMainWindow@@@Z@4HA 00000001400129c0 f   AppMainWnd.obj
 0001:000119c0       ?dtor$3@?0??setupUi@Ui_AppMainWndClass@@QEAAXPEAVQMainWindow@@@Z@4HA 00000001400129c0 f   AppMainWnd.obj
 0001:000119c0       ?dtor$5@?0??setupUi@Ui_edit_root@@QEAAXPEAVQWidget@@@Z@4HA 00000001400129c0 f   ComparePage.obj
 0001:000119c0       ?dtor$9@?0??setupUi@Ui_AppMainWndClass@@QEAAXPEAVQMainWindow@@@Z@4HA 00000001400129c0 f   AppMainWnd.obj
 0001:000119c0       ?dtor$3@?0??setupUi@Ui_edit_root@@QEAAXPEAVQWidget@@@Z@4HA 00000001400129c0 f   ComparePage.obj
 0001:000119c0       ?dtor$11@?0??setupUi@Ui_edit_root@@QEAAXPEAVQWidget@@@Z@4HA 00000001400129c0 f   ComparePage.obj
 0001:000119c0       ?dtor$8@?0??setupUi@Ui_AppMainWndClass@@QEAAXPEAVQMainWindow@@@Z@4HA 00000001400129c0 f   AppMainWnd.obj
 0001:000119c0       ?dtor$15@?0??OpenFileDialog@FileBrowser@@QEAAXXZ@4HA 00000001400129c0 f   FileBrowser.obj
 0001:000119c0       ?dtor$12@?0??setupUi@Ui_edit_root@@QEAAXPEAVQWidget@@@Z@4HA 00000001400129c0 f   ComparePage.obj
 0001:000119c0       ?dtor$22@?0??setupUi@Ui_AppMainWndClass@@QEAAXPEAVQMainWindow@@@Z@4HA 00000001400129c0 f   AppMainWnd.obj
 0001:000119c0       ?dtor$16@?0??setupUi@Ui_AppMainWndClass@@QEAAXPEAVQMainWindow@@@Z@4HA 00000001400129c0 f   AppMainWnd.obj
 0001:000119c0       ?dtor$4@?0??setupUi@Ui_AppMainWndClass@@QEAAXPEAVQMainWindow@@@Z@4HA 00000001400129c0 f   AppMainWnd.obj
 0001:000119c0       ?dtor$15@?0??setupUi@Ui_AppMainWndClass@@QEAAXPEAVQMainWindow@@@Z@4HA 00000001400129c0 f   AppMainWnd.obj
 0001:000119c0       ?dtor$9@?0??setupUi@Ui_edit_root@@QEAAXPEAVQWidget@@@Z@4HA 00000001400129c0 f   ComparePage.obj
 0001:000119c0       ?dtor$1@?0??setupUi@Ui_edit_root@@QEAAXPEAVQWidget@@@Z@4HA 00000001400129c0 f   ComparePage.obj
 0001:000119c0       ?dtor$6@?0??setupUi@Ui_AppMainWndClass@@QEAAXPEAVQMainWindow@@@Z@4HA 00000001400129c0 f   AppMainWnd.obj
 0001:000119c0       ?dtor$24@?0??setupUi@Ui_AppMainWndClass@@QEAAXPEAVQMainWindow@@@Z@4HA 00000001400129c0 f   AppMainWnd.obj
 0001:000119c0       ?dtor$13@?0??setupUi@Ui_AppMainWndClass@@QEAAXPEAVQMainWindow@@@Z@4HA 00000001400129c0 f   AppMainWnd.obj
 0001:000119c0       ?dtor$11@?0??setupUi@Ui_AppMainWndClass@@QEAAXPEAVQMainWindow@@@Z@4HA 00000001400129c0 f   AppMainWnd.obj
 0001:000119c0       ?dtor$7@?0??setupUi@Ui_edit_root@@QEAAXPEAVQWidget@@@Z@4HA 00000001400129c0 f   ComparePage.obj
 0001:000119c0       ?dtor$26@?0??setupUi@Ui_AppMainWndClass@@QEAAXPEAVQMainWindow@@@Z@4HA 00000001400129c0 f   AppMainWnd.obj
 0001:000119c0       ?dtor$20@?0??setupUi@Ui_AppMainWndClass@@QEAAXPEAVQMainWindow@@@Z@4HA 00000001400129c0 f   AppMainWnd.obj
 0001:000119d0       ?dtor$12@?0??setupUi@Ui_AppMainWndClass@@QEAAXPEAVQMainWindow@@@Z@4HA 00000001400129d0 f   AppMainWnd.obj
 0001:000119d0       ?dtor$2@?0??setupUi@Ui_AppMainWndClass@@QEAAXPEAVQMainWindow@@@Z@4HA 00000001400129d0 f   AppMainWnd.obj
 0001:000119d0       ?dtor$4@?0??setupUi@Ui_edit_root@@QEAAXPEAVQWidget@@@Z@4HA 00000001400129d0 f   ComparePage.obj
 0001:000119d0       ?dtor$14@?0??setupUi@Ui_AppMainWndClass@@QEAAXPEAVQMainWindow@@@Z@4HA 00000001400129d0 f   AppMainWnd.obj
 0001:000119d0       ?dtor$19@?0??setupUi@Ui_AppMainWndClass@@QEAAXPEAVQMainWindow@@@Z@4HA 00000001400129d0 f   AppMainWnd.obj
 0001:000119d0       ?dtor$23@?0??setupUi@Ui_AppMainWndClass@@QEAAXPEAVQMainWindow@@@Z@4HA 00000001400129d0 f   AppMainWnd.obj
 0001:000119d0       ?dtor$7@?0??setupUi@Ui_AppMainWndClass@@QEAAXPEAVQMainWindow@@@Z@4HA 00000001400129d0 f   AppMainWnd.obj
 0001:000119d0       ?dtor$8@?0??setupUi@Ui_edit_root@@QEAAXPEAVQWidget@@@Z@4HA 00000001400129d0 f   ComparePage.obj
 0001:000119f0       ?dtor$17@?0??setupUi@Ui_AppMainWndClass@@QEAAXPEAVQMainWindow@@@Z@4HA 00000001400129f0 f   AppMainWnd.obj
 0001:000119f0       ?dtor$10@?0??setupUi@Ui_edit_root@@QEAAXPEAVQWidget@@@Z@4HA 00000001400129f0 f   ComparePage.obj
 0001:000119f0       ?dtor$10@?0??setupUi@Ui_AppMainWndClass@@QEAAXPEAVQMainWindow@@@Z@4HA 00000001400129f0 f   AppMainWnd.obj
 0001:000119f0       ?dtor$5@?0??setupUi@Ui_AppMainWndClass@@QEAAXPEAVQMainWindow@@@Z@4HA 00000001400129f0 f   AppMainWnd.obj
 0001:000119f0       ?dtor$2@?0??setupUi@Ui_edit_root@@QEAAXPEAVQWidget@@@Z@4HA 00000001400129f0 f   ComparePage.obj
 0001:000119f0       ?dtor$25@?0??setupUi@Ui_AppMainWndClass@@QEAAXPEAVQMainWindow@@@Z@4HA 00000001400129f0 f   AppMainWnd.obj
 0001:000119f0       ?dtor$6@?0??setupUi@Ui_edit_root@@QEAAXPEAVQWidget@@@Z@4HA 00000001400129f0 f   ComparePage.obj
 0001:000119f0       ?dtor$21@?0??setupUi@Ui_AppMainWndClass@@QEAAXPEAVQMainWindow@@@Z@4HA 00000001400129f0 f   AppMainWnd.obj
 0001:00011a10       ?dtor$0@?0???0DlgAbout@@QEAA@PEAVQWidget@@V?$QFlags@W4WindowType@Qt@@@@@Z@4HA 0000000140012a10 f   DlgAbout.obj
 0001:00011a20       ?dtor$11@?0??setupUi@Ui_Dialog_about@@QEAAXPEAVQDialog@@@Z@4HA 0000000140012a20 f   DlgAbout.obj
 0001:00011a20       ?dtor$5@?0??setupUi@Ui_Dialog_about@@QEAAXPEAVQDialog@@@Z@4HA 0000000140012a20 f   DlgAbout.obj
 0001:00011a20       ?dtor$7@?0??setupUi@Ui_Dialog_about@@QEAAXPEAVQDialog@@@Z@4HA 0000000140012a20 f   DlgAbout.obj
 0001:00011a20       ?dtor$9@?0??OpenFileDialog@FileBrowser@@QEAAXXZ@4HA 0000000140012a20 f   FileBrowser.obj
 0001:00011a20       ?dtor$10@?0??setupUi@Ui_Dialog_about@@QEAAXPEAVQDialog@@@Z@4HA 0000000140012a20 f   DlgAbout.obj
 0001:00011a20       ?dtor$1@?0??setupUi@Ui_Dialog_about@@QEAAXPEAVQDialog@@@Z@4HA 0000000140012a20 f   DlgAbout.obj
 0001:00011a20       ?dtor$13@?0??GetUserConfigFile@IniSetting@@CA?AVQString@@PEBD@Z@4HA 0000000140012a20 f   IniSetting.obj
 0001:00011a20       ?dtor$3@?0??setupUi@Ui_Dialog_about@@QEAAXPEAVQDialog@@@Z@4HA 0000000140012a20 f   DlgAbout.obj
 0001:00011a20       ?dtor$9@?0??setupUi@Ui_Dialog_about@@QEAAXPEAVQDialog@@@Z@4HA 0000000140012a20 f   DlgAbout.obj
 0001:00011a30       ?dtor$2@?0??setupUi@Ui_Dialog_about@@QEAAXPEAVQDialog@@@Z@4HA 0000000140012a30 f   DlgAbout.obj
 0001:00011a30       ?dtor$8@?0??setupUi@Ui_Dialog_about@@QEAAXPEAVQDialog@@@Z@4HA 0000000140012a30 f   DlgAbout.obj
 0001:00011a30       ?dtor$4@?0??setupUi@Ui_Dialog_about@@QEAAXPEAVQDialog@@@Z@4HA 0000000140012a30 f   DlgAbout.obj
 0001:00011a30       ?dtor$6@?0??setupUi@Ui_Dialog_about@@QEAAXPEAVQDialog@@@Z@4HA 0000000140012a30 f   DlgAbout.obj
 0001:00011a50       ?dtor$0@?0???0DlgHelp@@QEAA@PEAVQWidget@@V?$QFlags@W4WindowType@Qt@@@@@Z@4HA 0000000140012a50 f   DlgHelp.obj
 0001:00011a60       ?dtor$18@?0??setupUi@Ui_maintoolbar_root@@QEAAXPEAVQWidget@@@Z@4HA 0000000140012a60 f   MainToolbarPanel.obj
 0001:00011a60       ?dtor$8@?0??setupUi@Ui_Dialog_setting@@QEAAXPEAVQDialog@@@Z@4HA 0000000140012a60 f   DlgHelp.obj
 0001:00011a60       ?dtor$21@?0??setupUi@Ui_Dialog_setting@@QEAAXPEAVQDialog@@@Z@4HA 0000000140012a60 f   DlgHelp.obj
 0001:00011a60       ?dtor$8@?0??setupUi@Ui_maintoolbar_root@@QEAAXPEAVQWidget@@@Z@4HA 0000000140012a60 f   MainToolbarPanel.obj
 0001:00011a60       ?dtor$26@?0??setupUi@Ui_Dialog_setting@@QEAAXPEAVQDialog@@@Z@4HA 0000000140012a60 f   DlgHelp.obj
 0001:00011a60       ?dtor$3@?0??setupUi@Ui_maintoolbar_root@@QEAAXPEAVQWidget@@@Z@4HA 0000000140012a60 f   MainToolbarPanel.obj
 0001:00011a60       ?dtor$3@?0??setupUi@Ui_Dialog_setting@@QEAAXPEAVQDialog@@@Z@4HA 0000000140012a60 f   DlgHelp.obj
 0001:00011a80       ?dtor$10@?0??setupUi@Ui_Dialog_setting@@QEAAXPEAVQDialog@@@Z@4HA 0000000140012a80 f   DlgHelp.obj
 0001:00011a80       ?dtor$35@?0??setupUi@Ui_maintoolbar_root@@QEAAXPEAVQWidget@@@Z@4HA 0000000140012a80 f   MainToolbarPanel.obj
 0001:00011a80       ?dtor$10@?0??setupUi@Ui_maintoolbar_root@@QEAAXPEAVQWidget@@@Z@4HA 0000000140012a80 f   MainToolbarPanel.obj
 0001:00011a80       ?dtor$32@?0??setupUi@Ui_maintoolbar_root@@QEAAXPEAVQWidget@@@Z@4HA 0000000140012a80 f   MainToolbarPanel.obj
 0001:00011a80       ?dtor$26@?0??setupUi@Ui_maintoolbar_root@@QEAAXPEAVQWidget@@@Z@4HA 0000000140012a80 f   MainToolbarPanel.obj
 0001:00011a80       ?dtor$28@?0??setupUi@Ui_Dialog_setting@@QEAAXPEAVQDialog@@@Z@4HA 0000000140012a80 f   DlgHelp.obj
 0001:00011a80       ?dtor$29@?0??setupUi@Ui_maintoolbar_root@@QEAAXPEAVQWidget@@@Z@4HA 0000000140012a80 f   MainToolbarPanel.obj
 0001:00011a80       ?dtor$18@?0??setupUi@Ui_Dialog_setting@@QEAAXPEAVQDialog@@@Z@4HA 0000000140012a80 f   DlgHelp.obj
 0001:00011a80       ?dtor$15@?0??setupUi@Ui_Dialog_setting@@QEAAXPEAVQDialog@@@Z@4HA 0000000140012a80 f   DlgHelp.obj
 0001:00011a80       ?dtor$15@?0??setupUi@Ui_maintoolbar_root@@QEAAXPEAVQWidget@@@Z@4HA 0000000140012a80 f   MainToolbarPanel.obj
 0001:00011a80       ?dtor$38@?0??setupUi@Ui_maintoolbar_root@@QEAAXPEAVQWidget@@@Z@4HA 0000000140012a80 f   MainToolbarPanel.obj
 0001:00011a80       ?dtor$32@?0??setupUi@Ui_Dialog_setting@@QEAAXPEAVQDialog@@@Z@4HA 0000000140012a80 f   DlgHelp.obj
 0001:00011a80       ?dtor$23@?0??setupUi@Ui_maintoolbar_root@@QEAAXPEAVQWidget@@@Z@4HA 0000000140012a80 f   MainToolbarPanel.obj
 0001:00011a80       ?dtor$16@?0??setupUi@Ui_maintoolbar_root@@QEAAXPEAVQWidget@@@Z@4HA 0000000140012a80 f   MainToolbarPanel.obj
 0001:00011a80       ?dtor$23@?0??setupUi@Ui_Dialog_setting@@QEAAXPEAVQDialog@@@Z@4HA 0000000140012a80 f   DlgHelp.obj
 0001:00011a80       ?dtor$5@?0??setupUi@Ui_Dialog_setting@@QEAAXPEAVQDialog@@@Z@4HA 0000000140012a80 f   DlgHelp.obj
 0001:00011a80       ?dtor$20@?0??setupUi@Ui_maintoolbar_root@@QEAAXPEAVQWidget@@@Z@4HA 0000000140012a80 f   MainToolbarPanel.obj
 0001:00011a80       ?dtor$5@?0??setupUi@Ui_maintoolbar_root@@QEAAXPEAVQWidget@@@Z@4HA 0000000140012a80 f   MainToolbarPanel.obj
 0001:00011aa0       ?dtor$12@?0??setupUi@Ui_maintoolbar_root@@QEAAXPEAVQWidget@@@Z@4HA 0000000140012aa0 f   MainToolbarPanel.obj
 0001:00011aa0       ?dtor$12@?0??setupUi@Ui_Dialog_setting@@QEAAXPEAVQDialog@@@Z@4HA 0000000140012aa0 f   DlgHelp.obj
 0001:00011ab0       ?dtor$40@?0??setupUi@Ui_maintoolbar_root@@QEAAXPEAVQWidget@@@Z@4HA 0000000140012ab0 f   MainToolbarPanel.obj
 0001:00011ab0       ?dtor$30@?0??setupUi@Ui_Dialog_setting@@QEAAXPEAVQDialog@@@Z@4HA 0000000140012ab0 f   DlgHelp.obj
 0001:00011ac0       ?dtor$0@?0???0ComparePage@@QEAA@PEAVAppMainWnd@@HPEAVQWidget@@@Z@4HA 0000000140012ac0 f   ComparePage.obj
 0001:00011ad0       ?dtor$0@?0??Init@TitleBar@@UEAAXXZ@4HA 0000000140012ad0 f   TitleBar.obj
 0001:00011ad0       ?dtor$0@?0??Init@ComparePage@@UEAAXXZ@4HA 0000000140012ad0 f   ComparePage.obj
 0001:00011ad0       ?dtor$0@?0??Init@CompareViewPanel@@UEAAXXZ@4HA 0000000140012ad0 f   CompareViewPanel.obj
 0001:00011ad0       ?dtor$0@?0??Init@HomePage@@UEAAXXZ@4HA 0000000140012ad0 f   HomePage.obj
 0001:00011af0       ?dtor$0@?0??ShowPanel@ComparePage@@QEAAXW4PANEL_TYPE@1@_N@Z@4HA 0000000140012af0 f   ComparePage.obj
 0001:00011b10       ?dtor$1@?0??ShowPanel@ComparePage@@QEAAXW4PANEL_TYPE@1@_N@Z@4HA 0000000140012b10 f   ComparePage.obj
 0001:00011b30       ?dtor$0@?0??OpenFileDialog@FileBrowser@@QEAAXXZ@4HA 0000000140012b30 f   FileBrowser.obj
 0001:00011b40       ?dtor$3@?0??OpenFileDialog@FileBrowser@@QEAAXXZ@4HA 0000000140012b40 f   FileBrowser.obj
 0001:00011b40       ?dtor$0@?0??GetLastInputPath@IniSetting@@SA?AVQString@@PEBD@Z@4HA 0000000140012b40 f   IniSetting.obj
 0001:00011b40       ?dtor$0@?0??GetLastFilterType@IniSetting@@SAHPEBD@Z@4HA 0000000140012b40 f   IniSetting.obj
 0001:00011b40       ?dtor$0@?0??GetAppName@IniSetting@@SA?AVQString@@W4SETTING_TYPE@1@@Z@4HA 0000000140012b40 f   IniSetting.obj
 0001:00011b40       ?dtor$0@?0??IfShowDrawPanel@IniSetting@@SAHW4SETTING_TYPE@1@@Z@4HA 0000000140012b40 f   IniSetting.obj
 0001:00011b50       ?dtor$4@?0??GetLastFilterType@IniSetting@@SAHPEBD@Z@4HA 0000000140012b50 f   IniSetting.obj
 0001:00011b50       ?dtor$0@?0??GetUserConfigFile@IniSetting@@CA?AVQString@@PEBD@Z@4HA 0000000140012b50 f   IniSetting.obj
 0001:00011b50       ?dtor$56@?0??setupUi@Ui_home_root@@QEAAXPEAVQWidget@@@Z@4HA 0000000140012b50 f   HomePage.obj
 0001:00011b50       ?dtor$4@?0??OpenFileDialog@FileBrowser@@QEAAXXZ@4HA 0000000140012b50 f   FileBrowser.obj
 0001:00011b50       ?dtor$2@?0??IfShowDrawPanel@IniSetting@@SAHW4SETTING_TYPE@1@@Z@4HA 0000000140012b50 f   IniSetting.obj
 0001:00011b50       ?dtor$4@?0??IfShowDrawPanel@IniSetting@@SAHW4SETTING_TYPE@1@@Z@4HA 0000000140012b50 f   IniSetting.obj
 0001:00011b50       ?dtor$13@?0??Init@MainToolbarPanel@@UEAAXXZ@4HA 0000000140012b50 f   MainToolbarPanel.obj
 0001:00011b50       ?dtor$3@?0??DoInitDrawWidget@CompareViewPanel@@QEAAXPEAVQWidget@@W4AISFCV_COMPAREVIEW_INDEX@ARC_AISF@@@Z@4HA 0000000140012b50 f   CompareViewPanel.obj
 0001:00011b50       ?dtor$6@?0??DoInitDrawWidget@CompareViewPanel@@QEAAXPEAVQWidget@@W4AISFCV_COMPAREVIEW_INDEX@ARC_AISF@@@Z@4HA 0000000140012b50 f   CompareViewPanel.obj
 0001:00011b50       ?dtor$5@?0??DoInitDrawWidget@CompareViewPanel@@QEAAXPEAVQWidget@@W4AISFCV_COMPAREVIEW_INDEX@ARC_AISF@@@Z@4HA 0000000140012b50 f   CompareViewPanel.obj
 0001:00011b50       ?dtor$2@?0??GetLastFilterType@IniSetting@@SAHPEBD@Z@4HA 0000000140012b50 f   IniSetting.obj
 0001:00011b60       ?dtor$6@?0??OpenFileDialog@FileBrowser@@QEAAXXZ@4HA 0000000140012b60 f   FileBrowser.obj
 0001:00011b70       ?dtor$7@?0??OpenFileDialog@FileBrowser@@QEAAXXZ@4HA 0000000140012b70 f   FileBrowser.obj
 0001:00011b80       ?dtor$8@?0??OpenFileDialog@FileBrowser@@QEAAXXZ@4HA 0000000140012b80 f   FileBrowser.obj
 0001:00011b90       ?dtor$10@?0??OpenFileDialog@FileBrowser@@QEAAXXZ@4HA 0000000140012b90 f   FileBrowser.obj
 0001:00011ba0       ?dtor$2@?0??GetFileListbyPath@CompareViewPanel@@AEAAXPEAD@Z@4HA 0000000140012ba0 f   CompareViewPanel.obj
 0001:00011ba0       main$dtor$7                0000000140012ba0 f   main.obj
 0001:00011ba0       ?dtor$6@?0??GetImageExtFilter@IniSetting@@SA?AVQString@@W4SETTING_TYPE@1@@Z@4HA 0000000140012ba0 f   IniSetting.obj
 0001:00011ba0       ?dtor$6@?0??GetVideoExtFilter@IniSetting@@SA?AVQString@@W4SETTING_TYPE@1@@Z@4HA 0000000140012ba0 f   IniSetting.obj
 0001:00011ba0       ?dtor$11@?0??OpenFileDialog@FileBrowser@@QEAAXXZ@4HA 0000000140012ba0 f   FileBrowser.obj
 0001:00011bb0       ?dtor$13@?0??OpenFileDialog@FileBrowser@@QEAAXXZ@4HA 0000000140012bb0 f   FileBrowser.obj
 0001:00011bc0       ?dtor$14@?0??OpenFileDialog@FileBrowser@@QEAAXXZ@4HA 0000000140012bc0 f   FileBrowser.obj
 0001:00011bd0       ?dtor$16@?0??OpenFileDialog@FileBrowser@@QEAAXXZ@4HA 0000000140012bd0 f   FileBrowser.obj
 0001:00011bd0       ?dtor$2@?0??GetVideoExtFilter@IniSetting@@SA?AVQString@@W4SETTING_TYPE@1@@Z@4HA 0000000140012bd0 f   IniSetting.obj
 0001:00011bd0       ?dtor$2@?0??GetImageExtFilter@IniSetting@@SA?AVQString@@W4SETTING_TYPE@1@@Z@4HA 0000000140012bd0 f   IniSetting.obj
 0001:00011be0       ?dtor$13@?0??retranslateUi@Ui_maintoolbar_root@@QEAAXPEAVQWidget@@@Z@4HA 0000000140012be0 f   MainToolbarPanel.obj
 0001:00011be0       ?dtor$12@?0??retranslateUi@Ui_maintoolbar_root@@QEAAXPEAVQWidget@@@Z@4HA 0000000140012be0 f   MainToolbarPanel.obj
 0001:00011be0       ?dtor$11@?0??retranslateUi@Ui_maintoolbar_root@@QEAAXPEAVQWidget@@@Z@4HA 0000000140012be0 f   MainToolbarPanel.obj
 0001:00011be0       ?dtor$10@?0??retranslateUi@Ui_maintoolbar_root@@QEAAXPEAVQWidget@@@Z@4HA 0000000140012be0 f   MainToolbarPanel.obj
 0001:00011be0       ?dtor$0@?0??retranslateUi@Ui_maintoolbar_root@@QEAAXPEAVQWidget@@@Z@4HA 0000000140012be0 f   MainToolbarPanel.obj
 0001:00011be0       ?dtor$14@?0??retranslateUi@Ui_maintoolbar_root@@QEAAXPEAVQWidget@@@Z@4HA 0000000140012be0 f   MainToolbarPanel.obj
 0001:00011be0       ?dtor$1@?0??retranslateUi@Ui_maintoolbar_root@@QEAAXPEAVQWidget@@@Z@4HA 0000000140012be0 f   MainToolbarPanel.obj
 0001:00011be0       ?dtor$2@?0??retranslateUi@Ui_home_root@@QEAAXPEAVQWidget@@@Z@4HA 0000000140012be0 f   HomePage.obj
 0001:00011be0       ?dtor$0@?0??retranslateUi@Ui_titlebar_root@@QEAAXPEAVQWidget@@@Z@4HA 0000000140012be0 f   TitleBar.obj
 0001:00011be0       ?dtor$2@?0??retranslateUi@Ui_maintoolbar_root@@QEAAXPEAVQWidget@@@Z@4HA 0000000140012be0 f   MainToolbarPanel.obj
 0001:00011be0       main$dtor$2                0000000140012be0 f   main.obj
 0001:00011be0       ?dtor$3@?0??retranslateUi@Ui_home_root@@QEAAXPEAVQWidget@@@Z@4HA 0000000140012be0 f   HomePage.obj
 0001:00011be0       ?dtor$3@?0??retranslateUi@Ui_maintoolbar_root@@QEAAXPEAVQWidget@@@Z@4HA 0000000140012be0 f   MainToolbarPanel.obj
 0001:00011be0       ?dtor$4@?0??retranslateUi@Ui_maintoolbar_root@@QEAAXPEAVQWidget@@@Z@4HA 0000000140012be0 f   MainToolbarPanel.obj
 0001:00011be0       ?dtor$5@?0??retranslateUi@Ui_maintoolbar_root@@QEAAXPEAVQWidget@@@Z@4HA 0000000140012be0 f   MainToolbarPanel.obj
 0001:00011be0       ?dtor$6@?0??retranslateUi@Ui_maintoolbar_root@@QEAAXPEAVQWidget@@@Z@4HA 0000000140012be0 f   MainToolbarPanel.obj
 0001:00011be0       ?dtor$18@?0??OpenFileDialog@FileBrowser@@QEAAXXZ@4HA 0000000140012be0 f   FileBrowser.obj
 0001:00011be0       ?dtor$1@?0??retranslateUi@Ui_titlebar_root@@QEAAXPEAVQWidget@@@Z@4HA 0000000140012be0 f   TitleBar.obj
 0001:00011be0       ?dtor$7@?0??retranslateUi@Ui_maintoolbar_root@@QEAAXPEAVQWidget@@@Z@4HA 0000000140012be0 f   MainToolbarPanel.obj
 0001:00011be0       ?dtor$8@?0??retranslateUi@Ui_maintoolbar_root@@QEAAXPEAVQWidget@@@Z@4HA 0000000140012be0 f   MainToolbarPanel.obj
 0001:00011be0       ?dtor$7@?0??retranslateUi@Ui_home_root@@QEAAXPEAVQWidget@@@Z@4HA 0000000140012be0 f   HomePage.obj
 0001:00011be0       ?dtor$9@?0??retranslateUi@Ui_maintoolbar_root@@QEAAXPEAVQWidget@@@Z@4HA 0000000140012be0 f   MainToolbarPanel.obj
 0001:00011be0       ?dtor$5@?0??retranslateUi@Ui_home_root@@QEAAXPEAVQWidget@@@Z@4HA 0000000140012be0 f   HomePage.obj
 0001:00011be0       ?dtor$2@?0??retranslateUi@Ui_titlebar_root@@QEAAXPEAVQWidget@@@Z@4HA 0000000140012be0 f   TitleBar.obj
 0001:00011be0       ?dtor$6@?0??retranslateUi@Ui_home_root@@QEAAXPEAVQWidget@@@Z@4HA 0000000140012be0 f   HomePage.obj
 0001:00011be0       ?dtor$3@?0??retranslateUi@Ui_titlebar_root@@QEAAXPEAVQWidget@@@Z@4HA 0000000140012be0 f   TitleBar.obj
 0001:00011be0       ?dtor$4@?0??retranslateUi@Ui_titlebar_root@@QEAAXPEAVQWidget@@@Z@4HA 0000000140012be0 f   TitleBar.obj
 0001:00011be0       ?dtor$0@?0??retranslateUi@Ui_home_root@@QEAAXPEAVQWidget@@@Z@4HA 0000000140012be0 f   HomePage.obj
 0001:00011be0       ?dtor$5@?0??Init@TitleBar@@UEAAXXZ@4HA 0000000140012be0 f   TitleBar.obj
 0001:00011be0       ?dtor$5@?0??retranslateUi@Ui_titlebar_root@@QEAAXPEAVQWidget@@@Z@4HA 0000000140012be0 f   TitleBar.obj
 0001:00011be0       ?dtor$1@?0??retranslateUi@Ui_home_root@@QEAAXPEAVQWidget@@@Z@4HA 0000000140012be0 f   HomePage.obj
 0001:00011be0       ?dtor$6@?0??retranslateUi@Ui_titlebar_root@@QEAAXPEAVQWidget@@@Z@4HA 0000000140012be0 f   TitleBar.obj
 0001:00011be0       ?dtor$7@?0??Init@TitleBar@@UEAAXXZ@4HA 0000000140012be0 f   TitleBar.obj
 0001:00011be0       ?dtor$7@?0??retranslateUi@Ui_titlebar_root@@QEAAXPEAVQWidget@@@Z@4HA 0000000140012be0 f   TitleBar.obj
 0001:00011be0       ?dtor$8@?0??retranslateUi@Ui_home_root@@QEAAXPEAVQWidget@@@Z@4HA 0000000140012be0 f   HomePage.obj
 0001:00011be0       ?dtor$4@?0??retranslateUi@Ui_home_root@@QEAAXPEAVQWidget@@@Z@4HA 0000000140012be0 f   HomePage.obj
 0001:00011bf0       ?dtor$20@?0??OpenFileDialog@FileBrowser@@QEAAXXZ@4HA 0000000140012bf0 f   FileBrowser.obj
 0001:00011c00       ?dtor$0@?0??OnBtnHelp@HomePage@@AEAAX_N@Z@4HA 0000000140012c00 f   HomePage.obj
 0001:00011c10       ?dtor$1@?0??OnBtnHelp@HomePage@@AEAAX_N@Z@4HA 0000000140012c10 f   HomePage.obj
 0001:00011c30       ?dtor$2@?0??OnBtnHelp@HomePage@@AEAAX_N@Z@4HA 0000000140012c30 f   HomePage.obj
 0001:00011c40       ?dtor$22@?0??setupUi@Ui_home_root@@QEAAXPEAVQWidget@@@Z@4HA 0000000140012c40 f   HomePage.obj
 0001:00011c40       ?dtor$6@?0??setupUi@Ui_compare_root@@QEAAXPEAVQWidget@@@Z@4HA 0000000140012c40 f   CompareViewPanel.obj
 0001:00011c40       ?dtor$7@?0??setupUi@Ui_home_root@@QEAAXPEAVQWidget@@@Z@4HA 0000000140012c40 f   HomePage.obj
 0001:00011c40       ?dtor$38@?0??setupUi@Ui_home_root@@QEAAXPEAVQWidget@@@Z@4HA 0000000140012c40 f   HomePage.obj
 0001:00011c40       ?dtor$3@?0??setupUi@Ui_home_root@@QEAAXPEAVQWidget@@@Z@4HA 0000000140012c40 f   HomePage.obj
 0001:00011c40       ?dtor$49@?0??setupUi@Ui_home_root@@QEAAXPEAVQWidget@@@Z@4HA 0000000140012c40 f   HomePage.obj
 0001:00011c40       ?dtor$2@?0??setupUi@Ui_compare_root@@QEAAXPEAVQWidget@@@Z@4HA 0000000140012c40 f   CompareViewPanel.obj
 0001:00011c40       ?dtor$10@?0??setupUi@Ui_compare_root@@QEAAXPEAVQWidget@@@Z@4HA 0000000140012c40 f   CompareViewPanel.obj
 0001:00011c40       ?dtor$36@?0??setupUi@Ui_home_root@@QEAAXPEAVQWidget@@@Z@4HA 0000000140012c40 f   HomePage.obj
 0001:00011c60       ?dtor$16@?0??setupUi@Ui_compare_root@@QEAAXPEAVQWidget@@@Z@4HA 0000000140012c60 f   CompareViewPanel.obj
 0001:00011c60       ?dtor$27@?0??setupUi@Ui_home_root@@QEAAXPEAVQWidget@@@Z@4HA 0000000140012c60 f   HomePage.obj
 0001:00011c60       ?dtor$5@?0??setupUi@Ui_home_root@@QEAAXPEAVQWidget@@@Z@4HA 0000000140012c60 f   HomePage.obj
 0001:00011c60       ?dtor$34@?0??setupUi@Ui_home_root@@QEAAXPEAVQWidget@@@Z@4HA 0000000140012c60 f   HomePage.obj
 0001:00011c60       ?dtor$28@?0??setupUi@Ui_home_root@@QEAAXPEAVQWidget@@@Z@4HA 0000000140012c60 f   HomePage.obj
 0001:00011c60       ?dtor$15@?0??setupUi@Ui_compare_root@@QEAAXPEAVQWidget@@@Z@4HA 0000000140012c60 f   CompareViewPanel.obj
 0001:00011c60       ?dtor$24@?0??setupUi@Ui_home_root@@QEAAXPEAVQWidget@@@Z@4HA 0000000140012c60 f   HomePage.obj
 0001:00011c60       ?dtor$45@?0??setupUi@Ui_home_root@@QEAAXPEAVQWidget@@@Z@4HA 0000000140012c60 f   HomePage.obj
 0001:00011c60       ?dtor$25@?0??setupUi@Ui_home_root@@QEAAXPEAVQWidget@@@Z@4HA 0000000140012c60 f   HomePage.obj
 0001:00011c60       ?dtor$47@?0??setupUi@Ui_home_root@@QEAAXPEAVQWidget@@@Z@4HA 0000000140012c60 f   HomePage.obj
 0001:00011c60       ?dtor$46@?0??setupUi@Ui_home_root@@QEAAXPEAVQWidget@@@Z@4HA 0000000140012c60 f   HomePage.obj
 0001:00011c60       ?dtor$10@?0??setupUi@Ui_home_root@@QEAAXPEAVQWidget@@@Z@4HA 0000000140012c60 f   HomePage.obj
 0001:00011c60       ?dtor$51@?0??setupUi@Ui_home_root@@QEAAXPEAVQWidget@@@Z@4HA 0000000140012c60 f   HomePage.obj
 0001:00011c60       ?dtor$12@?0??setupUi@Ui_compare_root@@QEAAXPEAVQWidget@@@Z@4HA 0000000140012c60 f   CompareViewPanel.obj
 0001:00011c60       ?dtor$40@?0??setupUi@Ui_home_root@@QEAAXPEAVQWidget@@@Z@4HA 0000000140012c60 f   HomePage.obj
 0001:00011c60       ?dtor$15@?0??setupUi@Ui_home_root@@QEAAXPEAVQWidget@@@Z@4HA 0000000140012c60 f   HomePage.obj
 0001:00011c60       ?dtor$26@?0??setupUi@Ui_home_root@@QEAAXPEAVQWidget@@@Z@4HA 0000000140012c60 f   HomePage.obj
 0001:00011c60       ?dtor$54@?0??setupUi@Ui_home_root@@QEAAXPEAVQWidget@@@Z@4HA 0000000140012c60 f   HomePage.obj
 0001:00011c60       ?dtor$8@?0??setupUi@Ui_compare_root@@QEAAXPEAVQWidget@@@Z@4HA 0000000140012c60 f   CompareViewPanel.obj
 0001:00011c60       ?dtor$4@?0??setupUi@Ui_compare_root@@QEAAXPEAVQWidget@@@Z@4HA 0000000140012c60 f   CompareViewPanel.obj
 0001:00011c60       ?dtor$18@?0??setupUi@Ui_home_root@@QEAAXPEAVQWidget@@@Z@4HA 0000000140012c60 f   HomePage.obj
 0001:00011c60       ?dtor$9@?0??setupUi@Ui_home_root@@QEAAXPEAVQWidget@@@Z@4HA 0000000140012c60 f   HomePage.obj
 0001:00011c60       ?dtor$19@?0??setupUi@Ui_home_root@@QEAAXPEAVQWidget@@@Z@4HA 0000000140012c60 f   HomePage.obj
 0001:00011c60       ?dtor$31@?0??setupUi@Ui_home_root@@QEAAXPEAVQWidget@@@Z@4HA 0000000140012c60 f   HomePage.obj
 0001:00011c80       ?dtor$12@?0??setupUi@Ui_home_root@@QEAAXPEAVQWidget@@@Z@4HA 0000000140012c80 f   HomePage.obj
 0001:00011c90       ?dtor$42@?0??setupUi@Ui_home_root@@QEAAXPEAVQWidget@@@Z@4HA 0000000140012c90 f   HomePage.obj
 0001:00011ca0       ?dtor$2@?0??SetCompareFiles@CompareViewPanel@@QEAAXVQStringList@@_N@Z@4HA 0000000140012ca0 f   CompareViewPanel.obj
 0001:00011ca0       ?dtor$1@?0??DoDisplayFilebyIndex@CompareViewPanel@@AEAAXH@Z@4HA 0000000140012ca0 f   CompareViewPanel.obj
 0001:00011cb0       ?dtor$2@?0??DoDisplayFilebyIndex@CompareViewPanel@@AEAAXH@Z@4HA 0000000140012cb0 f   CompareViewPanel.obj
 0001:00011cc0       ?dtor$4@?0??DoDisplayFilebyIndex@CompareViewPanel@@AEAAXH@Z@4HA 0000000140012cc0 f   CompareViewPanel.obj
 0001:00011cd0       ?dtor$0@?0??DoInitDrawWidget@CompareViewPanel@@QEAAXPEAVQWidget@@W4AISFCV_COMPAREVIEW_INDEX@ARC_AISF@@@Z@4HA 0000000140012cd0 f   CompareViewPanel.obj
 0001:00011cf0       ?dtor$4@?0??DoInitDrawWidget@CompareViewPanel@@QEAAXPEAVQWidget@@W4AISFCV_COMPAREVIEW_INDEX@ARC_AISF@@@Z@4HA 0000000140012cf0 f   CompareViewPanel.obj
 0001:00011d10       ?dtor$1@?0??GetFileListbyPath@CompareViewPanel@@AEAAXPEAD@Z@4HA 0000000140012d10 f   CompareViewPanel.obj
 0001:00011d20       ?dtor$4@?0??GetFileListbyPath@CompareViewPanel@@AEAAXPEAD@Z@4HA 0000000140012d20 f   CompareViewPanel.obj
 0001:00011d30       ?dtor$0@?0??SetCompareFiles@CompareViewPanel@@QEAAXVQStringList@@_N@Z@4HA 0000000140012d30 f   CompareViewPanel.obj
 0001:00011d40       ?dtor$1@?0??GetLastFilterType@IniSetting@@SAHPEBD@Z@4HA 0000000140012d40 f   IniSetting.obj
 0001:00011d40       ?dtor$1@?0??GetAppName@IniSetting@@SA?AVQString@@W4SETTING_TYPE@1@@Z@4HA 0000000140012d40 f   IniSetting.obj
 0001:00011d40       ?dtor$1@?0??GetLastInputPath@IniSetting@@SA?AVQString@@PEBD@Z@4HA 0000000140012d40 f   IniSetting.obj
 0001:00011d40       ?dtor$1@?0??IfShowDrawPanel@IniSetting@@SAHW4SETTING_TYPE@1@@Z@4HA 0000000140012d40 f   IniSetting.obj
 0001:00011d50       ?dtor$3@?0??GetLastFilterType@IniSetting@@SAHPEBD@Z@4HA 0000000140012d50 f   IniSetting.obj
 0001:00011d50       ?dtor$3@?0??GetAppName@IniSetting@@SA?AVQString@@W4SETTING_TYPE@1@@Z@4HA 0000000140012d50 f   IniSetting.obj
 0001:00011d50       ?dtor$3@?0??IfShowDrawPanel@IniSetting@@SAHW4SETTING_TYPE@1@@Z@4HA 0000000140012d50 f   IniSetting.obj
 0001:00011d50       ?dtor$3@?0??GetLastInputPath@IniSetting@@SA?AVQString@@PEBD@Z@4HA 0000000140012d50 f   IniSetting.obj
 0001:00011d60       ?dtor$5@?0??GetLastFilterType@IniSetting@@SAHPEBD@Z@4HA 0000000140012d60 f   IniSetting.obj
 0001:00011d60       ?dtor$5@?0??GetAppName@IniSetting@@SA?AVQString@@W4SETTING_TYPE@1@@Z@4HA 0000000140012d60 f   IniSetting.obj
 0001:00011d60       ?dtor$5@?0??GetLastInputPath@IniSetting@@SA?AVQString@@PEBD@Z@4HA 0000000140012d60 f   IniSetting.obj
 0001:00011d60       ?dtor$5@?0??IfShowDrawPanel@IniSetting@@SAHW4SETTING_TYPE@1@@Z@4HA 0000000140012d60 f   IniSetting.obj
 0001:00011d70       ?dtor$3@?0??Init@MainToolbarPanel@@UEAAXXZ@4HA 0000000140012d70 f   MainToolbarPanel.obj
 0001:00011d70       ?dtor$1@?0??Init@MainToolbarPanel@@UEAAXXZ@4HA 0000000140012d70 f   MainToolbarPanel.obj
 0001:00011d70       ?dtor$4@?0??Init@MainToolbarPanel@@UEAAXXZ@4HA 0000000140012d70 f   MainToolbarPanel.obj
 0001:00011d70       ?dtor$0@?0??GetAppSetFile@IniSetting@@CA?AVQString@@W4SETTING_TYPE@1@@Z@4HA 0000000140012d70 f   IniSetting.obj
 0001:00011d80       ?dtor$1@?0??GetAppSetFile@IniSetting@@CA?AVQString@@W4SETTING_TYPE@1@@Z@4HA 0000000140012d80 f   IniSetting.obj
 0001:00011db0       ?dtor$4@?0??GetAppSetFile@IniSetting@@CA?AVQString@@W4SETTING_TYPE@1@@Z@4HA 0000000140012db0 f   IniSetting.obj
 0001:00011de0       ?dtor$6@?0??GetAppSetFile@IniSetting@@CA?AVQString@@W4SETTING_TYPE@1@@Z@4HA 0000000140012de0 f   IniSetting.obj
 0001:00011e10       ?dtor$1@?0??GetVideoExtFilter@IniSetting@@SA?AVQString@@W4SETTING_TYPE@1@@Z@4HA 0000000140012e10 f   IniSetting.obj
 0001:00011e10       ?dtor$1@?0??GetImageExtFilter@IniSetting@@SA?AVQString@@W4SETTING_TYPE@1@@Z@4HA 0000000140012e10 f   IniSetting.obj
 0001:00011e20       ?dtor$3@?0??GetImageExtFilter@IniSetting@@SA?AVQString@@W4SETTING_TYPE@1@@Z@4HA 0000000140012e20 f   IniSetting.obj
 0001:00011e20       ?dtor$3@?0??GetVideoExtFilter@IniSetting@@SA?AVQString@@W4SETTING_TYPE@1@@Z@4HA 0000000140012e20 f   IniSetting.obj
 0001:00011e30       ?dtor$4@?0??GetImageExtFilter@IniSetting@@SA?AVQString@@W4SETTING_TYPE@1@@Z@4HA 0000000140012e30 f   IniSetting.obj
 0001:00011e30       ?dtor$4@?0??GetVideoExtFilter@IniSetting@@SA?AVQString@@W4SETTING_TYPE@1@@Z@4HA 0000000140012e30 f   IniSetting.obj
 0001:00011e40       ?dtor$5@?0??GetImageExtFilter@IniSetting@@SA?AVQString@@W4SETTING_TYPE@1@@Z@4HA 0000000140012e40 f   IniSetting.obj
 0001:00011e40       ?dtor$5@?0??GetVideoExtFilter@IniSetting@@SA?AVQString@@W4SETTING_TYPE@1@@Z@4HA 0000000140012e40 f   IniSetting.obj
 0001:00011e50       ?dtor$9@?0??GetImageExtFilter@IniSetting@@SA?AVQString@@W4SETTING_TYPE@1@@Z@4HA 0000000140012e50 f   IniSetting.obj
 0001:00011e50       ?dtor$9@?0??GetVideoExtFilter@IniSetting@@SA?AVQString@@W4SETTING_TYPE@1@@Z@4HA 0000000140012e50 f   IniSetting.obj
 0001:00011e80       ?dtor$10@?0??GetVideoExtFilter@IniSetting@@SA?AVQString@@W4SETTING_TYPE@1@@Z@4HA 0000000140012e80 f   IniSetting.obj
 0001:00011e80       ?dtor$10@?0??GetImageExtFilter@IniSetting@@SA?AVQString@@W4SETTING_TYPE@1@@Z@4HA 0000000140012e80 f   IniSetting.obj
 0001:00011eb0       ?dtor$1@?0??GetUserConfigFile@IniSetting@@CA?AVQString@@PEBD@Z@4HA 0000000140012eb0 f   IniSetting.obj
 0001:00011ee0       ?dtor$6@?0??GetUserConfigFile@IniSetting@@CA?AVQString@@PEBD@Z@4HA 0000000140012ee0 f   IniSetting.obj
 0001:00011f10       ?dtor$8@?0??GetUserConfigFile@IniSetting@@CA?AVQString@@PEBD@Z@4HA 0000000140012f10 f   IniSetting.obj
 0001:00011f40       ?dtor$10@?0??GetUserConfigFile@IniSetting@@CA?AVQString@@PEBD@Z@4HA 0000000140012f40 f   IniSetting.obj
 0001:00011f70       ?dtor$12@?0??GetUserConfigFile@IniSetting@@CA?AVQString@@PEBD@Z@4HA 0000000140012f70 f   IniSetting.obj
 0001:00011fa0       ?dtor$0@?0??Init@MainToolbarPanel@@UEAAXXZ@4HA 0000000140012fa0 f   MainToolbarPanel.obj
 0001:00011fc0       ?dtor$2@?0??Init@MainToolbarPanel@@UEAAXXZ@4HA 0000000140012fc0 f   MainToolbarPanel.obj
 0001:00011fd0       ?dtor$12@?0??Init@MainToolbarPanel@@UEAAXXZ@4HA 0000000140012fd0 f   MainToolbarPanel.obj
 0001:00011fe0       ?dtor$14@?0??Init@MainToolbarPanel@@UEAAXXZ@4HA 0000000140012fe0 f   MainToolbarPanel.obj
 0001:00011ff0       ?dtor$0@?0???0MyWidget@@QEAA@PEAVQWidget@@V?$QFlags@W4WindowType@Qt@@@@@Z@4HA 0000000140012ff0 f   MyWidget.obj
 0001:00012000       ?dtor$0@?0??SetWidgetBackColor@QTUICommon@@SAXPEAVQWidget@@AEBVQColor@@@Z@4HA 0000000140013000 f   QTUICommon.obj
 0001:00012010       ?dtor$1@?0??SetWidgetBackColor@QTUICommon@@SAXPEAVQWidget@@AEBVQColor@@@Z@4HA 0000000140013010 f   QTUICommon.obj
 0001:00012020       ?dtor$0@?0???0MyDrawWidget@@QEAA@HPEAVQWidget@@V?$QFlags@W4WindowType@Qt@@@@@Z@4HA 0000000140013020 f   MyDrawWidget.obj
 0001:00012030       ?dtor$4@?0??paintEvent@MyDrawWidget@@MEAAXPEAVQPaintEvent@@@Z@4HA 0000000140013030 f   MyDrawWidget.obj
 0001:00012030       ?dtor$0@?0??paintEvent@MyDrawWidget@@MEAAXPEAVQPaintEvent@@@Z@4HA 0000000140013030 f   MyDrawWidget.obj
 0001:00012040       ?dtor$3@?0??paintEvent@MyDrawWidget@@MEAAXPEAVQPaintEvent@@@Z@4HA 0000000140013040 f   MyDrawWidget.obj
 0001:00012040       ?dtor$7@?0??paintEvent@MyDrawWidget@@MEAAXPEAVQPaintEvent@@@Z@4HA 0000000140013040 f   MyDrawWidget.obj
 0001:00012040       ?dtor$1@?0??paintEvent@MyDrawWidget@@MEAAXPEAVQPaintEvent@@@Z@4HA 0000000140013040 f   MyDrawWidget.obj
 0001:00012040       ?dtor$5@?0??paintEvent@MyDrawWidget@@MEAAXPEAVQPaintEvent@@@Z@4HA 0000000140013040 f   MyDrawWidget.obj
 0001:00012050       ?dtor$6@?0??paintEvent@MyDrawWidget@@MEAAXPEAVQPaintEvent@@@Z@4HA 0000000140013050 f   MyDrawWidget.obj
 0001:00012050       ?dtor$2@?0??paintEvent@MyDrawWidget@@MEAAXPEAVQPaintEvent@@@Z@4HA 0000000140013050 f   MyDrawWidget.obj
 0001:00012060       ?dtor$0@?0??OnAboutClicked@TitleBar@@AEAAX_N@Z@4HA 0000000140013060 f   TitleBar.obj
 0001:00012080       ?dtor$14@?0??setupUi@Ui_titlebar_root@@QEAAXPEAVQWidget@@@Z@4HA 0000000140013080 f   TitleBar.obj
 0001:00012080       ?dtor$3@?0??setupUi@Ui_titlebar_root@@QEAAXPEAVQWidget@@@Z@4HA 0000000140013080 f   TitleBar.obj
 0001:000120a0       ?dtor$11@?0??setupUi@Ui_titlebar_root@@QEAAXPEAVQWidget@@@Z@4HA 00000001400130a0 f   TitleBar.obj
 0001:000120a0       ?dtor$16@?0??setupUi@Ui_titlebar_root@@QEAAXPEAVQWidget@@@Z@4HA 00000001400130a0 f   TitleBar.obj
 0001:000120a0       ?dtor$5@?0??setupUi@Ui_titlebar_root@@QEAAXPEAVQWidget@@@Z@4HA 00000001400130a0 f   TitleBar.obj
 0001:000120a0       ?dtor$19@?0??setupUi@Ui_titlebar_root@@QEAAXPEAVQWidget@@@Z@4HA 00000001400130a0 f   TitleBar.obj
 0001:000120a0       ?dtor$12@?0??setupUi@Ui_titlebar_root@@QEAAXPEAVQWidget@@@Z@4HA 00000001400130a0 f   TitleBar.obj
 0001:000120a0       ?dtor$22@?0??setupUi@Ui_titlebar_root@@QEAAXPEAVQWidget@@@Z@4HA 00000001400130a0 f   TitleBar.obj
 0001:000120a0       ?dtor$25@?0??setupUi@Ui_titlebar_root@@QEAAXPEAVQWidget@@@Z@4HA 00000001400130a0 f   TitleBar.obj
 0001:000120a0       ?dtor$6@?0??setupUi@Ui_titlebar_root@@QEAAXPEAVQWidget@@@Z@4HA 00000001400130a0 f   TitleBar.obj
 0001:000120c0       ?dtor$8@?0??setupUi@Ui_titlebar_root@@QEAAXPEAVQWidget@@@Z@4HA 00000001400130c0 f   TitleBar.obj
 0001:000120d0       ?catch$0@?0??detach_helper@?$QList@VQString@@@@AEAAXH@Z@4HA 00000001400130d0 f   main.obj
 0001:000120de       __catch$?detach_helper@?$QList@VQString@@@@AEAAXH@Z$0 00000001400130de f   main.obj
 0001:00012100       main$dtor$0                0000000140013100 f   main.obj
 0001:00012110       main$dtor$3                0000000140013110 f   main.obj
 0001:00012130       main$dtor$4                0000000140013130 f   main.obj
 0001:00012140       main$dtor$5                0000000140013140 f   main.obj
 0001:00012170       main$dtor$8                0000000140013170 f   main.obj
 0001:00012180       main$dtor$9                0000000140013180 f   main.obj
 0001:000121a0       ?dtor$2@?0??qt_static_metacall@FileBrowser@@CAXPEAVQObject@@W4Call@QMetaObject@@HPEAPEAX@Z@4HA 00000001400131a0 f   moc_FileBrowser.obj
 0001:000121ac       __scrt_is_nonwritable_in_current_image$filt$0 00000001400131ac f   MSVCRT:utility.obj
 0001:000121c4       ?filt$0@?0??__scrt_common_main_seh@@YAHXZ@4HA 00000001400131c4 f   MSVCRT:exe_winmain.obj
 0001:000121f0       ??__FstrQssMenu@@YAXXZ     00000001400131f0 f   MenuManager.obj
 0001:00012200       ??__Fdummy@?A0x7ab48115@@YAXXZ 0000000140013200 f   qrc_appmainwnd.obj
 0002:00001318       ?pre_cpp_initializer@@3P6AXXZEA 0000000140015318     MSVCRT:exe_winmain.obj
 0002:00001320       ?LIST_RGBCCMatrix$initializer$@AISFGLRGBColorSpace@ARC_AISF@@3P6AXXZEA 0000000140015320     IniSetting.obj
 0002:00001328       ?strQssMenu$initializer$@@3P6AXXZEA 0000000140015328     MenuManager.obj
 0002:00001330       ?dummy$initializer$@?A0x7ab48115@@3P6AXXZEA 0000000140015330     qrc_appmainwnd.obj
 0002:00001338       ??staticMetaObject$initializer$@MyDrawWidget@@2P6AXXZEA@@3P6AXXZEA 0000000140015338     moc_MyDrawWidget.obj
 0002:00001340       ??staticMetaObject$initializer$@AppMainWnd@@2P6AXXZEA@@3P6AXXZEA 0000000140015340     moc_AppMainWnd.obj
 0002:00001348       ??staticMetaObject$initializer$@MyVideoSurface@@2P6AXXZEA@@3P6AXXZEA 0000000140015348     moc_MyVideoSurface.obj
 0002:00001350       ??staticMetaObject$initializer$@DlgAbout@@2P6AXXZEA@@3P6AXXZEA 0000000140015350     moc_DlgAbout.obj
 0002:00001358       ??staticMetaObject$initializer$@DlgHelp@@2P6AXXZEA@@3P6AXXZEA 0000000140015358     moc_DlgHelp.obj
 0002:00001360       ??staticMetaObject$initializer$@MenuManager@@2P6AXXZEA@@3P6AXXZEA 0000000140015360     moc_MenuManager.obj
 0002:00001368       ??staticMetaObject$initializer$@MyLabel@@2P6AXXZEA@@3P6AXXZEA 0000000140015368     moc_MyLabel.obj
 0002:00001370       ??staticMetaObject$initializer$@MyPanelBase@@2P6AXXZEA@@3P6AXXZEA 0000000140015370     moc_MyPanelBase.obj
 0002:00001378       ??staticMetaObject$initializer$@MyWidget@@2P6AXXZEA@@3P6AXXZEA 0000000140015378     moc_MyWidget.obj
 0002:00001380       ??staticMetaObject$initializer$@FileBrowser@@2P6AXXZEA@@3P6AXXZEA 0000000140015380     moc_FileBrowser.obj
 0002:00001388       ??staticMetaObject$initializer$@TranslationWatcher@QFormInternal@@2P6AXXZEA@@3P6AXXZEA 0000000140015388     Qt5UiTools:quiloader.obj
 0002:00001390       ??staticMetaObject$initializer$@QUiLoader@@2P6AXXZEA@@3P6AXXZEA 0000000140015390     Qt5UiTools:moc_quiloader.obj
 0002:00001398       ?qt_meta_extradata_QFormInternal__QAbstractFormBuilderGadget$initializer$@@3P6AXXZEA 0000000140015398     Qt5UiTools:moc_properties_p.obj
 0002:000013a0       ??staticMetaObject$initializer$@QAbstractFormBuilderGadget@QFormInternal@@2P6AXXZEA@@3P6AXXZEA 00000001400153a0     Qt5UiTools:moc_properties_p.obj
 0002:000013b8       ?pre_c_initializer@@3P6AHXZEA 00000001400153b8     MSVCRT:exe_winmain.obj
 0002:000013c0       ?post_pgo_initializer@@3P6AHXZEA 00000001400153c0     MSVCRT:exe_winmain.obj
 0002:000013c8       ?__scrt_initialize_tss_var@@3P6AHXZEA 00000001400153c8     MSVCRT:thread_safe_statics.obj
 0002:00001420       ?piecewise_construct@std@@3Upiecewise_construct_t@1@B 0000000140015420     AppMainWnd.obj
 0002:00001428       $cppxdata$??H@YA?BVQString@@AEBV0@PEBD@Z 0000000140015428     AppMainWnd.obj
 0002:00001450       $cppxdata$??0?$QList@VQString@@@@QEAA@AEBV0@@Z 0000000140015450     AppMainWnd.obj
 0002:00001478       $cppxdata$??1?$QList@VQString@@@@QEAA@XZ 0000000140015478     AppMainWnd.obj
 0002:000014a0       $cppxdata$??4?$QList@VQString@@@@QEAAAEAV0@AEBV0@@Z 00000001400154a0     AppMainWnd.obj
 0002:000014c8       $cppxdata$?append@?$QList@VQString@@@@QEAAXAEBVQString@@@Z 00000001400154c8     AppMainWnd.obj
 0002:000014f0       $cppxdata$?detach_helper_grow@?$QList@VQString@@@@AEAAPEAUNode@1@HH@Z 00000001400154f0     AppMainWnd.obj
 0002:00001518       $cppxdata$?node_copy@?$QList@VQString@@@@AEAAXPEAUNode@1@00@Z 0000000140015518     AppMainWnd.obj
 0002:00001540       $cppxdata$?setupUi@Ui_AppMainWndClass@@QEAAXPEAVQMainWindow@@@Z 0000000140015540     AppMainWnd.obj
 0002:00001568       $cppxdata$?_Buyheadnode@?$_Tree_comp_alloc@V?$_Tmap_traits@HPEAVMyPanelBase@@U?$less@H@std@@V?$allocator@U?$pair@$$CBHPEAVMyPanelBase@@@std@@@3@$0A@@std@@@std@@QEAAPEAU?$_Tree_node@U?$pair@$$CBHPEAVMyPanelBase@@@std@@PEAX@2@XZ 0000000140015568     AppMainWnd.obj
 0002:00001590       $cppxdata$?_Buynode0@?$_Tree_comp_alloc@V?$_Tmap_traits@HPEAVMyPanelBase@@U?$less@H@std@@V?$allocator@U?$pair@$$CBHPEAVMyPanelBase@@@std@@@3@$0A@@std@@@std@@QEAAPEAU?$_Tree_node@U?$pair@$$CBHPEAVMyPanelBase@@@std@@PEAX@2@XZ 0000000140015590     AppMainWnd.obj
 0002:000015b8       $cppxdata$?clear@?$_Tree@V?$_Tmap_traits@HPEAVMyPanelBase@@U?$less@H@std@@V?$allocator@U?$pair@$$CBHPEAVMyPanelBase@@@std@@@3@$0A@@std@@@std@@QEAAXXZ 00000001400155b8     AppMainWnd.obj
 0002:000015e0       $cppxdata$??0AppMainWnd@@QEAA@PEAVQWidget@@@Z 00000001400155e0     AppMainWnd.obj
 0002:00001608       $cppxdata$?InitUI@AppMainWnd@@QEAAXW4PAGE_TYPE@1@@Z 0000000140015608     AppMainWnd.obj
 0002:00001630       $cppxdata$?ActivePage@AppMainWnd@@QEAAXW4PAGE_TYPE@1@_N@Z 0000000140015630     AppMainWnd.obj
 0002:00001658       $cppxdata$?DoCmdOpenFiles@AppMainWnd@@QEAAXVQStringList@@@Z 0000000140015658     AppMainWnd.obj
 0002:00001680       $cppxdata$?DoFileConvert@AppMainWnd@@QEAAXXZ 0000000140015680     AppMainWnd.obj
 0002:000016a8       $cppxdata$?DoBatchFileConvert@AppMainWnd@@QEAAXXZ 00000001400156a8     AppMainWnd.obj
 0002:000016d0       $cppxdata$?OnFileSelected@AppMainWnd@@AEAAXVQStringList@@@Z 00000001400156d0     AppMainWnd.obj
 0002:000016f8       $cppxdata$?dragEnterEvent@AppMainWnd@@MEAAXPEAVQDragEnterEvent@@@Z 00000001400156f8     AppMainWnd.obj
 0002:00001720       $cppxdata$?dropEvent@AppMainWnd@@MEAAXPEAVQDropEvent@@@Z 0000000140015720     AppMainWnd.obj
 0002:00001748       $cppxdata$??1?$QList@VQUrl@@@@QEAA@XZ 0000000140015748     AppMainWnd.obj
 0002:00001770       $cppxdata$?detach_helper@?$QList@VQUrl@@@@AEAAXH@Z 0000000140015770     AppMainWnd.obj
 0002:00001798       $cppxdata$?node_copy@?$QList@VQUrl@@@@AEAAXPEAUNode@1@00@Z 0000000140015798     AppMainWnd.obj
 0002:000017c0       $cppxdata$??$_Buynode@U?$pair@W4PAGE_TYPE@AppMainWnd@@PEAVMyPanelBase@@@std@@@?$_Tree_comp_alloc@V?$_Tmap_traits@HPEAVMyPanelBase@@U?$less@H@std@@V?$allocator@U?$pair@$$CBHPEAVMyPanelBase@@@std@@@3@$0A@@std@@@std@@QEAAPEAU?$_Tree_node@U?$pair@$$CBHPEAVMyPanelBase@@@std@@PEAX@1@$$QEAU?$pair@W4PAGE_TYPE@AppMainWnd@@PEAVMyPanelBase@@@1@@Z 00000001400157c0     AppMainWnd.obj
 0002:000017c0       $cppxdata$??$_Buynode@U?$pair@W4PANEL_TYPE@ComparePage@@PEAVMyPanelBase@@@std@@@?$_Tree_comp_alloc@V?$_Tmap_traits@HPEAVMyPanelBase@@U?$less@H@std@@V?$allocator@U?$pair@$$CBHPEAVMyPanelBase@@@std@@@3@$0A@@std@@@std@@QEAAPEAU?$_Tree_node@U?$pair@$$CBHPEAVMyPanelBase@@@std@@PEAX@1@$$QEAU?$pair@W4PANEL_TYPE@ComparePage@@PEAVMyPanelBase@@@1@@Z 00000001400157c0     ComparePage.obj
 0002:000017e8       $cppxdata$??$_Insert_nohint@AEAU?$pair@$$CBHPEAVMyPanelBase@@@std@@PEAU?$_Tree_node@U?$pair@$$CBHPEAVMyPanelBase@@@std@@PEAX@2@@?$_Tree@V?$_Tmap_traits@HPEAVMyPanelBase@@U?$less@H@std@@V?$allocator@U?$pair@$$CBHPEAVMyPanelBase@@@std@@@3@$0A@@std@@@std@@IEAA?AU?$pair@V?$_Tree_iterator@V?$_Tree_val@U?$_Tree_simple_types@U?$pair@$$CBHPEAVMyPanelBase@@@std@@@std@@@std@@@std@@_N@1@_NAEAU?$pair@$$CBHPEAVMyPanelBase@@@1@PEAU?$_Tree_node@U?$pair@$$CBHPEAVMyPanelBase@@@std@@PEAX@1@@Z 00000001400157e8     AppMainWnd.obj
 0002:00001fd0       $cppxdata$?setupUi@Ui_Dialog_about@@QEAAXPEAVQDialog@@@Z 0000000140015fd0     DlgAbout.obj
 0002:00001ff8       $cppxdata$??0DlgAbout@@QEAA@PEAVQWidget@@V?$QFlags@W4WindowType@Qt@@@@@Z 0000000140015ff8     DlgAbout.obj
 0002:00002828       $cppxdata$?setupUi@Ui_Dialog_setting@@QEAAXPEAVQDialog@@@Z 0000000140016828     DlgHelp.obj
 0002:00002850       $cppxdata$??0DlgHelp@@QEAA@PEAVQWidget@@V?$QFlags@W4WindowType@Qt@@@@@Z 0000000140016850     DlgHelp.obj
 0002:0000739a       ?piecewise_construct@std@@3Upiecewise_construct_t@1@B 000000014001b39a     ComparePage.obj
 0002:000073a0       $cppxdata$?setupUi@Ui_edit_root@@QEAAXPEAVQWidget@@@Z 000000014001b3a0     ComparePage.obj
 0002:000073c8       $cppxdata$??0ComparePage@@QEAA@PEAVAppMainWnd@@HPEAVQWidget@@@Z 000000014001b3c8     ComparePage.obj
 0002:000073f0       $cppxdata$?Init@ComparePage@@UEAAXXZ 000000014001b3f0     ComparePage.obj
 0002:00007418       $cppxdata$?ShowPanel@ComparePage@@QEAAXW4PANEL_TYPE@1@_N@Z 000000014001b418     ComparePage.obj
 0002:00007440       $cppxdata$?SetCompareFiles@ComparePage@@QEAAXVQStringList@@_N@Z 000000014001b440     ComparePage.obj
 0002:00007578       ?piecewise_construct@std@@3Upiecewise_construct_t@1@B 000000014001b578     FileBrowser.obj
 0002:00007580       $cppxdata$?OpenFileDialog@FileBrowser@@QEAAXXZ 000000014001b580     FileBrowser.obj
 0002:00007651       ?piecewise_construct@std@@3Upiecewise_construct_t@1@B 000000014001b651     HomePage.obj
 0002:00007658       $cppxdata$?setupUi@Ui_home_root@@QEAAXPEAVQWidget@@@Z 000000014001b658     HomePage.obj
 0002:00007680       $cppxdata$?retranslateUi@Ui_home_root@@QEAAXPEAVQWidget@@@Z 000000014001b680     HomePage.obj
 0002:000076a8       $cppxdata$?Init@HomePage@@UEAAXXZ 000000014001b6a8     HomePage.obj
 0002:000076d0       $cppxdata$?OnBtnHelp@HomePage@@AEAAX_N@Z 000000014001b6d0     HomePage.obj
 0002:0000843e       ?piecewise_construct@std@@3Upiecewise_construct_t@1@B 000000014001c43e     CompareViewPanel.obj
 0002:00008440       $cppxdata$??4?$QList@VQString@@@@QEAAAEAV0@$$QEAV0@@Z 000000014001c440     CompareViewPanel.obj
 0002:00008468       $cppxdata$?clear@?$QList@VQString@@@@QEAAXXZ 000000014001c468     CompareViewPanel.obj
 0002:00008490       $cppxdata$?setupUi@Ui_compare_root@@QEAAXPEAVQWidget@@@Z 000000014001c490     CompareViewPanel.obj
 0002:000084b8       $cppxdata$?Init@CompareViewPanel@@UEAAXXZ 000000014001c4b8     CompareViewPanel.obj
 0002:000084e0       $cppxdata$?SetCompareFiles@CompareViewPanel@@QEAAXVQStringList@@_N@Z 000000014001c4e0     CompareViewPanel.obj
 0002:00008508       $cppxdata$?DoInitDrawWidget@CompareViewPanel@@QEAAXPEAVQWidget@@W4AISFCV_COMPAREVIEW_INDEX@ARC_AISF@@@Z 000000014001c508     CompareViewPanel.obj
 0002:00008530       $cppxdata$?GetFileListbyPath@CompareViewPanel@@AEAAXPEAD@Z 000000014001c530     CompareViewPanel.obj
 0002:00008558       $cppxdata$?DoDisplayFilebyIndex@CompareViewPanel@@AEAAXH@Z 000000014001c558     CompareViewPanel.obj
 0002:00008580       $cppxdata$??_G?$MyAutoPtr@VAISFCompareView@ARC_AISF@@@@UEAAPEAXI@Z 000000014001c580     CompareViewPanel.obj
 0002:000085a8       $cppxdata$??_GCompareViewPanel@@UEAAPEAXI@Z 000000014001c5a8     CompareViewPanel.obj
 0002:00008ca8       $cppxdata$?GetLastInputPath@IniSetting@@SA?AVQString@@PEBD@Z 000000014001cca8     IniSetting.obj
 0002:00008cd0       $cppxdata$?GetLastFilterType@IniSetting@@SAHPEBD@Z 000000014001ccd0     IniSetting.obj
 0002:00008cf8       $cppxdata$?GetImageExtFilter@IniSetting@@SA?AVQString@@W4SETTING_TYPE@1@@Z 000000014001ccf8     IniSetting.obj
 0002:00008d20       $cppxdata$?GetVideoExtFilter@IniSetting@@SA?AVQString@@W4SETTING_TYPE@1@@Z 000000014001cd20     IniSetting.obj
 0002:00008d48       $cppxdata$?GetAppName@IniSetting@@SA?AVQString@@W4SETTING_TYPE@1@@Z 000000014001cd48     IniSetting.obj
 0002:00008d70       $cppxdata$?IfShowDrawPanel@IniSetting@@SAHW4SETTING_TYPE@1@@Z 000000014001cd70     IniSetting.obj
 0002:00008d98       $cppxdata$?GetUserConfigFile@IniSetting@@CA?AVQString@@PEBD@Z 000000014001cd98     IniSetting.obj
 0002:00008dc0       $cppxdata$?GetAppSetFile@IniSetting@@CA?AVQString@@W4SETTING_TYPE@1@@Z 000000014001cdc0     IniSetting.obj
 0002:00008ed6       ?piecewise_construct@std@@3Upiecewise_construct_t@1@B 000000014001ced6     MainToolbarPanel.obj
 0002:000090a0       $cppxdata$?setupUi@Ui_maintoolbar_root@@QEAAXPEAVQWidget@@@Z 000000014001d0a0     MainToolbarPanel.obj
 0002:000090c8       $cppxdata$?retranslateUi@Ui_maintoolbar_root@@QEAAXPEAVQWidget@@@Z 000000014001d0c8     MainToolbarPanel.obj
 0002:000090f0       $cppxdata$?Init@MainToolbarPanel@@UEAAXXZ 000000014001d0f0     MainToolbarPanel.obj
 0002:00009e76       ?piecewise_construct@std@@3Upiecewise_construct_t@1@B 000000014001de76     MenuManager.obj
 0002:0000a017       ?piecewise_construct@std@@3Upiecewise_construct_t@1@B 000000014001e017     MyPanelBase.obj
 0002:0000a2a0       $cppxdata$??0MyWidget@@QEAA@PEAVQWidget@@V?$QFlags@W4WindowType@Qt@@@@@Z 000000014001e2a0     MyWidget.obj
 0002:0000a478       $cppxdata$?SetWidgetBackColor@QTUICommon@@SAXPEAVQWidget@@AEBVQColor@@@Z 000000014001e478     QTUICommon.obj
 0002:0000a4a0       $cppxdata$??0MyDrawWidget@@QEAA@HPEAVQWidget@@V?$QFlags@W4WindowType@Qt@@@@@Z 000000014001e4a0     MyDrawWidget.obj
 0002:0000a4c8       $cppxdata$?paintEvent@MyDrawWidget@@MEAAXPEAVQPaintEvent@@@Z 000000014001e4c8     MyDrawWidget.obj
 0002:0000a6a8       ?piecewise_construct@std@@3Upiecewise_construct_t@1@B 000000014001e6a8     TitleBar.obj
 0002:0000a6b0       $cppxdata$?setupUi@Ui_titlebar_root@@QEAAXPEAVQWidget@@@Z 000000014001e6b0     TitleBar.obj
 0002:0000a6d8       $cppxdata$?retranslateUi@Ui_titlebar_root@@QEAAXPEAVQWidget@@@Z 000000014001e6d8     TitleBar.obj
 0002:0000a700       $cppxdata$?Init@TitleBar@@UEAAXXZ 000000014001e700     TitleBar.obj
 0002:0000a728       $cppxdata$?UpdateTitleBar@TitleBar@@QEAAXXZ 000000014001e728     TitleBar.obj
 0002:0000a750       $cppxdata$?OnAboutClicked@TitleBar@@AEAAX_N@Z 000000014001e750     TitleBar.obj
 0002:0000aca7       ?piecewise_construct@std@@3Upiecewise_construct_t@1@B 000000014001eca7     main.obj
 0002:0000aca8       $cppxdata$?detach_helper@?$QList@VQString@@@@AEAAXH@Z 000000014001eca8     main.obj
 0002:0000acd0       $cppxdata$main             000000014001ecd0     main.obj
 0002:0000ade0       ?qt_resource_data@@3QBEB   000000014001ede0     qrc_appmainwnd.obj
 0002:00020bd0       ?qt_resource_name@@3QBEB   0000000140034bd0     qrc_appmainwnd.obj
 0002:000214e0       ?qt_resource_struct@@3QBEB 00000001400354e0     qrc_appmainwnd.obj
 0002:000219e0       $cppxdata$??__Fdummy@?A0x7ab48115@@YAXXZ 00000001400359e0     qrc_appmainwnd.obj
 0002:00021a40       ?qt_meta_stringdata_MainToolbarPanel@@3Uqt_meta_stringdata_MainToolbarPanel_t@@B 0000000140035a40     moc_MainToolbarPanel.obj
 0002:00021bd0       ?qt_meta_data_MainToolbarPanel@@3QBIB 0000000140035bd0     moc_MainToolbarPanel.obj
 0002:00021cd0       ?qt_meta_stringdata_MyDrawWidget@@3Uqt_meta_stringdata_MyDrawWidget_t@@B 0000000140035cd0     moc_MyDrawWidget.obj
 0002:00021d50       ?qt_meta_data_MyDrawWidget@@3QBIB 0000000140035d50     moc_MyDrawWidget.obj
 0002:00021db0       ?qt_meta_stringdata_AppMainWnd@@3Uqt_meta_stringdata_AppMainWnd_t@@B 0000000140035db0     moc_AppMainWnd.obj
 0002:00021e38       ?piecewise_construct@std@@3Upiecewise_construct_t@1@B 0000000140035e38     moc_AppMainWnd.obj
 0002:00021e40       ?qt_meta_data_AppMainWnd@@3QBIB 0000000140035e40     moc_AppMainWnd.obj
 0002:00021ea0       ?qt_meta_stringdata_MyVideoSurface@@3Uqt_meta_stringdata_MyVideoSurface_t@@B 0000000140035ea0     moc_MyVideoSurface.obj
 0002:00021ec8       ?qt_meta_data_MyVideoSurface@@3QBIB 0000000140035ec8     moc_MyVideoSurface.obj
 0002:00021f08       ?qt_meta_stringdata_DlgAbout@@3Uqt_meta_stringdata_DlgAbout_t@@B 0000000140035f08     moc_DlgAbout.obj
 0002:00021f30       ?qt_meta_data_DlgAbout@@3QBIB 0000000140035f30     moc_DlgAbout.obj
 0002:00021f70       ?qt_meta_stringdata_DlgHelp@@3Uqt_meta_stringdata_DlgHelp_t@@B 0000000140035f70     moc_DlgHelp.obj
 0002:00022010       ?qt_meta_data_DlgHelp@@3QBIB 0000000140036010     moc_DlgHelp.obj
 0002:000220c0       ?qt_meta_stringdata_CompareViewPanel@@3Uqt_meta_stringdata_CompareViewPanel_t@@B 00000001400360c0     moc_CompareViewPanel.obj
 0002:000221c0       ?qt_meta_data_CompareViewPanel@@3QBIB 00000001400361c0     moc_CompareViewPanel.obj
 0002:00022260       ?qt_meta_stringdata_MenuManager@@3Uqt_meta_stringdata_MenuManager_t@@B 0000000140036260     moc_MenuManager.obj
 0002:00022300       ?qt_meta_data_MenuManager@@3QBIB 0000000140036300     moc_MenuManager.obj
 0002:00022390       ?qt_meta_stringdata_MyLabel@@3Uqt_meta_stringdata_MyLabel_t@@B 0000000140036390     moc_MyLabel.obj
 0002:00022510       ?qt_meta_data_MyLabel@@3QBIB 0000000140036510     moc_MyLabel.obj
 0002:000225f0       ?qt_meta_stringdata_MyPanelBase@@3Uqt_meta_stringdata_MyPanelBase_t@@B 00000001400365f0     moc_MyPanelBase.obj
 0002:000227c0       ?qt_meta_data_MyPanelBase@@3QBIB 00000001400367c0     moc_MyPanelBase.obj
 0002:000228c0       ?qt_meta_stringdata_MyWidget@@3Uqt_meta_stringdata_MyWidget_t@@B 00000001400368c0     moc_MyWidget.obj
 0002:00022b00       ?qt_meta_data_MyWidget@@3QBIB 0000000140036b00     moc_MyWidget.obj
 0002:00022c40       ?qt_meta_stringdata_FileBrowser@@3Uqt_meta_stringdata_FileBrowser_t@@B 0000000140036c40     moc_FileBrowser.obj
 0002:00022cd0       ?qt_meta_data_FileBrowser@@3QBIB 0000000140036cd0     moc_FileBrowser.obj
 0002:00022d30       $cppxdata$?qt_static_metacall@FileBrowser@@CAXPEAVQObject@@W4Call@QMetaObject@@HPEAPEAX@Z 0000000140036d30     moc_FileBrowser.obj
 0002:00022d58       $cppxdata$?FileSelected@FileBrowser@@QEAAXVQStringList@@@Z 0000000140036d58     moc_FileBrowser.obj
 0002:00022db0       ?qt_meta_stringdata_ComparePage@@3Uqt_meta_stringdata_ComparePage_t@@B 0000000140036db0     moc_ComparePage.obj
 0002:00022dd8       ?qt_meta_data_ComparePage@@3QBIB 0000000140036dd8     moc_ComparePage.obj
 0002:00022e50       ?qt_meta_stringdata_HomePage@@3Uqt_meta_stringdata_HomePage_t@@B 0000000140036e50     moc_HomePage.obj
 0002:00022f20       ?qt_meta_data_HomePage@@3QBIB 0000000140036f20     moc_HomePage.obj
 0002:00022ff0       ?qt_meta_stringdata_TitleBar@@3Uqt_meta_stringdata_TitleBar_t@@B 0000000140036ff0     moc_TitleBar.obj
 0002:00023140       ?qt_meta_data_TitleBar@@3QBIB 0000000140037140     moc_TitleBar.obj
 0002:00023240       ?qt_meta_data_QFormInternal__TranslationWatcher@@3QBIB 0000000140037240     Qt5UiTools:quiloader.obj
 0002:000232a8       ?qt_meta_data_QUiLoader@@3QBIB 00000001400372a8     Qt5UiTools:moc_quiloader.obj
 0002:00023300       ?qt_meta_data_QFormInternal__QAbstractFormBuilderGadget@@3QBIB 0000000140037300     Qt5UiTools:moc_properties_p.obj
 0002:00023410       $cppxdata$?__scrt_initialize_thread_safe_statics@@YAHXZ 0000000140037410     MSVCRT:thread_safe_statics.obj
 0002:00023590       GS_ExceptionPointers       0000000140037590     MSVCRT:gs_report.obj
 0002:000254a0       $unwind$??0bad_array_new_length@std@@QEAA@AEBV01@@Z 00000001400394a0     MSVCRT:throw_bad_alloc.obj
 0002:000254a0       $unwind$__raise_securityfailure 00000001400394a0     MSVCRT:gs_report.obj
 0002:000254a0       $unwind$??_GAISFReferenceInter@ARC_AISF@@UEAAPEAXI@Z 00000001400394a0     CompareViewPanel.obj
 0002:000254a0       $unwind$_onexit            00000001400394a0     MSVCRT:utility.obj
 0002:000254a0       $unwind$_Init_thread_header 00000001400394a0     MSVCRT:thread_safe_statics.obj
 0002:000254a0       $unwind$?pre_c_initialization@@YAHXZ 00000001400394a0     MSVCRT:exe_winmain.obj
 0002:000254a0       $unwind$??0bad_alloc@std@@QEAA@AEBV01@@Z 00000001400394a0     MSVCRT:throw_bad_alloc.obj
 0002:000254a0       $unwind$??0HomePage@@QEAA@PEAVAppMainWnd@@HPEAVQWidget@@@Z 00000001400394a0     HomePage.obj
 0002:000254a0       $unwind$?OnMinWndClicked@TitleBar@@AEAAX_N@Z 00000001400394a0     TitleBar.obj
 0002:000254a0       $unwind$__scrt_initialize_crt 00000001400394a0     MSVCRT:utility.obj
 0002:000254a0       $unwind$??_GIAISFCompareViewCallback@ARC_AISF@@UEAAPEAXI@Z 00000001400394a0     CompareViewPanel.obj
 0002:000254a0       $unwind$_Init_thread_wait  00000001400394a0     MSVCRT:thread_safe_statics.obj
 0002:000254a0       $unwind$__scrt_uninitialize_crt 00000001400394a0     MSVCRT:utility.obj
 0002:000254a0       $unwind$?UnInit@HomePage@@UEAAXXZ 00000001400394a0     HomePage.obj
 0002:000254a0       $unwind$??0TitleBar@@QEAA@PEAVAppMainWnd@@HPEAVQWidget@@@Z 00000001400394a0     TitleBar.obj
 0002:000254a0       $unwind$?Release@MyCompareViewCallback@@UEAAHXZ 00000001400394a0     CompareViewPanel.obj
 0002:000254a0       $unwind$??_GMyCompareViewCallback@@UEAAPEAXI@Z 00000001400394a0     CompareViewPanel.obj
 0002:000254a0       $unwind$?OnVideoModeToggled@HomePage@@AEAAXXZ 00000001400394a0     HomePage.obj
 0002:000254a0       $unwind$?UnInit@TitleBar@@UEAAXXZ 00000001400394a0     TitleBar.obj
 0002:000254a0       $unwind$??1?$basic_string@DU?$char_traits@D@std@@V?$allocator@D@2@@std@@QEAA@XZ 00000001400394a0     AppMainWnd.obj
 0002:000254a0       $unwind$?OnBtnNext_clicked@CompareViewPanel@@QEAAX_N@Z 00000001400394a0     CompareViewPanel.obj
 0002:000254a0       $unwind$?OnBtnPre_clicked@CompareViewPanel@@QEAAX_N@Z 00000001400394a0     CompareViewPanel.obj
 0002:000254a0       $unwind$??_GAISFReferenceImp@@UEAAPEAXI@Z 00000001400394a0     CompareViewPanel.obj
 0002:000254a0       $unwind$__scrt_release_startup_lock 00000001400394a0     MSVCRT:utility.obj
 0002:000254a0       $unwind$_Init_thread_footer 00000001400394a0     MSVCRT:thread_safe_statics.obj
 0002:000254a0       $unwind$??0exception@std@@QEAA@AEBV01@@Z 00000001400394a0     MSVCRT:throw_bad_alloc.obj
 0002:000254a0       $unwind$?OnMaxWndClicked@TitleBar@@AEAAX_N@Z 00000001400394a0     TitleBar.obj
 0002:000254a0       $unwind$??0MainToolbarPanel@@QEAA@PEAVAppMainWnd@@HPEAVQWidget@@@Z 00000001400394a0     MainToolbarPanel.obj
 0002:000254a0       $unwind$??0CAppAssistWnd@@QEAA@PEAVIAppHandle@@@Z 00000001400394a0     AppAssistWnd.obj
 0002:000254a0       $unwind$?UnInit@CompareViewPanel@@UEAAXXZ 00000001400394a0     CompareViewPanel.obj
 0002:000254a0       $unwind$??_Gtype_info@@UEAAPEAXI@Z 00000001400394a0     MSVCRT:std_type_info_static.obj
 0002:000254a0       $unwind$?DetroyWnd@CAppAssistWnd@@QEAAXXZ 00000001400394a0     AppAssistWnd.obj
 0002:000254a0       $unwind$?ReleaseCompareView@CompareViewPanel@@AEAAXXZ 00000001400394a0     CompareViewPanel.obj
 0002:000254a0       $unwind$??2@YAPEAX_K@Z     00000001400394a0     MSVCRT:new_scalar.obj
 0002:000254a0       $unwind$?OnPanelMouseDoubleClick@TitleBar@@UEAAXPEAVQMouseEvent@@@Z 00000001400394a0     TitleBar.obj
 0002:000254a0       $unwind$??1?$map@HPEAVMyPanelBase@@U?$less@H@std@@V?$allocator@U?$pair@$$CBHPEAVMyPanelBase@@@std@@@3@@std@@QEAA@XZ 00000001400394a0     AppMainWnd.obj
 0002:000254a0       $unwind$?OnPanelMouseDoubleClick@MainToolbarPanel@@MEAAXPEAVQMouseEvent@@@Z 00000001400394a0     MainToolbarPanel.obj
 0002:000254a8       $unwind$?CreateWnd@CAppAssistWnd@@QEAAXPEAUHINSTANCE__@@PEB_W@Z 00000001400394a8     AppAssistWnd.obj
 0002:000254c0       $unwind$__GSHandlerCheck   00000001400394c0     MSVCRT:gshandler.obj
 0002:000254c0       $unwind$__scrt_unhandled_exception_filter 00000001400394c0     MSVCRT:utility_desktop.obj
 0002:000254c0       $unwind$?pre_cpp_initialization@@YAXXZ 00000001400394c0     MSVCRT:exe_winmain.obj
 0002:000254c0       $unwind$??__Edummy@?A0x7ab48115@@YAXXZ 00000001400394c0     qrc_appmainwnd.obj
 0002:000254c0       $unwind$?__scrt_uninitialize_thread_safe_statics@@YAXXZ 00000001400394c0     MSVCRT:thread_safe_statics.obj
 0002:000254c0       $unwind$?post_pgo_initialization@@YAHXZ 00000001400394c0     MSVCRT:exe_winmain.obj
 0002:000254c0       $unwind$atexit             00000001400394c0     MSVCRT:utility.obj
 0002:000254c0       $unwind$?deallocate@?$allocator@U?$_Tree_node@U?$pair@$$CBHPEAVMyPanelBase@@@std@@PEAX@std@@@std@@QEAAXQEAU?$_Tree_node@U?$pair@$$CBHPEAVMyPanelBase@@@std@@PEAX@2@_K@Z 00000001400394c0     AppMainWnd.obj
 0002:000254c0       $unwind$__scrt_acquire_startup_lock 00000001400394c0     MSVCRT:utility.obj
 0002:000254c0       $unwind$?WindowProc@CAppAssistWnd@@KA_JPEAUHWND__@@I_K_J@Z 00000001400394c0     AppAssistWnd.obj
 0002:000254c0       $unwind$??__EstrQssMenu@@YAXXZ 00000001400394c0     MenuManager.obj
 0002:000254c0       $unwind$__scrt_is_managed_app 00000001400394c0     MSVCRT:utility_desktop.obj
 0002:000254c0       $unwind$_Init_thread_notify 00000001400394c0     MSVCRT:thread_safe_statics.obj
 0002:000254c0       $unwind$?_Xlen@?$basic_string@DU?$char_traits@D@std@@V?$allocator@D@2@@std@@SAXXZ 00000001400394c0     AppMainWnd.obj
 0002:000254c0       $unwind$__scrt_initialize_default_local_stdio_options 00000001400394c0     MSVCRT:default_local_stdio_options.obj
 0002:000254c0       $unwind$?DoSingleImgViewInit@MyCompareViewCallback@@UEAAHPEAVQWidget@@W4AISFCV_COMPAREVIEW_INDEX@ARC_AISF@@@Z 00000001400394c0     CompareViewPanel.obj
 0002:000254c0       $unwind$WinMainCRTStartup  00000001400394c0     MSVCRT:exe_winmain.obj
 0002:000254c8       $unwind$??0CompareViewPanel@@QEAA@PEAVAppMainWnd@@HPEAVQWidget@@@Z 00000001400394c8     CompareViewPanel.obj
 0002:000254c8       $unwind$??_GFileBrowser@@UEAAPEAXI@Z 00000001400394c8     FileBrowser.obj
 0002:000254c8       $unwind$??_GDlgHelp@@UEAAPEAXI@Z 00000001400394c8     DlgHelp.obj
 0002:000254c8       $unwind$??_GMainToolbarPanel@@UEAAPEAXI@Z 00000001400394c8     MainToolbarPanel.obj
 0002:000254c8       $unwind$?wheelEvent@MyWidget@@MEAAXPEAVQWheelEvent@@@Z 00000001400394c8     MyWidget.obj
 0002:000254c8       $unwind$_RTC_Terminate     00000001400394c8     MSVCRT:initsect.obj
 0002:000254c8       $unwind$?mouseDoubleClickEvent@MyWidget@@MEAAXPEAVQMouseEvent@@@Z 00000001400394c8     MyWidget.obj
 0002:000254c8       $unwind$??_GQVBoxLayout@@UEAAPEAXI@Z 00000001400394c8     DlgHelp.obj
 0002:000254c8       $unwind$??_GMyWidget@@UEAAPEAXI@Z 00000001400394c8     MyWidget.obj
 0002:000254c8       $unwind$_RTC_Initialize    00000001400394c8     MSVCRT:initsect.obj
 0002:000254c8       $unwind$??_GQLabel@@UEAAPEAXI@Z 00000001400394c8     DlgHelp.obj
 0002:000254c8       $unwind$?Show@ComparePage@@UEAAX_N@Z 00000001400394c8     ComparePage.obj
 0002:000254c8       $unwind$?Show@TitleBar@@UEAAX_N@Z 00000001400394c8     TitleBar.obj
 0002:000254c8       $unwind$??_GQRadioButton@@UEAAPEAXI@Z 00000001400394c8     HomePage.obj
 0002:000254c8       $unwind$??_GCAppAssistWnd@@UEAAPEAXI@Z 00000001400394c8     AppAssistWnd.obj
 0002:000254c8       $unwind$??_GQGridLayout@@UEAAPEAXI@Z 00000001400394c8     AppMainWnd.obj
 0002:000254c8       $unwind$??_GQHBoxLayout@@UEAAPEAXI@Z 00000001400394c8     HomePage.obj
 0002:000254c8       $unwind$??_GQFrame@@UEAAPEAXI@Z 00000001400394c8     AppMainWnd.obj
 0002:000254c8       $unwind$??_GQCheckBox@@UEAAPEAXI@Z 00000001400394c8     MainToolbarPanel.obj
 0002:000254c8       $unwind$??_GQWidget@@UEAAPEAXI@Z 00000001400394c8     AppMainWnd.obj
 0002:000254c8       $unwind$?UnInit@MenuManager@@QEAAXXZ 00000001400394c8     MenuManager.obj
 0002:000254c8       $unwind$??_Gbad_array_new_length@std@@UEAAPEAXI@Z 00000001400394c8     MSVCRT:throw_bad_alloc.obj
 0002:000254c8       $unwind$??_GQTextBrowser@@UEAAPEAXI@Z 00000001400394c8     DlgAbout.obj
 0002:000254c8       $unwind$??0FileBrowser@@QEAA@PEAVAppMainWnd@@@Z 00000001400394c8     FileBrowser.obj
 0002:000254c8       $unwind$?mouseReleaseEvent@MyWidget@@MEAAXPEAVQMouseEvent@@@Z 00000001400394c8     MyWidget.obj
 0002:000254c8       $unwind$??_GQPushButton@@UEAAPEAXI@Z 00000001400394c8     DlgAbout.obj
 0002:000254c8       $unwind$?mousePressEvent@MyWidget@@MEAAXPEAVQMouseEvent@@@Z 00000001400394c8     MyWidget.obj
 0002:000254c8       $unwind$??_GHomePage@@UEAAPEAXI@Z 00000001400394c8     HomePage.obj
 0002:000254c8       $unwind$??_GTitleBar@@UEAAPEAXI@Z 00000001400394c8     TitleBar.obj
 0002:000254c8       $unwind$?keyReleaseEvent@MyWidget@@MEAAXPEAVQKeyEvent@@@Z 00000001400394c8     MyWidget.obj
 0002:000254c8       $unwind$?ShowTitleBar@AppMainWnd@@QEAAX_N@Z 00000001400394c8     AppMainWnd.obj
 0002:000254c8       $unwind$?showEvent@AppMainWnd@@MEAAXPEAVQShowEvent@@@Z 00000001400394c8     AppMainWnd.obj
 0002:000254c8       $unwind$?UpdateFileSwitchBtnStatus@CompareViewPanel@@AEAAXXZ 00000001400394c8     CompareViewPanel.obj
 0002:000254c8       $unwind$??_GQSpacerItem@@UEAAPEAXI@Z 00000001400394c8     HomePage.obj
 0002:000254c8       $unwind$?Show@CompareViewPanel@@UEAAX_N@Z 00000001400394c8     CompareViewPanel.obj
 0002:000254c8       $unwind$??_Gbad_alloc@std@@UEAAPEAXI@Z 00000001400394c8     MSVCRT:throw_bad_alloc.obj
 0002:000254c8       $unwind$??_GMyDrawWidget@@UEAAPEAXI@Z 00000001400394c8     MyDrawWidget.obj
 0002:000254c8       $unwind$?mouseReleaseEvent@MyDrawWidget@@MEAAXPEAVQMouseEvent@@@Z 00000001400394c8     MyDrawWidget.obj
 0002:000254c8       $unwind$??_Gexception@std@@UEAAPEAXI@Z 00000001400394c8     MSVCRT:throw_bad_alloc.obj
 0002:000254c8       $unwind$?Show@MyPanelBase@@UEAAX_N@Z 00000001400394c8     MyPanelBase.obj
 0002:000254c8       $unwind$??_GMyPanelBase@@UEAAPEAXI@Z 00000001400394c8     MyPanelBase.obj
 0002:000254c8       $unwind$?mouseMoveEvent@MyWidget@@MEAAXPEAVQMouseEvent@@@Z 00000001400394c8     MyWidget.obj
 0002:000254c8       $unwind$?mousePressEvent@MyDrawWidget@@MEAAXPEAVQMouseEvent@@@Z 00000001400394c8     MyDrawWidget.obj
 0002:000254c8       $unwind$??_GDlgAbout@@UEAAPEAXI@Z 00000001400394c8     DlgAbout.obj
 0002:000254c8       $unwind$?resizeEvent@MyWidget@@MEAAXPEAVQResizeEvent@@@Z 00000001400394c8     MyWidget.obj
 0002:000254c8       $unwind$?keyPressEvent@MyWidget@@MEAAXPEAVQKeyEvent@@@Z 00000001400394c8     MyWidget.obj
 0002:000254c8       $unwind$??_GQScrollArea@@UEAAPEAXI@Z 00000001400394c8     DlgAbout.obj
 0002:000254d4       $unwind$?assign@?$basic_string@DU?$char_traits@D@std@@V?$allocator@D@2@@std@@QEAAAEAV12@QEBD_K@Z 00000001400394d4     AppMainWnd.obj
 0002:000254e8       $chain$0$?assign@?$basic_string@DU?$char_traits@D@std@@V?$allocator@D@2@@std@@QEAAAEAV12@QEBD_K@Z 00000001400394e8     AppMainWnd.obj
 0002:000254fc       $chain$1$?assign@?$basic_string@DU?$char_traits@D@std@@V?$allocator@D@2@@std@@QEAAAEAV12@QEBD_K@Z 00000001400394fc     AppMainWnd.obj
 0002:000254fc       $chain$3$?assign@?$basic_string@DU?$char_traits@D@std@@V?$allocator@D@2@@std@@QEAAAEAV12@QEBD_K@Z 00000001400394fc     AppMainWnd.obj
 0002:0002550c       $chain$2$?assign@?$basic_string@DU?$char_traits@D@std@@V?$allocator@D@2@@std@@QEAAAEAV12@QEBD_K@Z 000000014003950c     AppMainWnd.obj
 0002:00025520       $unwind$??H@YA?BVQString@@AEBV0@PEBD@Z 0000000140039520     AppMainWnd.obj
 0002:00025534       $stateUnwindMap$??H@YA?BVQString@@AEBV0@PEBD@Z 0000000140039534     AppMainWnd.obj
 0002:00025548       $ip2state$??H@YA?BVQString@@AEBV0@PEBD@Z 0000000140039548     AppMainWnd.obj
 0002:00025558       $unwind$?dtor$40@?0??setupUi@Ui_home_root@@QEAAXPEAVQWidget@@@Z@4HA 0000000140039558     HomePage.obj
 0002:00025558       $unwind$?dtor$6@?0??setupUi@Ui_edit_root@@QEAAXPEAVQWidget@@@Z@4HA 0000000140039558     ComparePage.obj
 0002:00025558       $unwind$?dtor$0@?0??Init@ComparePage@@UEAAXXZ@4HA 0000000140039558     ComparePage.obj
 0002:00025558       $unwind$?dtor$4@?0??setupUi@Ui_edit_root@@QEAAXPEAVQWidget@@@Z@4HA 0000000140039558     ComparePage.obj
 0002:00025558       $unwind$?dtor$8@?0??setupUi@Ui_edit_root@@QEAAXPEAVQWidget@@@Z@4HA 0000000140039558     ComparePage.obj
 0002:00025558       $unwind$?dtor$38@?0??setupUi@Ui_home_root@@QEAAXPEAVQWidget@@@Z@4HA 0000000140039558     HomePage.obj
 0002:00025558       $unwind$?dtor$2@?0??setupUi@Ui_edit_root@@QEAAXPEAVQWidget@@@Z@4HA 0000000140039558     ComparePage.obj
 0002:00025558       $unwind$?dtor$9@?0??GetVideoExtFilter@IniSetting@@SA?AVQString@@W4SETTING_TYPE@1@@Z@4HA 0000000140039558     IniSetting.obj
 0002:00025558       $unwind$?dtor$36@?0??setupUi@Ui_home_root@@QEAAXPEAVQWidget@@@Z@4HA 0000000140039558     HomePage.obj
 0002:00025558       $unwind$?filt$0@?0??__scrt_common_main_seh@@YAHXZ@4HA 0000000140039558     MSVCRT:exe_winmain.obj
 0002:00025558       $unwind$?dtor$10@?0??GetVideoExtFilter@IniSetting@@SA?AVQString@@W4SETTING_TYPE@1@@Z@4HA 0000000140039558     IniSetting.obj
 0002:00025558       $unwind$?dtor$45@?0??setupUi@Ui_home_root@@QEAAXPEAVQWidget@@@Z@4HA 0000000140039558     HomePage.obj
 0002:00025558       $unwind$?dtor$0@?0??Init@HomePage@@UEAAXXZ@4HA 0000000140039558     HomePage.obj
 0002:00025558       $unwind$?dtor$10@?0??GetImageExtFilter@IniSetting@@SA?AVQString@@W4SETTING_TYPE@1@@Z@4HA 0000000140039558     IniSetting.obj
 0002:00025558       $unwind$?dtor$10@?0??setupUi@Ui_edit_root@@QEAAXPEAVQWidget@@@Z@4HA 0000000140039558     ComparePage.obj
 0002:00025558       $unwind$?dtor$8@?0??setupUi@Ui_Dialog_about@@QEAAXPEAVQDialog@@@Z@4HA 0000000140039558     DlgAbout.obj
 0002:00025558       $unwind$?dtor$34@?0??setupUi@Ui_home_root@@QEAAXPEAVQWidget@@@Z@4HA 0000000140039558     HomePage.obj
 0002:00025558       $unwind$?dtor$1@?0??ActivePage@AppMainWnd@@QEAAXW4PAGE_TYPE@1@_N@Z@4HA 0000000140039558     AppMainWnd.obj
 0002:00025558       $unwind$?dtor$31@?0??setupUi@Ui_home_root@@QEAAXPEAVQWidget@@@Z@4HA 0000000140039558     HomePage.obj
 0002:00025558       $unwind$?dtor$46@?0??setupUi@Ui_home_root@@QEAAXPEAVQWidget@@@Z@4HA 0000000140039558     HomePage.obj
 0002:00025558       $unwind$?dtor$28@?0??setupUi@Ui_home_root@@QEAAXPEAVQWidget@@@Z@4HA 0000000140039558     HomePage.obj
 0002:00025558       $unwind$?dtor$0@?0??OnAboutClicked@TitleBar@@AEAAX_N@Z@4HA 0000000140039558     TitleBar.obj
 0002:00025558       $unwind$?dtor$0@?0??ActivePage@AppMainWnd@@QEAAXW4PAGE_TYPE@1@_N@Z@4HA 0000000140039558     AppMainWnd.obj
 0002:00025558       $unwind$?dtor$49@?0??setupUi@Ui_home_root@@QEAAXPEAVQWidget@@@Z@4HA 0000000140039558     HomePage.obj
 0002:00025558       $unwind$?dtor$0@?0???H@YA?BVQString@@AEBV0@PEBD@Z@4HA 0000000140039558     AppMainWnd.obj
 0002:00025558       $unwind$?dtor$25@?0??setupUi@Ui_AppMainWndClass@@QEAAXPEAVQMainWindow@@@Z@4HA 0000000140039558     AppMainWnd.obj
 0002:00025558       $unwind$?dtor$23@?0??setupUi@Ui_AppMainWndClass@@QEAAXPEAVQMainWindow@@@Z@4HA 0000000140039558     AppMainWnd.obj
 0002:00025558       $unwind$?dtor$26@?0??setupUi@Ui_home_root@@QEAAXPEAVQWidget@@@Z@4HA 0000000140039558     HomePage.obj
 0002:00025558       $unwind$?dtor$21@?0??setupUi@Ui_AppMainWndClass@@QEAAXPEAVQMainWindow@@@Z@4HA 0000000140039558     AppMainWnd.obj
 0002:00025558       $unwind$?dtor$47@?0??setupUi@Ui_home_root@@QEAAXPEAVQWidget@@@Z@4HA 0000000140039558     HomePage.obj
 0002:00025558       $unwind$?dtor$1@?0??GetUserConfigFile@IniSetting@@CA?AVQString@@PEBD@Z@4HA 0000000140039558     IniSetting.obj
 0002:00025558       $unwind$?dtor$25@?0??setupUi@Ui_home_root@@QEAAXPEAVQWidget@@@Z@4HA 0000000140039558     HomePage.obj
 0002:00025558       $unwind$?dtor$21@?0??setupUi@Ui_Dialog_setting@@QEAAXPEAVQDialog@@@Z@4HA 0000000140039558     DlgHelp.obj
 0002:00025558       $unwind$?dtor$24@?0??setupUi@Ui_home_root@@QEAAXPEAVQWidget@@@Z@4HA 0000000140039558     HomePage.obj
 0002:00025558       $unwind$?dtor$18@?0??setupUi@Ui_Dialog_setting@@QEAAXPEAVQDialog@@@Z@4HA 0000000140039558     DlgHelp.obj
 0002:00025558       $unwind$?dtor$15@?0??setupUi@Ui_Dialog_setting@@QEAAXPEAVQDialog@@@Z@4HA 0000000140039558     DlgHelp.obj
 0002:00025558       $unwind$?dtor$22@?0??setupUi@Ui_home_root@@QEAAXPEAVQWidget@@@Z@4HA 0000000140039558     HomePage.obj
 0002:00025558       $unwind$?dtor$2@?0??setupUi@Ui_compare_root@@QEAAXPEAVQWidget@@@Z@4HA 0000000140039558     CompareViewPanel.obj
 0002:00025558       $unwind$?dtor$4@?0??setupUi@Ui_compare_root@@QEAAXPEAVQWidget@@@Z@4HA 0000000140039558     CompareViewPanel.obj
 0002:00025558       $unwind$?dtor$10@?0??setupUi@Ui_Dialog_setting@@QEAAXPEAVQDialog@@@Z@4HA 0000000140039558     DlgHelp.obj
 0002:00025558       $unwind$?dtor$8@?0??setupUi@Ui_Dialog_setting@@QEAAXPEAVQDialog@@@Z@4HA 0000000140039558     DlgHelp.obj
 0002:00025558       $unwind$?dtor$3@?0??setupUi@Ui_maintoolbar_root@@QEAAXPEAVQWidget@@@Z@4HA 0000000140039558     MainToolbarPanel.obj
 0002:00025558       $unwind$?dtor$5@?0??setupUi@Ui_Dialog_setting@@QEAAXPEAVQDialog@@@Z@4HA 0000000140039558     DlgHelp.obj
 0002:00025558       $unwind$?dtor$5@?0??setupUi@Ui_maintoolbar_root@@QEAAXPEAVQWidget@@@Z@4HA 0000000140039558     MainToolbarPanel.obj
 0002:00025558       $unwind$?dtor$3@?0??setupUi@Ui_titlebar_root@@QEAAXPEAVQWidget@@@Z@4HA 0000000140039558     TitleBar.obj
 0002:00025558       $unwind$?dtor$19@?0??setupUi@Ui_home_root@@QEAAXPEAVQWidget@@@Z@4HA 0000000140039558     HomePage.obj
 0002:00025558       $unwind$?dtor$5@?0??setupUi@Ui_titlebar_root@@QEAAXPEAVQWidget@@@Z@4HA 0000000140039558     TitleBar.obj
 0002:00025558       $unwind$?dtor$6@?0??GetUserConfigFile@IniSetting@@CA?AVQString@@PEBD@Z@4HA 0000000140039558     IniSetting.obj
 0002:00025558       $unwind$?dtor$6@?0??setupUi@Ui_titlebar_root@@QEAAXPEAVQWidget@@@Z@4HA 0000000140039558     TitleBar.obj
 0002:00025558       $unwind$?dtor$18@?0??setupUi@Ui_home_root@@QEAAXPEAVQWidget@@@Z@4HA 0000000140039558     HomePage.obj
 0002:00025558       $unwind$?dtor$11@?0??setupUi@Ui_titlebar_root@@QEAAXPEAVQWidget@@@Z@4HA 0000000140039558     TitleBar.obj
 0002:00025558       $unwind$?dtor$3@?0??setupUi@Ui_Dialog_setting@@QEAAXPEAVQDialog@@@Z@4HA 0000000140039558     DlgHelp.obj
 0002:00025558       $unwind$?dtor$12@?0??setupUi@Ui_titlebar_root@@QEAAXPEAVQWidget@@@Z@4HA 0000000140039558     TitleBar.obj
 0002:00025558       $unwind$?dtor$15@?0??setupUi@Ui_home_root@@QEAAXPEAVQWidget@@@Z@4HA 0000000140039558     HomePage.obj
 0002:00025558       $unwind$?dtor$8@?0??setupUi@Ui_maintoolbar_root@@QEAAXPEAVQWidget@@@Z@4HA 0000000140039558     MainToolbarPanel.obj
 0002:00025558       $unwind$?dtor$10@?0??setupUi@Ui_maintoolbar_root@@QEAAXPEAVQWidget@@@Z@4HA 0000000140039558     MainToolbarPanel.obj
 0002:00025558       $unwind$?dtor$14@?0??setupUi@Ui_titlebar_root@@QEAAXPEAVQWidget@@@Z@4HA 0000000140039558     TitleBar.obj
 0002:00025558       $unwind$?dtor$16@?0??setupUi@Ui_titlebar_root@@QEAAXPEAVQWidget@@@Z@4HA 0000000140039558     TitleBar.obj
 0002:00025558       $unwind$?dtor$8@?0??GetUserConfigFile@IniSetting@@CA?AVQString@@PEBD@Z@4HA 0000000140039558     IniSetting.obj
 0002:00025558       $unwind$?dtor$15@?0??setupUi@Ui_maintoolbar_root@@QEAAXPEAVQWidget@@@Z@4HA 0000000140039558     MainToolbarPanel.obj
 0002:00025558       $unwind$?dtor$6@?0??setupUi@Ui_compare_root@@QEAAXPEAVQWidget@@@Z@4HA 0000000140039558     CompareViewPanel.obj
 0002:00025558       $unwind$?dtor$19@?0??setupUi@Ui_titlebar_root@@QEAAXPEAVQWidget@@@Z@4HA 0000000140039558     TitleBar.obj
 0002:00025558       $unwind$?dtor$8@?0??setupUi@Ui_compare_root@@QEAAXPEAVQWidget@@@Z@4HA 0000000140039558     CompareViewPanel.obj
 0002:00025558       $unwind$?dtor$10@?0??setupUi@Ui_home_root@@QEAAXPEAVQWidget@@@Z@4HA 0000000140039558     HomePage.obj
 0002:00025558       $unwind$?dtor$10@?0??setupUi@Ui_compare_root@@QEAAXPEAVQWidget@@@Z@4HA 0000000140039558     CompareViewPanel.obj
 0002:00025558       $unwind$?dtor$22@?0??setupUi@Ui_titlebar_root@@QEAAXPEAVQWidget@@@Z@4HA 0000000140039558     TitleBar.obj
 0002:00025558       $unwind$?dtor$16@?0??setupUi@Ui_maintoolbar_root@@QEAAXPEAVQWidget@@@Z@4HA 0000000140039558     MainToolbarPanel.obj
 0002:00025558       $unwind$?dtor$10@?0??GetUserConfigFile@IniSetting@@CA?AVQString@@PEBD@Z@4HA 0000000140039558     IniSetting.obj
 0002:00025558       $unwind$?dtor$51@?0??setupUi@Ui_home_root@@QEAAXPEAVQWidget@@@Z@4HA 0000000140039558     HomePage.obj
 0002:00025558       $unwind$?dtor$12@?0??setupUi@Ui_compare_root@@QEAAXPEAVQWidget@@@Z@4HA 0000000140039558     CompareViewPanel.obj
 0002:00025558       $unwind$?dtor$18@?0??setupUi@Ui_maintoolbar_root@@QEAAXPEAVQWidget@@@Z@4HA 0000000140039558     MainToolbarPanel.obj
 0002:00025558       $unwind$?dtor$25@?0??setupUi@Ui_titlebar_root@@QEAAXPEAVQWidget@@@Z@4HA 0000000140039558     TitleBar.obj
 0002:00025558       $unwind$?dtor$9@?0??setupUi@Ui_home_root@@QEAAXPEAVQWidget@@@Z@4HA 0000000140039558     HomePage.obj
 0002:00025558       $unwind$?dtor$15@?0??setupUi@Ui_compare_root@@QEAAXPEAVQWidget@@@Z@4HA 0000000140039558     CompareViewPanel.obj
 0002:00025558       $unwind$?dtor$7@?0??setupUi@Ui_home_root@@QEAAXPEAVQWidget@@@Z@4HA 0000000140039558     HomePage.obj
 0002:00025558       $unwind$?dtor$12@?0??GetUserConfigFile@IniSetting@@CA?AVQString@@PEBD@Z@4HA 0000000140039558     IniSetting.obj
 0002:00025558       $unwind$?dtor$16@?0??setupUi@Ui_compare_root@@QEAAXPEAVQWidget@@@Z@4HA 0000000140039558     CompareViewPanel.obj
 0002:00025558       $unwind$?dtor$0@?0??ShowPanel@ComparePage@@QEAAXW4PANEL_TYPE@1@_N@Z@4HA 0000000140039558     ComparePage.obj
 0002:00025558       $unwind$?dtor$1@?0??ShowPanel@ComparePage@@QEAAXW4PANEL_TYPE@1@_N@Z@4HA 0000000140039558     ComparePage.obj
 0002:00025558       $unwind$?dtor$20@?0??setupUi@Ui_maintoolbar_root@@QEAAXPEAVQWidget@@@Z@4HA 0000000140039558     MainToolbarPanel.obj
 0002:00025558       $unwind$?dtor$19@?0??setupUi@Ui_AppMainWndClass@@QEAAXPEAVQMainWindow@@@Z@4HA 0000000140039558     AppMainWnd.obj
 0002:00025558       $unwind$?dtor$2@?0??setupUi@Ui_AppMainWndClass@@QEAAXPEAVQMainWindow@@@Z@4HA 0000000140039558     AppMainWnd.obj
 0002:00025558       $unwind$?dtor$23@?0??setupUi@Ui_maintoolbar_root@@QEAAXPEAVQWidget@@@Z@4HA 0000000140039558     MainToolbarPanel.obj
 0002:00025558       $unwind$?dtor$6@?0??setupUi@Ui_Dialog_about@@QEAAXPEAVQDialog@@@Z@4HA 0000000140039558     DlgAbout.obj
 0002:00025558       $unwind$?dtor$5@?0??setupUi@Ui_home_root@@QEAAXPEAVQWidget@@@Z@4HA 0000000140039558     HomePage.obj
 0002:00025558       $unwind$?dtor$5@?0??setupUi@Ui_AppMainWndClass@@QEAAXPEAVQMainWindow@@@Z@4HA 0000000140039558     AppMainWnd.obj
 0002:00025558       $unwind$?dtor$3@?0??setupUi@Ui_home_root@@QEAAXPEAVQWidget@@@Z@4HA 0000000140039558     HomePage.obj
 0002:00025558       $unwind$?dtor$26@?0??setupUi@Ui_maintoolbar_root@@QEAAXPEAVQWidget@@@Z@4HA 0000000140039558     MainToolbarPanel.obj
 0002:00025558       $unwind$?dtor$1@?0??GetAppSetFile@IniSetting@@CA?AVQString@@W4SETTING_TYPE@1@@Z@4HA 0000000140039558     IniSetting.obj
 0002:00025558       $unwind$?dtor$4@?0??GetAppSetFile@IniSetting@@CA?AVQString@@W4SETTING_TYPE@1@@Z@4HA 0000000140039558     IniSetting.obj
 0002:00025558       $unwind$?dtor$29@?0??setupUi@Ui_maintoolbar_root@@QEAAXPEAVQWidget@@@Z@4HA 0000000140039558     MainToolbarPanel.obj
 0002:00025558       $unwind$?dtor$6@?0??GetAppSetFile@IniSetting@@CA?AVQString@@W4SETTING_TYPE@1@@Z@4HA 0000000140039558     IniSetting.obj
 0002:00025558       $unwind$?dtor$0@?0??Init@TitleBar@@UEAAXXZ@4HA 0000000140039558     TitleBar.obj
 0002:00025558       $unwind$?dtor$32@?0??setupUi@Ui_maintoolbar_root@@QEAAXPEAVQWidget@@@Z@4HA 0000000140039558     MainToolbarPanel.obj
 0002:00025558       $unwind$?dtor$54@?0??setupUi@Ui_home_root@@QEAAXPEAVQWidget@@@Z@4HA 0000000140039558     HomePage.obj
 0002:00025558       $unwind$?dtor$35@?0??setupUi@Ui_maintoolbar_root@@QEAAXPEAVQWidget@@@Z@4HA 0000000140039558     MainToolbarPanel.obj
 0002:00025558       $unwind$?dtor$9@?0??GetImageExtFilter@IniSetting@@SA?AVQString@@W4SETTING_TYPE@1@@Z@4HA 0000000140039558     IniSetting.obj
 0002:00025558       $unwind$?dtor$38@?0??setupUi@Ui_maintoolbar_root@@QEAAXPEAVQWidget@@@Z@4HA 0000000140039558     MainToolbarPanel.obj
 0002:00025558       $unwind$?dtor$1@?0??OnBtnHelp@HomePage@@AEAAX_N@Z@4HA 0000000140039558     HomePage.obj
 0002:00025558       $unwind$?dtor$32@?0??setupUi@Ui_Dialog_setting@@QEAAXPEAVQDialog@@@Z@4HA 0000000140039558     DlgHelp.obj
 0002:00025558       $unwind$main$dtor$3        0000000140039558     main.obj
 0002:00025558       $unwind$?dtor$28@?0??setupUi@Ui_Dialog_setting@@QEAAXPEAVQDialog@@@Z@4HA 0000000140039558     DlgHelp.obj
 0002:00025558       $unwind$?dtor$0@?0??Init@CompareViewPanel@@UEAAXXZ@4HA 0000000140039558     CompareViewPanel.obj
 0002:00025558       $unwind$?dtor$5@?0???0AppMainWnd@@QEAA@PEAVQWidget@@@Z@4HA 0000000140039558     AppMainWnd.obj
 0002:00025558       $unwind$?dtor$0@?0??InitUI@AppMainWnd@@QEAAXW4PAGE_TYPE@1@@Z@4HA 0000000140039558     AppMainWnd.obj
 0002:00025558       $unwind$main$dtor$5        0000000140039558     main.obj
 0002:00025558       $unwind$?dtor$26@?0??setupUi@Ui_Dialog_setting@@QEAAXPEAVQDialog@@@Z@4HA 0000000140039558     DlgHelp.obj
 0002:00025558       $unwind$?dtor$23@?0??setupUi@Ui_Dialog_setting@@QEAAXPEAVQDialog@@@Z@4HA 0000000140039558     DlgHelp.obj
 0002:00025558       $unwind$?dtor$2@?0??setupUi@Ui_Dialog_about@@QEAAXPEAVQDialog@@@Z@4HA 0000000140039558     DlgAbout.obj
 0002:00025558       $unwind$?dtor$7@?0??setupUi@Ui_AppMainWndClass@@QEAAXPEAVQMainWindow@@@Z@4HA 0000000140039558     AppMainWnd.obj
 0002:00025558       $unwind$?dtor$10@?0??setupUi@Ui_AppMainWndClass@@QEAAXPEAVQMainWindow@@@Z@4HA 0000000140039558     AppMainWnd.obj
 0002:00025558       $unwind$?dtor$12@?0??setupUi@Ui_AppMainWndClass@@QEAAXPEAVQMainWindow@@@Z@4HA 0000000140039558     AppMainWnd.obj
 0002:00025558       $unwind$?dtor$17@?0??setupUi@Ui_AppMainWndClass@@QEAAXPEAVQMainWindow@@@Z@4HA 0000000140039558     AppMainWnd.obj
 0002:00025558       $unwind$main$dtor$9        0000000140039558     main.obj
 0002:00025558       $unwind$?dtor$0@?0??Init@MainToolbarPanel@@UEAAXXZ@4HA 0000000140039558     MainToolbarPanel.obj
 0002:00025558       $unwind$?dtor$4@?0??DoInitDrawWidget@CompareViewPanel@@QEAAXPEAVQWidget@@W4AISFCV_COMPAREVIEW_INDEX@ARC_AISF@@@Z@4HA 0000000140039558     CompareViewPanel.obj
 0002:00025558       $unwind$?dtor$14@?0??setupUi@Ui_AppMainWndClass@@QEAAXPEAVQMainWindow@@@Z@4HA 0000000140039558     AppMainWnd.obj
 0002:00025558       $unwind$?dtor$0@?0??DoInitDrawWidget@CompareViewPanel@@QEAAXPEAVQWidget@@W4AISFCV_COMPAREVIEW_INDEX@ARC_AISF@@@Z@4HA 0000000140039558     CompareViewPanel.obj
 0002:00025558       $unwind$?dtor$27@?0??setupUi@Ui_home_root@@QEAAXPEAVQWidget@@@Z@4HA 0000000140039558     HomePage.obj
 0002:00025558       $unwind$?dtor$4@?0??setupUi@Ui_Dialog_about@@QEAAXPEAVQDialog@@@Z@4HA 0000000140039558     DlgAbout.obj
 0002:00025560       $unwind$??0?$QList@VQString@@@@QEAA@AEBV0@@Z 0000000140039560     AppMainWnd.obj
 0002:00025578       $stateUnwindMap$??$_Buynode@U?$pair@W4PANEL_TYPE@ComparePage@@PEAVMyPanelBase@@@std@@@?$_Tree_comp_alloc@V?$_Tmap_traits@HPEAVMyPanelBase@@U?$less@H@std@@V?$allocator@U?$pair@$$CBHPEAVMyPanelBase@@@std@@@3@$0A@@std@@@std@@QEAAPEAU?$_Tree_node@U?$pair@$$CBHPEAVMyPanelBase@@@std@@PEAX@1@$$QEAU?$pair@W4PANEL_TYPE@ComparePage@@PEAVMyPanelBase@@@1@@Z 0000000140039578     ComparePage.obj
 0002:00025578       $stateUnwindMap$??0?$QList@VQString@@@@QEAA@AEBV0@@Z 0000000140039578     AppMainWnd.obj
 0002:00025578       $stateUnwindMap$?_Buynode0@?$_Tree_comp_alloc@V?$_Tmap_traits@HPEAVMyPanelBase@@U?$less@H@std@@V?$allocator@U?$pair@$$CBHPEAVMyPanelBase@@@std@@@3@$0A@@std@@@std@@QEAAPEAU?$_Tree_node@U?$pair@$$CBHPEAVMyPanelBase@@@std@@PEAX@2@XZ 0000000140039578     AppMainWnd.obj
 0002:00025578       $stateUnwindMap$?detach_helper@?$QList@VQUrl@@@@AEAAXH@Z 0000000140039578     AppMainWnd.obj
 0002:00025578       $stateUnwindMap$??$_Buynode@U?$pair@W4PAGE_TYPE@AppMainWnd@@PEAVMyPanelBase@@@std@@@?$_Tree_comp_alloc@V?$_Tmap_traits@HPEAVMyPanelBase@@U?$less@H@std@@V?$allocator@U?$pair@$$CBHPEAVMyPanelBase@@@std@@@3@$0A@@std@@@std@@QEAAPEAU?$_Tree_node@U?$pair@$$CBHPEAVMyPanelBase@@@std@@PEAX@1@$$QEAU?$pair@W4PAGE_TYPE@AppMainWnd@@PEAVMyPanelBase@@@1@@Z 0000000140039578     AppMainWnd.obj
 0002:00025578       $stateUnwindMap$?detach_helper@?$QList@VQString@@@@AEAAXH@Z 0000000140039578     main.obj
 0002:00025578       $stateUnwindMap$??$_Insert_nohint@AEAU?$pair@$$CBHPEAVMyPanelBase@@@std@@PEAU?$_Tree_node@U?$pair@$$CBHPEAVMyPanelBase@@@std@@PEAX@2@@?$_Tree@V?$_Tmap_traits@HPEAVMyPanelBase@@U?$less@H@std@@V?$allocator@U?$pair@$$CBHPEAVMyPanelBase@@@std@@@3@$0A@@std@@@std@@IEAA?AU?$pair@V?$_Tree_iterator@V?$_Tree_val@U?$_Tree_simple_types@U?$pair@$$CBHPEAVMyPanelBase@@@std@@@std@@@std@@@std@@_N@1@_NAEAU?$pair@$$CBHPEAVMyPanelBase@@@1@PEAU?$_Tree_node@U?$pair@$$CBHPEAVMyPanelBase@@@std@@PEAX@1@@Z 0000000140039578     AppMainWnd.obj
 0002:00025578       $stateUnwindMap$?_Buyheadnode@?$_Tree_comp_alloc@V?$_Tmap_traits@HPEAVMyPanelBase@@U?$less@H@std@@V?$allocator@U?$pair@$$CBHPEAVMyPanelBase@@@std@@@3@$0A@@std@@@std@@QEAAPEAU?$_Tree_node@U?$pair@$$CBHPEAVMyPanelBase@@@std@@PEAX@2@XZ 0000000140039578     AppMainWnd.obj
 0002:00025588       $tryMap$??0?$QList@VQString@@@@QEAA@AEBV0@@Z 0000000140039588     AppMainWnd.obj
 0002:0002559c       $handlerMap$0$??0?$QList@VQString@@@@QEAA@AEBV0@@Z 000000014003959c     AppMainWnd.obj
 0002:000255b0       $ip2state$??0?$QList@VQString@@@@QEAA@AEBV0@@Z 00000001400395b0     AppMainWnd.obj
 0002:000255c8       $unwind$?catch$0@?0???0?$QList@VQString@@@@QEAA@AEBV0@@Z@4HA 00000001400395c8     AppMainWnd.obj
 0002:000255d8       $unwind$??1?$QList@VQString@@@@QEAA@XZ 00000001400395d8     AppMainWnd.obj
 0002:000255f0       $ip2state$??1?$QList@VQString@@@@QEAA@XZ 00000001400395f0     AppMainWnd.obj
 0002:000255f8       $unwind$??4?$QList@VQString@@@@QEAAAEAV0@AEBV0@@Z 00000001400395f8     AppMainWnd.obj
 0002:00025610       $stateUnwindMap$??__Fdummy@?A0x7ab48115@@YAXXZ 0000000140039610     qrc_appmainwnd.obj
 0002:00025610       $stateUnwindMap$??4?$QList@VQString@@@@QEAAAEAV0@$$QEAV0@@Z 0000000140039610     CompareViewPanel.obj
 0002:00025610       $stateUnwindMap$??4?$QList@VQString@@@@QEAAAEAV0@AEBV0@@Z 0000000140039610     AppMainWnd.obj
 0002:00025610       $stateUnwindMap$?clear@?$QList@VQString@@@@QEAAXXZ 0000000140039610     CompareViewPanel.obj
 0002:00025610       $stateUnwindMap$??_G?$MyAutoPtr@VAISFCompareView@ARC_AISF@@@@UEAAPEAXI@Z 0000000140039610     CompareViewPanel.obj
 0002:00025610       $stateUnwindMap$?__scrt_initialize_thread_safe_statics@@YAHXZ 0000000140039610     MSVCRT:thread_safe_statics.obj
 0002:00025610       $stateUnwindMap$??_GCompareViewPanel@@UEAAPEAXI@Z 0000000140039610     CompareViewPanel.obj
 0002:00025618       $ip2state$??4?$QList@VQString@@@@QEAAAEAV0@AEBV0@@Z 0000000140039618     AppMainWnd.obj
 0002:00025628       $unwind$?append@?$QList@VQString@@@@QEAAXAEBVQString@@@Z 0000000140039628     AppMainWnd.obj
 0002:0002563c       $stateUnwindMap$?append@?$QList@VQString@@@@QEAAXAEBVQString@@@Z 000000014003963c     AppMainWnd.obj
 0002:0002566c       $tryMap$?append@?$QList@VQString@@@@QEAAXAEBVQString@@@Z 000000014003966c     AppMainWnd.obj
 0002:00025694       $handlerMap$0$?append@?$QList@VQString@@@@QEAAXAEBVQString@@@Z 0000000140039694     AppMainWnd.obj
 0002:000256a8       $handlerMap$1$?append@?$QList@VQString@@@@QEAAXAEBVQString@@@Z 00000001400396a8     AppMainWnd.obj
 0002:000256c0       $ip2state$?append@?$QList@VQString@@@@QEAAXAEBVQString@@@Z 00000001400396c0     AppMainWnd.obj
 0002:000256e0       $unwind$?catch$1@?0??append@?$QList@VQString@@@@QEAAXAEBVQString@@@Z@4HA 00000001400396e0     AppMainWnd.obj
 0002:000256e0       $unwind$?catch$0@?0??append@?$QList@VQString@@@@QEAAXAEBVQString@@@Z@4HA 00000001400396e0     AppMainWnd.obj
 0002:000256f0       $unwind$?detach_helper_grow@?$QList@VQString@@@@AEAAPEAUNode@1@HH@Z 00000001400396f0     AppMainWnd.obj
 0002:00025708       $stateUnwindMap$?node_copy@?$QList@VQString@@@@AEAAXPEAUNode@1@00@Z 0000000140039708     AppMainWnd.obj
 0002:00025708       $stateUnwindMap$?detach_helper_grow@?$QList@VQString@@@@AEAAPEAUNode@1@HH@Z 0000000140039708     AppMainWnd.obj
 0002:00025728       $tryMap$?detach_helper_grow@?$QList@VQString@@@@AEAAPEAUNode@1@HH@Z 0000000140039728     AppMainWnd.obj
 0002:00025750       $handlerMap$0$?detach_helper_grow@?$QList@VQString@@@@AEAAPEAUNode@1@HH@Z 0000000140039750     AppMainWnd.obj
 0002:00025764       $handlerMap$1$?detach_helper_grow@?$QList@VQString@@@@AEAAPEAUNode@1@HH@Z 0000000140039764     AppMainWnd.obj
 0002:00025778       $ip2state$?detach_helper_grow@?$QList@VQString@@@@AEAAPEAUNode@1@HH@Z 0000000140039778     AppMainWnd.obj
 0002:000257a8       $unwind$?catch$1@?0??detach_helper_grow@?$QList@VQString@@@@AEAAPEAUNode@1@HH@Z@4HA 00000001400397a8     AppMainWnd.obj
 0002:000257bc       $unwind$?catch$0@?0??detach_helper_grow@?$QList@VQString@@@@AEAAPEAUNode@1@HH@Z@4HA 00000001400397bc     AppMainWnd.obj
 0002:000257d0       $unwind$?node_copy@?$QList@VQString@@@@AEAAXPEAUNode@1@00@Z 00000001400397d0     AppMainWnd.obj
 0002:000257e8       $tryMap$?node_copy@?$QList@VQString@@@@AEAAXPEAUNode@1@00@Z 00000001400397e8     AppMainWnd.obj
 0002:000257fc       $handlerMap$0$?node_copy@?$QList@VQString@@@@AEAAXPEAUNode@1@00@Z 00000001400397fc     AppMainWnd.obj
 0002:00025810       $ip2state$?node_copy@?$QList@VQString@@@@AEAAXPEAUNode@1@00@Z 0000000140039810     AppMainWnd.obj
 0002:00025818       $unwind$?catch$0@?0??node_copy@?$QList@VQString@@@@AEAAXPEAUNode@1@00@Z@4HA 0000000140039818     AppMainWnd.obj
 0002:0002582c       $unwind$?node_destruct@?$QList@VQString@@@@AEAAXPEAUNode@1@0@Z 000000014003982c     AppMainWnd.obj
 0002:00025838       $unwind$?setupUi@Ui_AppMainWndClass@@QEAAXPEAVQMainWindow@@@Z 0000000140039838     AppMainWnd.obj
 0002:00025858       $stateUnwindMap$?setupUi@Ui_AppMainWndClass@@QEAAXPEAVQMainWindow@@@Z 0000000140039858     AppMainWnd.obj
 0002:00025930       $ip2state$?setupUi@Ui_AppMainWndClass@@QEAAXPEAVQMainWindow@@@Z 0000000140039930     AppMainWnd.obj
 0002:00025ae8       $unwind$?_Buyheadnode@?$_Tree_comp_alloc@V?$_Tmap_traits@HPEAVMyPanelBase@@U?$less@H@std@@V?$allocator@U?$pair@$$CBHPEAVMyPanelBase@@@std@@@3@$0A@@std@@@std@@QEAAPEAU?$_Tree_node@U?$pair@$$CBHPEAVMyPanelBase@@@std@@PEAX@2@XZ 0000000140039ae8     AppMainWnd.obj
 0002:00025af8       $tryMap$?_Buyheadnode@?$_Tree_comp_alloc@V?$_Tmap_traits@HPEAVMyPanelBase@@U?$less@H@std@@V?$allocator@U?$pair@$$CBHPEAVMyPanelBase@@@std@@@3@$0A@@std@@@std@@QEAAPEAU?$_Tree_node@U?$pair@$$CBHPEAVMyPanelBase@@@std@@PEAX@2@XZ 0000000140039af8     AppMainWnd.obj
 0002:00025b0c       $handlerMap$0$?_Buyheadnode@?$_Tree_comp_alloc@V?$_Tmap_traits@HPEAVMyPanelBase@@U?$less@H@std@@V?$allocator@U?$pair@$$CBHPEAVMyPanelBase@@@std@@@3@$0A@@std@@@std@@QEAAPEAU?$_Tree_node@U?$pair@$$CBHPEAVMyPanelBase@@@std@@PEAX@2@XZ 0000000140039b0c     AppMainWnd.obj
 0002:00025b20       $ip2state$?_Buyheadnode@?$_Tree_comp_alloc@V?$_Tmap_traits@HPEAVMyPanelBase@@U?$less@H@std@@V?$allocator@U?$pair@$$CBHPEAVMyPanelBase@@@std@@@3@$0A@@std@@@std@@QEAAPEAU?$_Tree_node@U?$pair@$$CBHPEAVMyPanelBase@@@std@@PEAX@2@XZ 0000000140039b20     AppMainWnd.obj
 0002:00025b30       $unwind$?catch$0@?0??_Buyheadnode@?$_Tree_comp_alloc@V?$_Tmap_traits@HPEAVMyPanelBase@@U?$less@H@std@@V?$allocator@U?$pair@$$CBHPEAVMyPanelBase@@@std@@@3@$0A@@std@@@std@@QEAAPEAU?$_Tree_node@U?$pair@$$CBHPEAVMyPanelBase@@@std@@PEAX@2@XZ@4HA 0000000140039b30     AppMainWnd.obj
 0002:00025b40       $unwind$?_Buynode0@?$_Tree_comp_alloc@V?$_Tmap_traits@HPEAVMyPanelBase@@U?$less@H@std@@V?$allocator@U?$pair@$$CBHPEAVMyPanelBase@@@std@@@3@$0A@@std@@@std@@QEAAPEAU?$_Tree_node@U?$pair@$$CBHPEAVMyPanelBase@@@std@@PEAX@2@XZ 0000000140039b40     AppMainWnd.obj
 0002:00025b50       $tryMap$?_Buynode0@?$_Tree_comp_alloc@V?$_Tmap_traits@HPEAVMyPanelBase@@U?$less@H@std@@V?$allocator@U?$pair@$$CBHPEAVMyPanelBase@@@std@@@3@$0A@@std@@@std@@QEAAPEAU?$_Tree_node@U?$pair@$$CBHPEAVMyPanelBase@@@std@@PEAX@2@XZ 0000000140039b50     AppMainWnd.obj
 0002:00025b64       $handlerMap$0$?_Buynode0@?$_Tree_comp_alloc@V?$_Tmap_traits@HPEAVMyPanelBase@@U?$less@H@std@@V?$allocator@U?$pair@$$CBHPEAVMyPanelBase@@@std@@@3@$0A@@std@@@std@@QEAAPEAU?$_Tree_node@U?$pair@$$CBHPEAVMyPanelBase@@@std@@PEAX@2@XZ 0000000140039b64     AppMainWnd.obj
 0002:00025b78       $ip2state$?_Buynode0@?$_Tree_comp_alloc@V?$_Tmap_traits@HPEAVMyPanelBase@@U?$less@H@std@@V?$allocator@U?$pair@$$CBHPEAVMyPanelBase@@@std@@@3@$0A@@std@@@std@@QEAAPEAU?$_Tree_node@U?$pair@$$CBHPEAVMyPanelBase@@@std@@PEAX@2@XZ 0000000140039b78     AppMainWnd.obj
 0002:00025b88       $unwind$?catch$0@?0??_Buynode0@?$_Tree_comp_alloc@V?$_Tmap_traits@HPEAVMyPanelBase@@U?$less@H@std@@V?$allocator@U?$pair@$$CBHPEAVMyPanelBase@@@std@@@3@$0A@@std@@@std@@QEAAPEAU?$_Tree_node@U?$pair@$$CBHPEAVMyPanelBase@@@std@@PEAX@2@XZ@4HA 0000000140039b88     AppMainWnd.obj
 0002:00025b98       $unwind$?clear@?$_Tree@V?$_Tmap_traits@HPEAVMyPanelBase@@U?$less@H@std@@V?$allocator@U?$pair@$$CBHPEAVMyPanelBase@@@std@@@3@$0A@@std@@@std@@QEAAXXZ 0000000140039b98     AppMainWnd.obj
 0002:00025bb8       $ip2state$?clear@?$_Tree@V?$_Tmap_traits@HPEAVMyPanelBase@@U?$less@H@std@@V?$allocator@U?$pair@$$CBHPEAVMyPanelBase@@@std@@@3@$0A@@std@@@std@@QEAAXXZ 0000000140039bb8     AppMainWnd.obj
 0002:00025bc0       $unwind$?_Erase@?$_Tree@V?$_Tmap_traits@HPEAVMyPanelBase@@U?$less@H@std@@V?$allocator@U?$pair@$$CBHPEAVMyPanelBase@@@std@@@3@$0A@@std@@@std@@IEAAXPEAU?$_Tree_node@U?$pair@$$CBHPEAVMyPanelBase@@@std@@PEAX@2@@Z 0000000140039bc0     AppMainWnd.obj
 0002:00025bc0       $unwind$??_GComparePage@@UEAAPEAXI@Z 0000000140039bc0     ComparePage.obj
 0002:00025bc0       $unwind$??_GAppMainWnd@@UEAAPEAXI@Z 0000000140039bc0     AppMainWnd.obj
 0002:00025bd0       $unwind$??0AppMainWnd@@QEAA@PEAVQWidget@@@Z 0000000140039bd0     AppMainWnd.obj
 0002:00025be4       $stateUnwindMap$??0AppMainWnd@@QEAA@PEAVQWidget@@@Z 0000000140039be4     AppMainWnd.obj
 0002:00025c20       $ip2state$??0AppMainWnd@@QEAA@PEAVQWidget@@@Z 0000000140039c20     AppMainWnd.obj
 0002:00025c60       $unwind$?InitUI@AppMainWnd@@QEAAXW4PAGE_TYPE@1@@Z 0000000140039c60     AppMainWnd.obj
 0002:00025c78       $stateUnwindMap$?InitUI@AppMainWnd@@QEAAXW4PAGE_TYPE@1@@Z 0000000140039c78     AppMainWnd.obj
 0002:00025c80       $ip2state$?InitUI@AppMainWnd@@QEAAXW4PAGE_TYPE@1@@Z 0000000140039c80     AppMainWnd.obj
 0002:00025c98       $unwind$?SwitchPage@AppMainWnd@@QEAAXW4PAGE_TYPE@1@@Z 0000000140039c98     AppMainWnd.obj
 0002:00025ca4       $chain$0$?SwitchPage@AppMainWnd@@QEAAXW4PAGE_TYPE@1@@Z 0000000140039ca4     AppMainWnd.obj
 0002:00025cb8       $chain$1$?SwitchPage@AppMainWnd@@QEAAXW4PAGE_TYPE@1@@Z 0000000140039cb8     AppMainWnd.obj
 0002:00025cc8       $unwind$?ActivePage@AppMainWnd@@QEAAXW4PAGE_TYPE@1@_N@Z 0000000140039cc8     AppMainWnd.obj
 0002:00025ce8       $stateUnwindMap$?ActivePage@AppMainWnd@@QEAAXW4PAGE_TYPE@1@_N@Z 0000000140039ce8     AppMainWnd.obj
 0002:00025cf8       $ip2state$?ActivePage@AppMainWnd@@QEAAXW4PAGE_TYPE@1@_N@Z 0000000140039cf8     AppMainWnd.obj
 0002:00025d20       $unwind$?RestoryAppMainWnd@AppMainWnd@@UEAAXXZ 0000000140039d20     AppMainWnd.obj
 0002:00025d20       $unwind$?mouseMoveEvent@MyDrawWidget@@MEAAXPEAVQMouseEvent@@@Z 0000000140039d20     MyDrawWidget.obj
 0002:00025d20       $unwind$?OnPanelMouseMove@TitleBar@@UEAAXPEAVQMouseEvent@@@Z 0000000140039d20     TitleBar.obj
 0002:00025d2c       $unwind$?DoCmdOpenFiles@AppMainWnd@@QEAAXVQStringList@@@Z 0000000140039d2c     AppMainWnd.obj
 0002:00025d40       $stateUnwindMap$?DoCmdOpenFiles@AppMainWnd@@QEAAXVQStringList@@@Z 0000000140039d40     AppMainWnd.obj
 0002:00025d48       $ip2state$?DoCmdOpenFiles@AppMainWnd@@QEAAXVQStringList@@@Z 0000000140039d48     AppMainWnd.obj
 0002:00025d58       $unwind$?DoAutoFitIn@AppMainWnd@@QEAAXXZ 0000000140039d58     AppMainWnd.obj
 0002:00025d58       $unwind$?Init@MyPanelBase@@UEAAXXZ 0000000140039d58     MyPanelBase.obj
 0002:00025d58       $unwind$?OnChkFitIn@MainToolbarPanel@@QEAAX_N@Z 0000000140039d58     MainToolbarPanel.obj
 0002:00025d58       $unwind$?OnChkShowFileInfo@MainToolbarPanel@@QEAAX_N@Z 0000000140039d58     MainToolbarPanel.obj
 0002:00025d60       $unwind$?DoLoadNextFile@ComparePage@@QEAAXXZ 0000000140039d60     ComparePage.obj
 0002:00025d60       $unwind$?qt_static_metacall@MyDrawWidget@@CAXPEAVQObject@@W4Call@QMetaObject@@HPEAPEAX@Z 0000000140039d60     moc_MyDrawWidget.obj
 0002:00025d60       $unwind$?ShowFileInfo@AppMainWnd@@QEAAXXZ 0000000140039d60     AppMainWnd.obj
 0002:00025d60       $unwind$?DoLoadPreFile@ComparePage@@QEAAXXZ 0000000140039d60     ComparePage.obj
 0002:00025d68       $unwind$?UpdateHomePageWnd@AppMainWnd@@QEAAXPEAVQPoint@@@Z 0000000140039d68     AppMainWnd.obj
 0002:00025d78       $unwind$?UpdateComparePageWnd@AppMainWnd@@QEAAX_N@Z 0000000140039d78     AppMainWnd.obj
 0002:00025d8c       $unwind$?DoFileConvert@AppMainWnd@@QEAAXXZ 0000000140039d8c     AppMainWnd.obj
 0002:00025da0       $stateUnwindMap$?DoFileConvert@AppMainWnd@@QEAAXXZ 0000000140039da0     AppMainWnd.obj
 0002:00025dc0       $ip2state$?DoFileConvert@AppMainWnd@@QEAAXXZ 0000000140039dc0     AppMainWnd.obj
 0002:00025df8       $unwind$?DoBatchFileConvert@AppMainWnd@@QEAAXXZ 0000000140039df8     AppMainWnd.obj
 0002:00025e1c       $stateUnwindMap$?DoBatchFileConvert@AppMainWnd@@QEAAXXZ 0000000140039e1c     AppMainWnd.obj
 0002:00025e80       $ip2state$?DoBatchFileConvert@AppMainWnd@@QEAAXXZ 0000000140039e80     AppMainWnd.obj
 0002:00025ee0       $unwind$?OnFileSelected@AppMainWnd@@AEAAXVQStringList@@@Z 0000000140039ee0     AppMainWnd.obj
 0002:00025ef8       $stateUnwindMap$?SetCompareFiles@ComparePage@@QEAAXVQStringList@@_N@Z 0000000140039ef8     ComparePage.obj
 0002:00025ef8       $stateUnwindMap$?OnFileSelected@AppMainWnd@@AEAAXVQStringList@@@Z 0000000140039ef8     AppMainWnd.obj
 0002:00025ef8       $stateUnwindMap$?FileSelected@FileBrowser@@QEAAXVQStringList@@@Z 0000000140039ef8     moc_FileBrowser.obj
 0002:00025f00       $ip2state$?OnFileSelected@AppMainWnd@@AEAAXVQStringList@@@Z 0000000140039f00     AppMainWnd.obj
 0002:00025f10       $unwind$?closeEvent@AppMainWnd@@MEAAXPEAVQCloseEvent@@@Z 0000000140039f10     AppMainWnd.obj
 0002:00025f20       $chain$0$?closeEvent@AppMainWnd@@MEAAXPEAVQCloseEvent@@@Z 0000000140039f20     AppMainWnd.obj
 0002:00025f34       $chain$1$?closeEvent@AppMainWnd@@MEAAXPEAVQCloseEvent@@@Z 0000000140039f34     AppMainWnd.obj
 0002:00025f48       $chain$2$?closeEvent@AppMainWnd@@MEAAXPEAVQCloseEvent@@@Z 0000000140039f48     AppMainWnd.obj
 0002:00025f58       $chain$3$?closeEvent@AppMainWnd@@MEAAXPEAVQCloseEvent@@@Z 0000000140039f58     AppMainWnd.obj
 0002:00025f68       $unwind$?resizeEvent@AppMainWnd@@MEAAXPEAVQResizeEvent@@@Z 0000000140039f68     AppMainWnd.obj
 0002:00025f68       $unwind$?resizeEvent@MyDrawWidget@@MEAAXPEAVQResizeEvent@@@Z 0000000140039f68     MyDrawWidget.obj
 0002:00025f7c       $unwind$?keyPressEvent@AppMainWnd@@MEAAXPEAVQKeyEvent@@@Z 0000000140039f7c     AppMainWnd.obj
 0002:00025f88       $unwind$?dragEnterEvent@AppMainWnd@@MEAAXPEAVQDragEnterEvent@@@Z 0000000140039f88     AppMainWnd.obj
 0002:00025f9c       $stateUnwindMap$?dragEnterEvent@AppMainWnd@@MEAAXPEAVQDragEnterEvent@@@Z 0000000140039f9c     AppMainWnd.obj
 0002:00025fa8       $ip2state$?dragEnterEvent@AppMainWnd@@MEAAXPEAVQDragEnterEvent@@@Z 0000000140039fa8     AppMainWnd.obj
 0002:00025fb8       $unwind$?dropEvent@AppMainWnd@@MEAAXPEAVQDropEvent@@@Z 0000000140039fb8     AppMainWnd.obj
 0002:00025fd0       $stateUnwindMap$?dropEvent@AppMainWnd@@MEAAXPEAVQDropEvent@@@Z 0000000140039fd0     AppMainWnd.obj
 0002:00026000       $ip2state$?dropEvent@AppMainWnd@@MEAAXPEAVQDropEvent@@@Z 000000014003a000     AppMainWnd.obj
 0002:00026048       $unwind$??1?$QList@VQUrl@@@@QEAA@XZ 000000014003a048     AppMainWnd.obj
 0002:00026060       $ip2state$??1?$QList@VQUrl@@@@QEAA@XZ 000000014003a060     AppMainWnd.obj
 0002:00026068       $unwind$?detach_helper@?$QList@VQUrl@@@@AEAAXH@Z 000000014003a068     AppMainWnd.obj
 0002:00026080       $tryMap$?detach_helper@?$QList@VQUrl@@@@AEAAXH@Z 000000014003a080     AppMainWnd.obj
 0002:00026094       $handlerMap$0$?detach_helper@?$QList@VQUrl@@@@AEAAXH@Z 000000014003a094     AppMainWnd.obj
 0002:000260a8       $ip2state$?detach_helper@?$QList@VQUrl@@@@AEAAXH@Z 000000014003a0a8     AppMainWnd.obj
 0002:000260c8       $unwind$?catch$0@?0??detach_helper@?$QList@VQUrl@@@@AEAAXH@Z@4HA 000000014003a0c8     AppMainWnd.obj
 0002:000260dc       $unwind$?node_copy@?$QList@VQUrl@@@@AEAAXPEAUNode@1@00@Z 000000014003a0dc     AppMainWnd.obj
 0002:000260f4       $stateUnwindMap$?node_copy@?$QList@VQUrl@@@@AEAAXPEAUNode@1@00@Z 000000014003a0f4     AppMainWnd.obj
 0002:0002611c       $tryMap$?node_copy@?$QList@VQUrl@@@@AEAAXPEAUNode@1@00@Z 000000014003a11c     AppMainWnd.obj
 0002:00026130       $handlerMap$0$?node_copy@?$QList@VQUrl@@@@AEAAXPEAUNode@1@00@Z 000000014003a130     AppMainWnd.obj
 0002:00026148       $ip2state$?node_copy@?$QList@VQUrl@@@@AEAAXPEAUNode@1@00@Z 000000014003a148     AppMainWnd.obj
 0002:00026158       $unwind$?catch$1@?0??node_copy@?$QList@VQUrl@@@@AEAAXPEAUNode@1@00@Z@4HA 000000014003a158     AppMainWnd.obj
 0002:0002616c       $unwind$??$_Buynode@U?$pair@W4PAGE_TYPE@AppMainWnd@@PEAVMyPanelBase@@@std@@@?$_Tree_comp_alloc@V?$_Tmap_traits@HPEAVMyPanelBase@@U?$less@H@std@@V?$allocator@U?$pair@$$CBHPEAVMyPanelBase@@@std@@@3@$0A@@std@@@std@@QEAAPEAU?$_Tree_node@U?$pair@$$CBHPEAVMyPanelBase@@@std@@PEAX@1@$$QEAU?$pair@W4PAGE_TYPE@AppMainWnd@@PEAVMyPanelBase@@@1@@Z 000000014003a16c     AppMainWnd.obj
 0002:0002616c       $unwind$??$_Buynode@U?$pair@W4PANEL_TYPE@ComparePage@@PEAVMyPanelBase@@@std@@@?$_Tree_comp_alloc@V?$_Tmap_traits@HPEAVMyPanelBase@@U?$less@H@std@@V?$allocator@U?$pair@$$CBHPEAVMyPanelBase@@@std@@@3@$0A@@std@@@std@@QEAAPEAU?$_Tree_node@U?$pair@$$CBHPEAVMyPanelBase@@@std@@PEAX@1@$$QEAU?$pair@W4PANEL_TYPE@ComparePage@@PEAVMyPanelBase@@@1@@Z 000000014003a16c     ComparePage.obj
 0002:0002617c       $tryMap$??$_Buynode@U?$pair@W4PANEL_TYPE@ComparePage@@PEAVMyPanelBase@@@std@@@?$_Tree_comp_alloc@V?$_Tmap_traits@HPEAVMyPanelBase@@U?$less@H@std@@V?$allocator@U?$pair@$$CBHPEAVMyPanelBase@@@std@@@3@$0A@@std@@@std@@QEAAPEAU?$_Tree_node@U?$pair@$$CBHPEAVMyPanelBase@@@std@@PEAX@1@$$QEAU?$pair@W4PANEL_TYPE@ComparePage@@PEAVMyPanelBase@@@1@@Z 000000014003a17c     ComparePage.obj
 0002:0002617c       $tryMap$??$_Buynode@U?$pair@W4PAGE_TYPE@AppMainWnd@@PEAVMyPanelBase@@@std@@@?$_Tree_comp_alloc@V?$_Tmap_traits@HPEAVMyPanelBase@@U?$less@H@std@@V?$allocator@U?$pair@$$CBHPEAVMyPanelBase@@@std@@@3@$0A@@std@@@std@@QEAAPEAU?$_Tree_node@U?$pair@$$CBHPEAVMyPanelBase@@@std@@PEAX@1@$$QEAU?$pair@W4PAGE_TYPE@AppMainWnd@@PEAVMyPanelBase@@@1@@Z 000000014003a17c     AppMainWnd.obj
 0002:00026190       $handlerMap$0$??$_Buynode@U?$pair@W4PANEL_TYPE@ComparePage@@PEAVMyPanelBase@@@std@@@?$_Tree_comp_alloc@V?$_Tmap_traits@HPEAVMyPanelBase@@U?$less@H@std@@V?$allocator@U?$pair@$$CBHPEAVMyPanelBase@@@std@@@3@$0A@@std@@@std@@QEAAPEAU?$_Tree_node@U?$pair@$$CBHPEAVMyPanelBase@@@std@@PEAX@1@$$QEAU?$pair@W4PANEL_TYPE@ComparePage@@PEAVMyPanelBase@@@1@@Z 000000014003a190     ComparePage.obj
 0002:00026190       $handlerMap$0$??$_Buynode@U?$pair@W4PAGE_TYPE@AppMainWnd@@PEAVMyPanelBase@@@std@@@?$_Tree_comp_alloc@V?$_Tmap_traits@HPEAVMyPanelBase@@U?$less@H@std@@V?$allocator@U?$pair@$$CBHPEAVMyPanelBase@@@std@@@3@$0A@@std@@@std@@QEAAPEAU?$_Tree_node@U?$pair@$$CBHPEAVMyPanelBase@@@std@@PEAX@1@$$QEAU?$pair@W4PAGE_TYPE@AppMainWnd@@PEAVMyPanelBase@@@1@@Z 000000014003a190     AppMainWnd.obj
 0002:000261a8       $ip2state$??$_Buynode@U?$pair@W4PAGE_TYPE@AppMainWnd@@PEAVMyPanelBase@@@std@@@?$_Tree_comp_alloc@V?$_Tmap_traits@HPEAVMyPanelBase@@U?$less@H@std@@V?$allocator@U?$pair@$$CBHPEAVMyPanelBase@@@std@@@3@$0A@@std@@@std@@QEAAPEAU?$_Tree_node@U?$pair@$$CBHPEAVMyPanelBase@@@std@@PEAX@1@$$QEAU?$pair@W4PAGE_TYPE@AppMainWnd@@PEAVMyPanelBase@@@1@@Z 000000014003a1a8     AppMainWnd.obj
 0002:000261a8       $ip2state$??$_Buynode@U?$pair@W4PANEL_TYPE@ComparePage@@PEAVMyPanelBase@@@std@@@?$_Tree_comp_alloc@V?$_Tmap_traits@HPEAVMyPanelBase@@U?$less@H@std@@V?$allocator@U?$pair@$$CBHPEAVMyPanelBase@@@std@@@3@$0A@@std@@@std@@QEAAPEAU?$_Tree_node@U?$pair@$$CBHPEAVMyPanelBase@@@std@@PEAX@1@$$QEAU?$pair@W4PANEL_TYPE@ComparePage@@PEAVMyPanelBase@@@1@@Z 000000014003a1a8     ComparePage.obj
 0002:000261b8       $unwind$?catch$0@?0???$_Buynode@U?$pair@W4PAGE_TYPE@AppMainWnd@@PEAVMyPanelBase@@@std@@@?$_Tree_comp_alloc@V?$_Tmap_traits@HPEAVMyPanelBase@@U?$less@H@std@@V?$allocator@U?$pair@$$CBHPEAVMyPanelBase@@@std@@@3@$0A@@std@@@std@@QEAAPEAU?$_Tree_node@U?$pair@$$CBHPEAVMyPanelBase@@@std@@PEAX@1@$$QEAU?$pair@W4PAGE_TYPE@AppMainWnd@@PEAVMyPanelBase@@@1@@Z@4HA 000000014003a1b8     AppMainWnd.obj
 0002:000261b8       $unwind$?catch$0@?0???$_Buynode@U?$pair@W4PANEL_TYPE@ComparePage@@PEAVMyPanelBase@@@std@@@?$_Tree_comp_alloc@V?$_Tmap_traits@HPEAVMyPanelBase@@U?$less@H@std@@V?$allocator@U?$pair@$$CBHPEAVMyPanelBase@@@std@@@3@$0A@@std@@@std@@QEAAPEAU?$_Tree_node@U?$pair@$$CBHPEAVMyPanelBase@@@std@@PEAX@1@$$QEAU?$pair@W4PANEL_TYPE@ComparePage@@PEAVMyPanelBase@@@1@@Z@4HA 000000014003a1b8     ComparePage.obj
 0002:000261c8       $unwind$??$_Insert_nohint@AEAU?$pair@$$CBHPEAVMyPanelBase@@@std@@PEAU?$_Tree_node@U?$pair@$$CBHPEAVMyPanelBase@@@std@@PEAX@2@@?$_Tree@V?$_Tmap_traits@HPEAVMyPanelBase@@U?$less@H@std@@V?$allocator@U?$pair@$$CBHPEAVMyPanelBase@@@std@@@3@$0A@@std@@@std@@IEAA?AU?$pair@V?$_Tree_iterator@V?$_Tree_val@U?$_Tree_simple_types@U?$pair@$$CBHPEAVMyPanelBase@@@std@@@std@@@std@@@std@@_N@1@_NAEAU?$pair@$$CBHPEAVMyPanelBase@@@1@PEAU?$_Tree_node@U?$pair@$$CBHPEAVMyPanelBase@@@std@@PEAX@1@@Z 000000014003a1c8     AppMainWnd.obj
 0002:000261e4       $tryMap$??$_Insert_nohint@AEAU?$pair@$$CBHPEAVMyPanelBase@@@std@@PEAU?$_Tree_node@U?$pair@$$CBHPEAVMyPanelBase@@@std@@PEAX@2@@?$_Tree@V?$_Tmap_traits@HPEAVMyPanelBase@@U?$less@H@std@@V?$allocator@U?$pair@$$CBHPEAVMyPanelBase@@@std@@@3@$0A@@std@@@std@@IEAA?AU?$pair@V?$_Tree_iterator@V?$_Tree_val@U?$_Tree_simple_types@U?$pair@$$CBHPEAVMyPanelBase@@@std@@@std@@@std@@@std@@_N@1@_NAEAU?$pair@$$CBHPEAVMyPanelBase@@@1@PEAU?$_Tree_node@U?$pair@$$CBHPEAVMyPanelBase@@@std@@PEAX@1@@Z 000000014003a1e4     AppMainWnd.obj
 0002:000261f8       $handlerMap$0$??$_Insert_nohint@AEAU?$pair@$$CBHPEAVMyPanelBase@@@std@@PEAU?$_Tree_node@U?$pair@$$CBHPEAVMyPanelBase@@@std@@PEAX@2@@?$_Tree@V?$_Tmap_traits@HPEAVMyPanelBase@@U?$less@H@std@@V?$allocator@U?$pair@$$CBHPEAVMyPanelBase@@@std@@@3@$0A@@std@@@std@@IEAA?AU?$pair@V?$_Tree_iterator@V?$_Tree_val@U?$_Tree_simple_types@U?$pair@$$CBHPEAVMyPanelBase@@@std@@@std@@@std@@@std@@_N@1@_NAEAU?$pair@$$CBHPEAVMyPanelBase@@@1@PEAU?$_Tree_node@U?$pair@$$CBHPEAVMyPanelBase@@@std@@PEAX@1@@Z 000000014003a1f8     AppMainWnd.obj
 0002:00026210       $ip2state$??$_Insert_nohint@AEAU?$pair@$$CBHPEAVMyPanelBase@@@std@@PEAU?$_Tree_node@U?$pair@$$CBHPEAVMyPanelBase@@@std@@PEAX@2@@?$_Tree@V?$_Tmap_traits@HPEAVMyPanelBase@@U?$less@H@std@@V?$allocator@U?$pair@$$CBHPEAVMyPanelBase@@@std@@@3@$0A@@std@@@std@@IEAA?AU?$pair@V?$_Tree_iterator@V?$_Tree_val@U?$_Tree_simple_types@U?$pair@$$CBHPEAVMyPanelBase@@@std@@@std@@@std@@@std@@_N@1@_NAEAU?$pair@$$CBHPEAVMyPanelBase@@@1@PEAU?$_Tree_node@U?$pair@$$CBHPEAVMyPanelBase@@@std@@PEAX@1@@Z 000000014003a210     AppMainWnd.obj
 0002:00026220       $unwind$?catch$0@?0???$_Insert_nohint@AEAU?$pair@$$CBHPEAVMyPanelBase@@@std@@PEAU?$_Tree_node@U?$pair@$$CBHPEAVMyPanelBase@@@std@@PEAX@2@@?$_Tree@V?$_Tmap_traits@HPEAVMyPanelBase@@U?$less@H@std@@V?$allocator@U?$pair@$$CBHPEAVMyPanelBase@@@std@@@3@$0A@@std@@@std@@IEAA?AU?$pair@V?$_Tree_iterator@V?$_Tree_val@U?$_Tree_simple_types@U?$pair@$$CBHPEAVMyPanelBase@@@std@@@std@@@std@@@std@@_N@1@_NAEAU?$pair@$$CBHPEAVMyPanelBase@@@1@PEAU?$_Tree_node@U?$pair@$$CBHPEAVMyPanelBase@@@std@@PEAX@1@@Z@4HA 000000014003a220     AppMainWnd.obj
 0002:00026230       $unwind$??$_Insert_at@AEAU?$pair@$$CBHPEAVMyPanelBase@@@std@@PEAU?$_Tree_node@U?$pair@$$CBHPEAVMyPanelBase@@@std@@PEAX@2@@?$_Tree@V?$_Tmap_traits@HPEAVMyPanelBase@@U?$less@H@std@@V?$allocator@U?$pair@$$CBHPEAVMyPanelBase@@@std@@@3@$0A@@std@@@std@@IEAA?AV?$_Tree_iterator@V?$_Tree_val@U?$_Tree_simple_types@U?$pair@$$CBHPEAVMyPanelBase@@@std@@@std@@@std@@@1@_NPEAU?$_Tree_node@U?$pair@$$CBHPEAVMyPanelBase@@@std@@PEAX@1@AEAU?$pair@$$CBHPEAVMyPanelBase@@@1@1@Z 000000014003a230     AppMainWnd.obj
 0002:0002623c       $chain$1$??$_Insert_at@AEAU?$pair@$$CBHPEAVMyPanelBase@@@std@@PEAU?$_Tree_node@U?$pair@$$CBHPEAVMyPanelBase@@@std@@PEAX@2@@?$_Tree@V?$_Tmap_traits@HPEAVMyPanelBase@@U?$less@H@std@@V?$allocator@U?$pair@$$CBHPEAVMyPanelBase@@@std@@@3@$0A@@std@@@std@@IEAA?AV?$_Tree_iterator@V?$_Tree_val@U?$_Tree_simple_types@U?$pair@$$CBHPEAVMyPanelBase@@@std@@@std@@@std@@@1@_NPEAU?$_Tree_node@U?$pair@$$CBHPEAVMyPanelBase@@@std@@PEAX@1@AEAU?$pair@$$CBHPEAVMyPanelBase@@@1@1@Z 000000014003a23c     AppMainWnd.obj
 0002:00026254       $chain$3$??$_Insert_at@AEAU?$pair@$$CBHPEAVMyPanelBase@@@std@@PEAU?$_Tree_node@U?$pair@$$CBHPEAVMyPanelBase@@@std@@PEAX@2@@?$_Tree@V?$_Tmap_traits@HPEAVMyPanelBase@@U?$less@H@std@@V?$allocator@U?$pair@$$CBHPEAVMyPanelBase@@@std@@@3@$0A@@std@@@std@@IEAA?AV?$_Tree_iterator@V?$_Tree_val@U?$_Tree_simple_types@U?$pair@$$CBHPEAVMyPanelBase@@@std@@@std@@@std@@@1@_NPEAU?$_Tree_node@U?$pair@$$CBHPEAVMyPanelBase@@@std@@PEAX@1@AEAU?$pair@$$CBHPEAVMyPanelBase@@@1@1@Z 000000014003a254     AppMainWnd.obj
 0002:00026264       $unwind$?setupUi@Ui_Dialog_about@@QEAAXPEAVQDialog@@@Z 000000014003a264     DlgAbout.obj
 0002:0002627c       $stateUnwindMap$?setupUi@Ui_Dialog_about@@QEAAXPEAVQDialog@@@Z 000000014003a27c     DlgAbout.obj
 0002:000262e0       $ip2state$?setupUi@Ui_Dialog_about@@QEAAXPEAVQDialog@@@Z 000000014003a2e0     DlgAbout.obj
 0002:00026398       $unwind$??0DlgAbout@@QEAA@PEAVQWidget@@V?$QFlags@W4WindowType@Qt@@@@@Z 000000014003a398     DlgAbout.obj
 0002:000263a8       $stateUnwindMap$??0DlgAbout@@QEAA@PEAVQWidget@@V?$QFlags@W4WindowType@Qt@@@@@Z 000000014003a3a8     DlgAbout.obj
 0002:000263b0       $ip2state$??0DlgAbout@@QEAA@PEAVQWidget@@V?$QFlags@W4WindowType@Qt@@@@@Z 000000014003a3b0     DlgAbout.obj
 0002:000263c0       $unwind$?setupUi@Ui_Dialog_setting@@QEAAXPEAVQDialog@@@Z 000000014003a3c0     DlgHelp.obj
 0002:000263e0       $stateUnwindMap$?setupUi@Ui_Dialog_setting@@QEAAXPEAVQDialog@@@Z 000000014003a3e0     DlgHelp.obj
 0002:00026520       $ip2state$?setupUi@Ui_Dialog_setting@@QEAAXPEAVQDialog@@@Z 000000014003a520     DlgHelp.obj
 0002:00026788       $unwind$??0DlgHelp@@QEAA@PEAVQWidget@@V?$QFlags@W4WindowType@Qt@@@@@Z 000000014003a788     DlgHelp.obj
 0002:00026798       $stateUnwindMap$??0DlgHelp@@QEAA@PEAVQWidget@@V?$QFlags@W4WindowType@Qt@@@@@Z 000000014003a798     DlgHelp.obj
 0002:000267a0       $ip2state$??0DlgHelp@@QEAA@PEAVQWidget@@V?$QFlags@W4WindowType@Qt@@@@@Z 000000014003a7a0     DlgHelp.obj
 0002:000267b8       $unwind$?setupUi@Ui_edit_root@@QEAAXPEAVQWidget@@@Z 000000014003a7b8     ComparePage.obj
 0002:000267d8       $stateUnwindMap$?setupUi@Ui_edit_root@@QEAAXPEAVQWidget@@@Z 000000014003a7d8     ComparePage.obj
 0002:00026840       $ip2state$?setupUi@Ui_edit_root@@QEAAXPEAVQWidget@@@Z 000000014003a840     ComparePage.obj
 0002:00026908       $unwind$??0ComparePage@@QEAA@PEAVAppMainWnd@@HPEAVQWidget@@@Z 000000014003a908     ComparePage.obj
 0002:0002691c       $stateUnwindMap$??0ComparePage@@QEAA@PEAVAppMainWnd@@HPEAVQWidget@@@Z 000000014003a91c     ComparePage.obj
 0002:00026928       $ip2state$??0ComparePage@@QEAA@PEAVAppMainWnd@@HPEAVQWidget@@@Z 000000014003a928     ComparePage.obj
 0002:00026938       $unwind$?Init@ComparePage@@UEAAXXZ 000000014003a938     ComparePage.obj
 0002:0002694c       $stateUnwindMap$?Init@CompareViewPanel@@UEAAXXZ 000000014003a94c     CompareViewPanel.obj
 0002:0002694c       $stateUnwindMap$?Init@HomePage@@UEAAXXZ 000000014003a94c     HomePage.obj
 0002:0002694c       $stateUnwindMap$?Init@ComparePage@@UEAAXXZ 000000014003a94c     ComparePage.obj
 0002:00026958       $ip2state$?Init@ComparePage@@UEAAXXZ 000000014003a958     ComparePage.obj
 0002:00026970       $unwind$?UnInit@ComparePage@@UEAAXXZ 000000014003a970     ComparePage.obj
 0002:0002697c       $chain$0$?UnInit@ComparePage@@UEAAXXZ 000000014003a97c     ComparePage.obj
 0002:00026990       $chain$1$?UnInit@ComparePage@@UEAAXXZ 000000014003a990     ComparePage.obj
 0002:000269a0       $unwind$?ShowPanel@ComparePage@@QEAAXW4PANEL_TYPE@1@_N@Z 000000014003a9a0     ComparePage.obj
 0002:000269c0       $stateUnwindMap$?ShowPanel@ComparePage@@QEAAXW4PANEL_TYPE@1@_N@Z 000000014003a9c0     ComparePage.obj
 0002:000269d0       $ip2state$?ShowPanel@ComparePage@@QEAAXW4PANEL_TYPE@1@_N@Z 000000014003a9d0     ComparePage.obj
 0002:000269f8       $unwind$?SetCompareFiles@ComparePage@@QEAAXVQStringList@@_N@Z 000000014003a9f8     ComparePage.obj
 0002:00026a10       $ip2state$?SetCompareFiles@ComparePage@@QEAAXVQStringList@@_N@Z 000000014003aa10     ComparePage.obj
 0002:00026a20       $unwind$?OpenFileDialog@FileBrowser@@QEAAXXZ 000000014003aa20     FileBrowser.obj
 0002:00026a3c       $stateUnwindMap$?OpenFileDialog@FileBrowser@@QEAAXXZ 000000014003aa3c     FileBrowser.obj
 0002:00026b00       $ip2state$?OpenFileDialog@FileBrowser@@QEAAXXZ 000000014003ab00     FileBrowser.obj
 0002:00026c08       $unwind$?setupUi@Ui_home_root@@QEAAXPEAVQWidget@@@Z 000000014003ac08     HomePage.obj
 0002:00026c2c       $stateUnwindMap$?setupUi@Ui_home_root@@QEAAXPEAVQWidget@@@Z 000000014003ac2c     HomePage.obj
 0002:00026df0       $ip2state$?setupUi@Ui_home_root@@QEAAXPEAVQWidget@@@Z 000000014003adf0     HomePage.obj
 0002:00027170       $unwind$?retranslateUi@Ui_home_root@@QEAAXPEAVQWidget@@@Z 000000014003b170     HomePage.obj
 0002:00027184       $stateUnwindMap$?retranslateUi@Ui_home_root@@QEAAXPEAVQWidget@@@Z 000000014003b184     HomePage.obj
 0002:000271d0       $ip2state$?retranslateUi@Ui_home_root@@QEAAXPEAVQWidget@@@Z 000000014003b1d0     HomePage.obj
 0002:00027248       $unwind$?Init@HomePage@@UEAAXXZ 000000014003b248     HomePage.obj
 0002:00027260       $ip2state$?Init@HomePage@@UEAAXXZ 000000014003b260     HomePage.obj
 0002:00027278       $unwind$?OnPanelResize@MainToolbarPanel@@MEAAXPEAVQResizeEvent@@@Z 000000014003b278     MainToolbarPanel.obj
 0002:00027278       $unwind$?OnPanelResize@HomePage@@UEAAXPEAVQResizeEvent@@@Z 000000014003b278     HomePage.obj
 0002:00027278       $unwind$?OnPanelResize@TitleBar@@UEAAXPEAVQResizeEvent@@@Z 000000014003b278     TitleBar.obj
 0002:00027288       $unwind$?OnBtnHelp@HomePage@@AEAAX_N@Z 000000014003b288     HomePage.obj
 0002:0002729c       $stateUnwindMap$?OnBtnHelp@HomePage@@AEAAX_N@Z 000000014003b29c     HomePage.obj
 0002:000272b8       $ip2state$?OnBtnHelp@HomePage@@AEAAX_N@Z 000000014003b2b8     HomePage.obj
 0002:000272f0       $unwind$sprintf            000000014003b2f0     CompareViewPanel.obj
 0002:000272fc       $unwind$??4?$QList@VQString@@@@QEAAAEAV0@$$QEAV0@@Z 000000014003b2fc     CompareViewPanel.obj
 0002:00027318       $ip2state$??4?$QList@VQString@@@@QEAAAEAV0@$$QEAV0@@Z 000000014003b318     CompareViewPanel.obj
 0002:00027320       $unwind$?clear@?$QList@VQString@@@@QEAAXXZ 000000014003b320     CompareViewPanel.obj
 0002:00027338       $ip2state$?clear@?$QList@VQString@@@@QEAAXXZ 000000014003b338     CompareViewPanel.obj
 0002:00027340       $unwind$?setupUi@Ui_compare_root@@QEAAXPEAVQWidget@@@Z 000000014003b340     CompareViewPanel.obj
 0002:00027360       $stateUnwindMap$?setupUi@Ui_compare_root@@QEAAXPEAVQWidget@@@Z 000000014003b360     CompareViewPanel.obj
 0002:00027420       $ip2state$?setupUi@Ui_compare_root@@QEAAXPEAVQWidget@@@Z 000000014003b420     CompareViewPanel.obj
 0002:00027590       $unwind$?OnCompareViewDraw@MyCompareViewCallback@@UEAAHPEAUAISFCV_CompareViewDrawParam@ARC_AISF@@@Z 000000014003b590     CompareViewPanel.obj
 0002:0002759c       $chain$1$?OnCompareViewDraw@MyCompareViewCallback@@UEAAHPEAUAISFCV_CompareViewDrawParam@ARC_AISF@@@Z 000000014003b59c     CompareViewPanel.obj
 0002:000275b4       $chain$2$?OnCompareViewDraw@MyCompareViewCallback@@UEAAHPEAUAISFCV_CompareViewDrawParam@ARC_AISF@@@Z 000000014003b5b4     CompareViewPanel.obj
 0002:000275c4       $unwind$?DoSingleImgViewUnInit@MyCompareViewCallback@@UEAAHPEAVQWidget@@W4AISFCV_COMPAREVIEW_INDEX@ARC_AISF@@@Z 000000014003b5c4     CompareViewPanel.obj
 0002:000275cc       $chain$0$?DoSingleImgViewUnInit@MyCompareViewCallback@@UEAAHPEAVQWidget@@W4AISFCV_COMPAREVIEW_INDEX@ARC_AISF@@@Z 000000014003b5cc     CompareViewPanel.obj
 0002:000275e0       $chain$2$?DoSingleImgViewUnInit@MyCompareViewCallback@@UEAAHPEAVQWidget@@W4AISFCV_COMPAREVIEW_INDEX@ARC_AISF@@@Z 000000014003b5e0     CompareViewPanel.obj
 0002:000275f8       $chain$3$?DoSingleImgViewUnInit@MyCompareViewCallback@@UEAAHPEAVQWidget@@W4AISFCV_COMPAREVIEW_INDEX@ARC_AISF@@@Z 000000014003b5f8     CompareViewPanel.obj
 0002:00027608       $chain$4$?DoSingleImgViewUnInit@MyCompareViewCallback@@UEAAHPEAVQWidget@@W4AISFCV_COMPAREVIEW_INDEX@ARC_AISF@@@Z 000000014003b608     CompareViewPanel.obj
 0002:00027618       $unwind$?Init@CompareViewPanel@@UEAAXXZ 000000014003b618     CompareViewPanel.obj
 0002:00027630       $ip2state$?Init@CompareViewPanel@@UEAAXXZ 000000014003b630     CompareViewPanel.obj
 0002:00027648       $unwind$?SetCompareFiles@CompareViewPanel@@QEAAXVQStringList@@_N@Z 000000014003b648     CompareViewPanel.obj
 0002:0002766c       $stateUnwindMap$?SetCompareFiles@CompareViewPanel@@QEAAXVQStringList@@_N@Z 000000014003b66c     CompareViewPanel.obj
 0002:00027688       $ip2state$?SetCompareFiles@CompareViewPanel@@QEAAXVQStringList@@_N@Z 000000014003b688     CompareViewPanel.obj
 0002:000276c0       $unwind$?DoInitDrawWidget@CompareViewPanel@@QEAAXPEAVQWidget@@W4AISFCV_COMPAREVIEW_INDEX@ARC_AISF@@@Z 000000014003b6c0     CompareViewPanel.obj
 0002:000276e0       $stateUnwindMap$?DoInitDrawWidget@CompareViewPanel@@QEAAXPEAVQWidget@@W4AISFCV_COMPAREVIEW_INDEX@ARC_AISF@@@Z 000000014003b6e0     CompareViewPanel.obj
 0002:00027710       $ip2state$?DoInitDrawWidget@CompareViewPanel@@QEAAXPEAVQWidget@@W4AISFCV_COMPAREVIEW_INDEX@ARC_AISF@@@Z 000000014003b710     CompareViewPanel.obj
 0002:00027768       $unwind$?ShowCompareView@CompareViewPanel@@AEAAX_N@Z 000000014003b768     CompareViewPanel.obj
 0002:00027778       $unwind$?GetFileListbyPath@CompareViewPanel@@AEAAXPEAD@Z 000000014003b778     CompareViewPanel.obj
 0002:00027794       $stateUnwindMap$?GetFileListbyPath@CompareViewPanel@@AEAAXPEAD@Z 000000014003b794     CompareViewPanel.obj
 0002:000277c8       $ip2state$?GetFileListbyPath@CompareViewPanel@@AEAAXPEAD@Z 000000014003b7c8     CompareViewPanel.obj
 0002:00027800       $unwind$?DoDisplayFilebyIndex@CompareViewPanel@@AEAAXH@Z 000000014003b800     CompareViewPanel.obj
 0002:00027820       $stateUnwindMap$?DoDisplayFilebyIndex@CompareViewPanel@@AEAAXH@Z 000000014003b820     CompareViewPanel.obj
 0002:00027858       $ip2state$?DoDisplayFilebyIndex@CompareViewPanel@@AEAAXH@Z 000000014003b858     CompareViewPanel.obj
 0002:00027890       $unwind$?OnAddRectEnd@CompareViewPanel@@IEAAXH@Z 000000014003b890     CompareViewPanel.obj
 0002:000278a0       $chain$0$?OnAddRectEnd@CompareViewPanel@@IEAAXH@Z 000000014003b8a0     CompareViewPanel.obj
 0002:000278b4       $chain$1$?OnAddRectEnd@CompareViewPanel@@IEAAXH@Z 000000014003b8b4     CompareViewPanel.obj
 0002:000278c4       $unwind$?UpdateDrawViewByViewIndex@CompareViewPanel@@AEAAXH@Z 000000014003b8c4     CompareViewPanel.obj
 0002:000278d0       $chain$0$?UpdateDrawViewByViewIndex@CompareViewPanel@@AEAAXH@Z 000000014003b8d0     CompareViewPanel.obj
 0002:000278e4       $chain$1$?UpdateDrawViewByViewIndex@CompareViewPanel@@AEAAXH@Z 000000014003b8e4     CompareViewPanel.obj
 0002:000278f8       $chain$2$?UpdateDrawViewByViewIndex@CompareViewPanel@@AEAAXH@Z 000000014003b8f8     CompareViewPanel.obj
 0002:00027908       $chain$3$?UpdateDrawViewByViewIndex@CompareViewPanel@@AEAAXH@Z 000000014003b908     CompareViewPanel.obj
 0002:00027918       $unwind$??_G?$MyAutoPtr@VAISFCompareView@ARC_AISF@@@@UEAAPEAXI@Z 000000014003b918     CompareViewPanel.obj
 0002:00027930       $ip2state$??_G?$MyAutoPtr@VAISFCompareView@ARC_AISF@@@@UEAAPEAXI@Z 000000014003b930     CompareViewPanel.obj
 0002:00027938       $unwind$??_GCompareViewPanel@@UEAAPEAXI@Z 000000014003b938     CompareViewPanel.obj
 0002:00027950       $ip2state$??_GCompareViewPanel@@UEAAPEAXI@Z 000000014003b950     CompareViewPanel.obj
 0002:00027958       $unwind$?GetLastInputPath@IniSetting@@SA?AVQString@@PEBD@Z 000000014003b958     IniSetting.obj
 0002:00027968       $stateUnwindMap$?GetLastInputPath@IniSetting@@SA?AVQString@@PEBD@Z 000000014003b968     IniSetting.obj
 0002:00027968       $stateUnwindMap$?GetAppName@IniSetting@@SA?AVQString@@W4SETTING_TYPE@1@@Z 000000014003b968     IniSetting.obj
 0002:000279a0       $ip2state$?GetLastInputPath@IniSetting@@SA?AVQString@@PEBD@Z 000000014003b9a0     IniSetting.obj
 0002:000279e0       $unwind$?GetLastFilterType@IniSetting@@SAHPEBD@Z 000000014003b9e0     IniSetting.obj
 0002:000279f0       $stateUnwindMap$?GetLastFilterType@IniSetting@@SAHPEBD@Z 000000014003b9f0     IniSetting.obj
 0002:000279f0       $stateUnwindMap$?IfShowDrawPanel@IniSetting@@SAHW4SETTING_TYPE@1@@Z 000000014003b9f0     IniSetting.obj
 0002:00027a20       $ip2state$?GetLastFilterType@IniSetting@@SAHPEBD@Z 000000014003ba20     IniSetting.obj
 0002:00027a60       $unwind$?GetImageExtFilter@IniSetting@@SA?AVQString@@W4SETTING_TYPE@1@@Z 000000014003ba60     IniSetting.obj
 0002:00027a78       $stateUnwindMap$?GetImageExtFilter@IniSetting@@SA?AVQString@@W4SETTING_TYPE@1@@Z 000000014003ba78     IniSetting.obj
 0002:00027a78       $stateUnwindMap$?GetVideoExtFilter@IniSetting@@SA?AVQString@@W4SETTING_TYPE@1@@Z 000000014003ba78     IniSetting.obj
 0002:00027ad0       $ip2state$?GetImageExtFilter@IniSetting@@SA?AVQString@@W4SETTING_TYPE@1@@Z 000000014003bad0     IniSetting.obj
 0002:00027b30       $unwind$?GetVideoExtFilter@IniSetting@@SA?AVQString@@W4SETTING_TYPE@1@@Z 000000014003bb30     IniSetting.obj
 0002:00027b50       $ip2state$?GetVideoExtFilter@IniSetting@@SA?AVQString@@W4SETTING_TYPE@1@@Z 000000014003bb50     IniSetting.obj
 0002:00027bb0       $unwind$?GetAppName@IniSetting@@SA?AVQString@@W4SETTING_TYPE@1@@Z 000000014003bbb0     IniSetting.obj
 0002:00027bc0       $ip2state$?GetAppName@IniSetting@@SA?AVQString@@W4SETTING_TYPE@1@@Z 000000014003bbc0     IniSetting.obj
 0002:00027c00       $unwind$?IfShowDrawPanel@IniSetting@@SAHW4SETTING_TYPE@1@@Z 000000014003bc00     IniSetting.obj
 0002:00027c10       $ip2state$?IfShowDrawPanel@IniSetting@@SAHW4SETTING_TYPE@1@@Z 000000014003bc10     IniSetting.obj
 0002:00027c50       $unwind$?GetUserConfigFile@IniSetting@@CA?AVQString@@PEBD@Z 000000014003bc50     IniSetting.obj
 0002:00027c68       $stateUnwindMap$?GetUserConfigFile@IniSetting@@CA?AVQString@@PEBD@Z 000000014003bc68     IniSetting.obj
 0002:00027cc0       $ip2state$?GetUserConfigFile@IniSetting@@CA?AVQString@@PEBD@Z 000000014003bcc0     IniSetting.obj
 0002:00027d08       $unwind$?GetAppSetFile@IniSetting@@CA?AVQString@@W4SETTING_TYPE@1@@Z 000000014003bd08     IniSetting.obj
 0002:00027d1c       $stateUnwindMap$?GetAppSetFile@IniSetting@@CA?AVQString@@W4SETTING_TYPE@1@@Z 000000014003bd1c     IniSetting.obj
 0002:00027d50       $ip2state$?GetAppSetFile@IniSetting@@CA?AVQString@@W4SETTING_TYPE@1@@Z 000000014003bd50     IniSetting.obj
 0002:00027d78       $unwind$?setupUi@Ui_maintoolbar_root@@QEAAXPEAVQWidget@@@Z 000000014003bd78     MainToolbarPanel.obj
 0002:00027d98       $stateUnwindMap$?setupUi@Ui_maintoolbar_root@@QEAAXPEAVQWidget@@@Z 000000014003bd98     MainToolbarPanel.obj
 0002:00027ef0       $ip2state$?setupUi@Ui_maintoolbar_root@@QEAAXPEAVQWidget@@@Z 000000014003bef0     MainToolbarPanel.obj
 0002:00028190       $unwind$?retranslateUi@Ui_maintoolbar_root@@QEAAXPEAVQWidget@@@Z 000000014003c190     MainToolbarPanel.obj
 0002:000281a8       $stateUnwindMap$?retranslateUi@Ui_maintoolbar_root@@QEAAXPEAVQWidget@@@Z 000000014003c1a8     MainToolbarPanel.obj
 0002:00028220       $ip2state$?retranslateUi@Ui_maintoolbar_root@@QEAAXPEAVQWidget@@@Z 000000014003c220     MainToolbarPanel.obj
 0002:000282e8       $unwind$?Init@MainToolbarPanel@@UEAAXXZ 000000014003c2e8     MainToolbarPanel.obj
 0002:000282fc       $stateUnwindMap$?Init@MainToolbarPanel@@UEAAXXZ 000000014003c2fc     MainToolbarPanel.obj
 0002:00028350       $ip2state$?Init@MainToolbarPanel@@UEAAXXZ 000000014003c350     MainToolbarPanel.obj
 0002:000283d0       $chain$0$?OnChkFitIn@MainToolbarPanel@@QEAAX_N@Z 000000014003c3d0     MainToolbarPanel.obj
 0002:000283e4       $chain$1$?OnChkFitIn@MainToolbarPanel@@QEAAX_N@Z 000000014003c3e4     MainToolbarPanel.obj
 0002:000283f4       $chain$0$?OnChkShowFileInfo@MainToolbarPanel@@QEAAX_N@Z 000000014003c3f4     MainToolbarPanel.obj
 0002:00028408       $chain$1$?OnChkShowFileInfo@MainToolbarPanel@@QEAAX_N@Z 000000014003c408     MainToolbarPanel.obj
 0002:00028418       $unwind$?qt_metacall@CompareViewPanel@@UEAAHW4Call@QMetaObject@@HPEAPEAX@Z 000000014003c418     moc_CompareViewPanel.obj
 0002:00028418       $unwind$?qt_metacall@HomePage@@UEAAHW4Call@QMetaObject@@HPEAPEAX@Z 000000014003c418     moc_HomePage.obj
 0002:00028418       $unwind$??0MyPanelBase@@QEAA@PEAVAppMainWnd@@HPEAVQWidget@@@Z 000000014003c418     MyPanelBase.obj
 0002:00028418       $unwind$?qt_metacall@MyPanelBase@@UEAAHW4Call@QMetaObject@@HPEAPEAX@Z 000000014003c418     moc_MyPanelBase.obj
 0002:00028418       $unwind$?qt_metacall@MyWidget@@UEAAHW4Call@QMetaObject@@HPEAPEAX@Z 000000014003c418     moc_MyWidget.obj
 0002:00028418       $unwind$?qt_metacall@MyDrawWidget@@UEAAHW4Call@QMetaObject@@HPEAPEAX@Z 000000014003c418     moc_MyDrawWidget.obj
 0002:00028418       $unwind$?qt_metacall@TitleBar@@UEAAHW4Call@QMetaObject@@HPEAPEAX@Z 000000014003c418     moc_TitleBar.obj
 0002:00028418       $unwind$?qt_metacall@DlgHelp@@UEAAHW4Call@QMetaObject@@HPEAPEAX@Z 000000014003c418     moc_DlgHelp.obj
 0002:00028418       $unwind$?qt_metacall@FileBrowser@@UEAAHW4Call@QMetaObject@@HPEAPEAX@Z 000000014003c418     moc_FileBrowser.obj
 0002:00028418       $unwind$?qt_metacall@MainToolbarPanel@@UEAAHW4Call@QMetaObject@@HPEAPEAX@Z 000000014003c418     moc_MainToolbarPanel.obj
 0002:0002842c       $chain$0$?Init@MyPanelBase@@UEAAXXZ 000000014003c42c     MyPanelBase.obj
 0002:00028440       $chain$1$?Init@MyPanelBase@@UEAAXXZ 000000014003c440     MyPanelBase.obj
 0002:00028450       $unwind$??0MyWidget@@QEAA@PEAVQWidget@@V?$QFlags@W4WindowType@Qt@@@@@Z 000000014003c450     MyWidget.obj
 0002:00028460       $stateUnwindMap$??0MyWidget@@QEAA@PEAVQWidget@@V?$QFlags@W4WindowType@Qt@@@@@Z 000000014003c460     MyWidget.obj
 0002:00028468       $ip2state$??0MyWidget@@QEAA@PEAVQWidget@@V?$QFlags@W4WindowType@Qt@@@@@Z 000000014003c468     MyWidget.obj
 0002:00028478       $unwind$?SetWidgetBackColor@QTUICommon@@SAXPEAVQWidget@@AEBVQColor@@@Z 000000014003c478     QTUICommon.obj
 0002:0002848c       $stateUnwindMap$?SetWidgetBackColor@QTUICommon@@SAXPEAVQWidget@@AEBVQColor@@@Z 000000014003c48c     QTUICommon.obj
 0002:000284a0       $ip2state$?SetWidgetBackColor@QTUICommon@@SAXPEAVQWidget@@AEBVQColor@@@Z 000000014003c4a0     QTUICommon.obj
 0002:000284c8       $unwind$??0MyDrawWidget@@QEAA@HPEAVQWidget@@V?$QFlags@W4WindowType@Qt@@@@@Z 000000014003c4c8     MyDrawWidget.obj
 0002:000284e4       $stateUnwindMap$??0MyDrawWidget@@QEAA@HPEAVQWidget@@V?$QFlags@W4WindowType@Qt@@@@@Z 000000014003c4e4     MyDrawWidget.obj
 0002:000284f0       $ip2state$??0MyDrawWidget@@QEAA@HPEAVQWidget@@V?$QFlags@W4WindowType@Qt@@@@@Z 000000014003c4f0     MyDrawWidget.obj
 0002:00028500       $unwind$?SetUpdateViewRect@MyDrawWidget@@QEAAXVQRect@@@Z 000000014003c500     MyDrawWidget.obj
 0002:00028500       $unwind$?SetCurrentImgRect@MyDrawWidget@@QEAAXVQRect@@@Z 000000014003c500     MyDrawWidget.obj
 0002:00028518       $unwind$?paintEvent@MyDrawWidget@@MEAAXPEAVQPaintEvent@@@Z 000000014003c518     MyDrawWidget.obj
 0002:00028538       $stateUnwindMap$?paintEvent@MyDrawWidget@@MEAAXPEAVQPaintEvent@@@Z 000000014003c538     MyDrawWidget.obj
 0002:00028580       $ip2state$?paintEvent@MyDrawWidget@@MEAAXPEAVQPaintEvent@@@Z 000000014003c580     MyDrawWidget.obj
 0002:000285f0       $unwind$?setupUi@Ui_titlebar_root@@QEAAXPEAVQWidget@@@Z 000000014003c5f0     TitleBar.obj
 0002:0002860c       $stateUnwindMap$?setupUi@Ui_titlebar_root@@QEAAXPEAVQWidget@@@Z 000000014003c60c     TitleBar.obj
 0002:000286e0       $ip2state$?setupUi@Ui_titlebar_root@@QEAAXPEAVQWidget@@@Z 000000014003c6e0     TitleBar.obj
 0002:00028878       $unwind$?retranslateUi@Ui_titlebar_root@@QEAAXPEAVQWidget@@@Z 000000014003c878     TitleBar.obj
 0002:0002888c       $stateUnwindMap$?retranslateUi@Ui_titlebar_root@@QEAAXPEAVQWidget@@@Z 000000014003c88c     TitleBar.obj
 0002:000288d0       $ip2state$?retranslateUi@Ui_titlebar_root@@QEAAXPEAVQWidget@@@Z 000000014003c8d0     TitleBar.obj
 0002:00028938       $unwind$?Init@TitleBar@@UEAAXXZ 000000014003c938     TitleBar.obj
 0002:00028950       $stateUnwindMap$?Init@TitleBar@@UEAAXXZ 000000014003c950     TitleBar.obj
 0002:00028970       $ip2state$?Init@TitleBar@@UEAAXXZ 000000014003c970     TitleBar.obj
 0002:000289b0       $unwind$?OnPanelMousePress@TitleBar@@UEAAXPEAVQMouseEvent@@@Z 000000014003c9b0     TitleBar.obj
 0002:000289bc       $chain$0$?OnPanelMousePress@TitleBar@@UEAAXPEAVQMouseEvent@@@Z 000000014003c9bc     TitleBar.obj
 0002:000289d0       $chain$1$?OnPanelMousePress@TitleBar@@UEAAXPEAVQMouseEvent@@@Z 000000014003c9d0     TitleBar.obj
 0002:000289e0       $unwind$?UpdateTitleBar@TitleBar@@QEAAXXZ 000000014003c9e0     TitleBar.obj
 0002:000289f4       $stateUnwindMap$?UpdateTitleBar@TitleBar@@QEAAXXZ 000000014003c9f4     TitleBar.obj
 0002:00028a08       $ip2state$?UpdateTitleBar@TitleBar@@QEAAXXZ 000000014003ca08     TitleBar.obj
 0002:00028a30       $unwind$?OnAboutClicked@TitleBar@@AEAAX_N@Z 000000014003ca30     TitleBar.obj
 0002:00028a40       $stateUnwindMap$?OnAboutClicked@TitleBar@@AEAAX_N@Z 000000014003ca40     TitleBar.obj
 0002:00028a48       $ip2state$?OnAboutClicked@TitleBar@@AEAAX_N@Z 000000014003ca48     TitleBar.obj
 0002:00028a60       $unwind$?detach_helper@?$QList@VQString@@@@AEAAXH@Z 000000014003ca60     main.obj
 0002:00028a78       $tryMap$?detach_helper@?$QList@VQString@@@@AEAAXH@Z 000000014003ca78     main.obj
 0002:00028a8c       $handlerMap$0$?detach_helper@?$QList@VQString@@@@AEAAXH@Z 000000014003ca8c     main.obj
 0002:00028aa0       $ip2state$?detach_helper@?$QList@VQString@@@@AEAAXH@Z 000000014003caa0     main.obj
 0002:00028ac0       $unwind$?catch$0@?0??detach_helper@?$QList@VQString@@@@AEAAXH@Z@4HA 000000014003cac0     main.obj
 0002:00028ad4       $unwind$?ExceptionFilter@CrashDump@@SAJPEAU_EXCEPTION_POINTERS@@@Z 000000014003cad4     main.obj
 0002:00028ae8       $chain$1$?ExceptionFilter@CrashDump@@SAJPEAU_EXCEPTION_POINTERS@@@Z 000000014003cae8     main.obj
 0002:00028b00       $chain$2$?ExceptionFilter@CrashDump@@SAJPEAU_EXCEPTION_POINTERS@@@Z 000000014003cb00     main.obj
 0002:00028b14       $chain$4$?ExceptionFilter@CrashDump@@SAJPEAU_EXCEPTION_POINTERS@@@Z 000000014003cb14     main.obj
 0002:00028b2c       $chain$5$?ExceptionFilter@CrashDump@@SAJPEAU_EXCEPTION_POINTERS@@@Z 000000014003cb2c     main.obj
 0002:00028b3c       $chain$6$?ExceptionFilter@CrashDump@@SAJPEAU_EXCEPTION_POINTERS@@@Z 000000014003cb3c     main.obj
 0002:00028b4c       $chain$7$?ExceptionFilter@CrashDump@@SAJPEAU_EXCEPTION_POINTERS@@@Z 000000014003cb4c     main.obj
 0002:00028b5c       $unwind$main               000000014003cb5c     main.obj
 0002:00028b74       $stateUnwindMap$main       000000014003cb74     main.obj
 0002:00028bd0       $ip2state$main             000000014003cbd0     main.obj
 0002:00028c60       $unwind$??__Fdummy@?A0x7ab48115@@YAXXZ 000000014003cc60     qrc_appmainwnd.obj
 0002:00028c70       $ip2state$??__Fdummy@?A0x7ab48115@@YAXXZ 000000014003cc70     qrc_appmainwnd.obj
 0002:00028c78       $unwind$?AddRectEnd@MyDrawWidget@@QEAAXH@Z 000000014003cc78     moc_MyDrawWidget.obj
 0002:00028c78       $unwind$?MaxWndClickedEvent@TitleBar@@QEAAX_N@Z 000000014003cc78     moc_TitleBar.obj
 0002:00028c80       $unwind$?qt_metacall@AppMainWnd@@UEAAHW4Call@QMetaObject@@HPEAPEAX@Z 000000014003cc80     moc_AppMainWnd.obj
 0002:00028c94       $unwind$?qt_static_metacall@AppMainWnd@@CAXPEAVQObject@@W4Call@QMetaObject@@HPEAPEAX@Z 000000014003cc94     moc_AppMainWnd.obj
 0002:00028c9c       $unwind$?__scrt_throw_std_bad_array_new_length@@YAXXZ 000000014003cc9c     MSVCRT:throw_bad_alloc.obj
 0002:00028c9c       $unwind$?__scrt_throw_std_bad_alloc@@YAXXZ 000000014003cc9c     MSVCRT:throw_bad_alloc.obj
 0002:00028c9c       $unwind$?qt_static_metacall@MyLabel@@CAXPEAVQObject@@W4Call@QMetaObject@@HPEAPEAX@Z 000000014003cc9c     moc_MyLabel.obj
 0002:00028ca4       $unwind$?onKeyReleaseEvent@MyWidget@@QEAAXPEAVQKeyEvent@@@Z 000000014003cca4     moc_MyWidget.obj
 0002:00028ca4       $unwind$?onMousePressEvent@MyWidget@@QEAAXPEAVQMouseEvent@@@Z 000000014003cca4     moc_MyWidget.obj
 0002:00028ca4       $unwind$?onMouseDoubleClickEvent@MyLabel@@QEAAXPEAVQMouseEvent@@@Z 000000014003cca4     moc_MyLabel.obj
 0002:00028ca4       $unwind$?onMouseWheelEvent@MyWidget@@QEAAXPEAVQWheelEvent@@@Z 000000014003cca4     moc_MyWidget.obj
 0002:00028ca4       $unwind$?onMouseReleaseEvent@MyLabel@@QEAAXPEAVQMouseEvent@@@Z 000000014003cca4     moc_MyLabel.obj
 0002:00028ca4       $unwind$?onMouseMoveEvent@MyWidget@@QEAAXPEAVQMouseEvent@@@Z 000000014003cca4     moc_MyWidget.obj
 0002:00028ca4       $unwind$?onKeyPressEvent@MyWidget@@QEAAXPEAVQKeyEvent@@@Z 000000014003cca4     moc_MyWidget.obj
 0002:00028ca4       $unwind$?onMouseMoveEvent@MyLabel@@QEAAXPEAVQMouseEvent@@@Z 000000014003cca4     moc_MyLabel.obj
 0002:00028ca4       $unwind$?onMousePressEvent@MyLabel@@QEAAXPEAVQMouseEvent@@@Z 000000014003cca4     moc_MyLabel.obj
 0002:00028ca4       $unwind$?onMouseReleaseEvent@MyWidget@@QEAAXPEAVQMouseEvent@@@Z 000000014003cca4     moc_MyWidget.obj
 0002:00028ca4       $unwind$?onResize@MyWidget@@QEAAXPEAVQResizeEvent@@@Z 000000014003cca4     moc_MyWidget.obj
 0002:00028ca4       $unwind$__report_gsfailure 000000014003cca4     MSVCRT:gs_report.obj
 0002:00028ca4       $unwind$?onResize@MyLabel@@QEAAXPEAVQResizeEvent@@@Z 000000014003cca4     moc_MyLabel.obj
 0002:00028ca4       $unwind$?onMouseDoubleClickEvent@MyWidget@@QEAAXPEAVQMouseEvent@@@Z 000000014003cca4     moc_MyWidget.obj
 0002:00028cac       $unwind$?qt_static_metacall@FileBrowser@@CAXPEAVQObject@@W4Call@QMetaObject@@HPEAPEAX@Z 000000014003ccac     moc_FileBrowser.obj
 0002:00028cbc       $stateUnwindMap$?qt_static_metacall@FileBrowser@@CAXPEAVQObject@@W4Call@QMetaObject@@HPEAPEAX@Z 000000014003ccbc     moc_FileBrowser.obj
 0002:00028cc8       $ip2state$?qt_static_metacall@FileBrowser@@CAXPEAVQObject@@W4Call@QMetaObject@@HPEAPEAX@Z 000000014003ccc8     moc_FileBrowser.obj
 0002:00028cd8       $unwind$?FileSelected@FileBrowser@@QEAAXVQStringList@@@Z 000000014003ccd8     moc_FileBrowser.obj
 0002:00028ce8       $ip2state$?FileSelected@FileBrowser@@QEAAXVQStringList@@@Z 000000014003cce8     moc_FileBrowser.obj
 0002:00028cf0       $unwind$__GSHandlerCheck_EH 000000014003ccf0     MSVCRT:gshandlereh.obj
 0002:00028d08       $xdatasym                  000000014003cd08     MSVCRT:amdsecgs.obj
 0002:00028d0c       $unwind$?__scrt_initialize_thread_safe_statics@@YAHXZ 000000014003cd0c     MSVCRT:thread_safe_statics.obj
 0002:00028d28       $ip2state$?__scrt_initialize_thread_safe_statics@@YAHXZ 000000014003cd28     MSVCRT:thread_safe_statics.obj
 0002:00028d30       $unwind$__GSHandlerCheckCommon 000000014003cd30     MSVCRT:gshandler.obj
 0002:00028d38       $unwind$__scrt_is_nonwritable_in_current_image 000000014003cd38     MSVCRT:utility.obj
 0002:00028d58       $unwind$__scrt_is_nonwritable_in_current_image$filt$0 000000014003cd58     MSVCRT:utility.obj
 0002:00028d60       $unwind$__scrt_initialize_onexit_tables 000000014003cd60     MSVCRT:utility.obj
 0002:00028d68       $unwind$?__scrt_common_main_seh@@YAHXZ 000000014003cd68     MSVCRT:exe_winmain.obj
 0002:00028d9c       $unwind$capture_previous_context 000000014003cd9c     MSVCRT:gs_report.obj
 0002:00028da8       $unwind$__scrt_get_show_window_mode 000000014003cda8     MSVCRT:utility_desktop.obj
 0002:00028db0       $unwind$__scrt_fastfail    000000014003cdb0     MSVCRT:utility_desktop.obj
 0002:00028dc0       $unwind$__isa_available_init 000000014003cdc0     MSVCRT:cpu_disp.obj
 0002:00028dd0       $unwind$__security_init_cookie 000000014003cdd0     MSVCRT:gs_support.obj
 0002:00028de0       $xdatasym                  000000014003cde0     MSVCRT:guard_dispatch.obj
 0002:00028de4       $unwind$WinMain            000000014003cde4     qtmain:qtmain_win.obj
 0002:00028df8       $chain$4$WinMain           000000014003cdf8     qtmain:qtmain_win.obj
 0002:00028e14       $chain$5$WinMain           000000014003ce14     qtmain:qtmain_win.obj
 0002:0002a394       .idata$6                   000000014003e394     Qt5Multimedia:Qt5Multimedia.dll
 0002:0002e9ec       .idata$6                   00000001400429ec     Qt5Widgets:Qt5Widgets.dll
 0002:0002ee56       .idata$6                   0000000140042e56     Qt5Gui:Qt5Gui.dll
 0002:0002fdee       .idata$6                   0000000140043dee     Qt5Core:Qt5Core.dll
 0002:0002ff12       .idata$6                   0000000140043f12     kernel32:KERNEL32.dll
 0002:0002fffc       .idata$6                   0000000140043ffc     user32:USER32.dll
 0002:0003002a       .idata$6                   000000014004402a     msvcprt:MSVCP140.dll
 0002:00030038       .idata$6                   0000000140044038     AISFCompareView:AISFCompareView.dll
 0002:00030110       .idata$6                   0000000140044110     vcruntime:VCRUNTIME140.dll
 0002:00030318       .idata$6                   0000000140044318     ucrt:api-ms-win-crt-runtime-l1-1-0.dll
 0002:0003033a       .idata$6                   000000014004433a     ucrt:api-ms-win-crt-heap-l1-1-0.dll
 0002:0003035a       .idata$6                   000000014004435a     ucrt:api-ms-win-crt-stdio-l1-1-0.dll
 0002:0003037a       .idata$6                   000000014004437a     ucrt:api-ms-win-crt-math-l1-1-0.dll
 0002:0003039a       .idata$6                   000000014004439a     ucrt:api-ms-win-crt-locale-l1-1-0.dll
 0002:000303d2       .idata$6                   00000001400443d2     shell32:SHELL32.dll
 0003:00000000       ?MAT_CC_YCbCr2RGB_JPG@AISFGLRGBColorSpace@ARC_AISF@@3U?$mat@$02$02M$0A@@glm@@B 0000000140045000     IniSetting.obj
 0003:00000028       ?MAT_CC_YCbCr2RGB_BT601@AISFGLRGBColorSpace@ARC_AISF@@3U?$mat@$02$02M$0A@@glm@@B 0000000140045028     IniSetting.obj
 0003:00000050       ?MAT_CC_YCbCr2RGB_BT709@AISFGLRGBColorSpace@ARC_AISF@@3U?$mat@$02$02M$0A@@glm@@B 0000000140045050     IniSetting.obj
 0003:00000078       ?MAT_CC_YCbCr2RGB_BT2020@AISFGLRGBColorSpace@ARC_AISF@@3U?$mat@$02$02M$0A@@glm@@B 0000000140045078     IniSetting.obj
 0003:000000a0       ?MAT_CC_YCbCr2RGB_BT601_OPENCV_FULL@AISFGLRGBColorSpace@ARC_AISF@@3U?$mat@$02$02M$0A@@glm@@B 00000001400450a0     IniSetting.obj
 0003:000000c8       ?s_WindowFitBtn@@3PEBDEB   00000001400450c8     TitleBar.obj
 0003:000000d0       ?s_WindowFullBtn@@3PEBDEB  00000001400450d0     TitleBar.obj
 0003:000002f0       ?qt_meta_stringdata_QFormInternal__TranslationWatcher@@3Uqt_meta_stringdata_QFormInternal__TranslationWatcher_t@@B 00000001400452f0     Qt5UiTools:quiloader.obj
 0003:00000360       ?qt_meta_stringdata_QUiLoader@@3Uqt_meta_stringdata_QUiLoader_t@@B 0000000140045360     Qt5UiTools:moc_quiloader.obj
 0003:00000388       ?buttonGroupPropertyC@@3PEBDEB 0000000140045388     Qt5UiTools:abstractformbuilder.obj
 0003:000003c0       ?qt_meta_stringdata_QFormInternal__QAbstractFormBuilderGadget@@3Uqt_meta_stringdata_QFormInternal__QAbstractFormBuilderGadget_t@@B 00000001400453c0     Qt5UiTools:moc_properties_p.obj
 0003:00001010       ?PageInfoList@?1??InitUI@AppMainWnd@@QEAAXW4PAGE_TYPE@2@@Z@4PAUPageInfo@2@A 0000000140046010     AppMainWnd.obj
 0003:00001030       ?$TSS0@?1??InitUI@AppMainWnd@@QEAAXW4PAGE_TYPE@2@@Z@4HA 0000000140046030     AppMainWnd.obj
 0003:00001038       ?PanelInfoList@?1??Init@ComparePage@@UEAAXXZ@4PAUPanelInfo@2@A 0000000140046038     ComparePage.obj
 0003:00001058       ?$TSS0@?1??Init@ComparePage@@UEAAXXZ@4HA 0000000140046058     ComparePage.obj
 0003:00001060       ?s_UIStatus@?1??Init@HomePage@@UEAAXXZ@4PAUPanelUIStatus@@A 0000000140046060     HomePage.obj
 0003:00001070       ?$TSS0@?1??Init@HomePage@@UEAAXXZ@4HA 0000000140046070     HomePage.obj
 0003:00001080       ?LIST_RGBCCMatrix@AISFGLRGBColorSpace@ARC_AISF@@3QBU?$mat@$02$02M$0A@@glm@@B 0000000140046080     IniSetting.obj
 0003:00001140       ?s_UIStatus@?1??Init@TitleBar@@UEAAXXZ@4PAUPanelUIStatus@@A 0000000140046140     TitleBar.obj
 0003:00001170       ?$TSS0@?1??Init@TitleBar@@UEAAXXZ@4HA 0000000140046170     TitleBar.obj
 0003:0000117c       ?g_widgets@@3U?$QGlobalStatic@V?$QMap@VQString@@_N@@$1?innerFunction@Q_QGS_g_widgets@?A0x135e8798@@YAPEAV1@XZ$1?guard@34@3V?$QBasicAtomicInteger@H@@A@@A 000000014004617c     Qt5UiTools:quiloader.obj
 0003:00001188       ?qt_meta_extradata_QFormInternal__QAbstractFormBuilderGadget@@3QBQEBUQMetaObject@@B 0000000140046188     Qt5UiTools:moc_properties_p.obj
 0003:000011b8       ?_Tss_mutex@@3U_RTL_CRITICAL_SECTION@@A 00000001400461b8     MSVCRT:thread_safe_statics.obj
 0003:000011e0       ?_Tss_cv@@3U_RTL_CONDITION_VARIABLE@@A 00000001400461e0     MSVCRT:thread_safe_statics.obj
 0003:000011e8       ?_Tss_event@@3PEAXEA       00000001400461e8     MSVCRT:thread_safe_statics.obj
 0003:000011f0       ?encoded_sleep_condition_variable_cs@@3P6AHPEAU_RTL_CONDITION_VARIABLE@@PEAU_RTL_CRITICAL_SECTION@@K@ZEA 00000001400461f0     MSVCRT:thread_safe_statics.obj
 0003:000011f8       ?encoded_wake_all_condition_variable@@3P6AXPEAU_RTL_CONDITION_VARIABLE@@@ZEA 00000001400461f8     MSVCRT:thread_safe_statics.obj
 0003:00001218       ?is_initialized_as_dll@@3_NA 0000000140046218     MSVCRT:utility.obj
 0003:00001219       ?module_local_atexit_table_initialized@@3_NA 0000000140046219     MSVCRT:utility.obj
 0003:00001220       ?module_local_atexit_table@@3U_onexit_table_t@@A 0000000140046220     MSVCRT:utility.obj
 0003:00001238       ?module_local_at_quick_exit_table@@3U_onexit_table_t@@A 0000000140046238     MSVCRT:utility.obj
 0003:00001250       GS_ExceptionRecord         0000000140046250     MSVCRT:gs_report.obj
 0003:000012f0       GS_ContextRecord           00000001400462f0     MSVCRT:gs_report.obj
 0004:00000018       $pdata$??0CAppAssistWnd@@QEAA@PEAVIAppHandle@@@Z 0000000140047018     AppAssistWnd.obj
 0004:00000030       $pdata$?CreateWnd@CAppAssistWnd@@QEAAXPEAUHINSTANCE__@@PEB_W@Z 0000000140047030     AppAssistWnd.obj
 0004:0000003c       $pdata$?DetroyWnd@CAppAssistWnd@@QEAAXXZ 000000014004703c     AppAssistWnd.obj
 0004:00000048       $pdata$?WindowProc@CAppAssistWnd@@KA_JPEAUHWND__@@I_K_J@Z 0000000140047048     AppAssistWnd.obj
 0004:00000024       $pdata$??_GCAppAssistWnd@@UEAAPEAXI@Z 0000000140047024     AppAssistWnd.obj
 0004:000000c0       $pdata$??1?$basic_string@DU?$char_traits@D@std@@V?$allocator@D@2@@std@@QEAA@XZ 00000001400470c0     AppMainWnd.obj
 0004:00000210       $pdata$?assign@?$basic_string@DU?$char_traits@D@std@@V?$allocator@D@2@@std@@QEAAAEAV12@QEBD_K@Z 0000000140047210     AppMainWnd.obj
 0004:0000021c       $pdata$0$?assign@?$basic_string@DU?$char_traits@D@std@@V?$allocator@D@2@@std@@QEAAAEAV12@QEBD_K@Z 000000014004721c     AppMainWnd.obj
 0004:00000228       $pdata$1$?assign@?$basic_string@DU?$char_traits@D@std@@V?$allocator@D@2@@std@@QEAAAEAV12@QEBD_K@Z 0000000140047228     AppMainWnd.obj
 0004:00000234       $pdata$2$?assign@?$basic_string@DU?$char_traits@D@std@@V?$allocator@D@2@@std@@QEAAAEAV12@QEBD_K@Z 0000000140047234     AppMainWnd.obj
 0004:00000240       $pdata$3$?assign@?$basic_string@DU?$char_traits@D@std@@V?$allocator@D@2@@std@@QEAAAEAV12@QEBD_K@Z 0000000140047240     AppMainWnd.obj
 0004:000001f8       $pdata$?_Xlen@?$basic_string@DU?$char_traits@D@std@@V?$allocator@D@2@@std@@SAXXZ 00000001400471f8     AppMainWnd.obj
 0004:000000e4       $pdata$??H@YA?BVQString@@AEBV0@PEBD@Z 00000001400470e4     AppMainWnd.obj
 0004:00000e04       $pdata$?dtor$0@?0???H@YA?BVQString@@AEBV0@PEBD@Z@4HA 0000000140047e04     AppMainWnd.obj
 0004:00000090       $pdata$??0?$QList@VQString@@@@QEAA@AEBV0@@Z 0000000140047090     AppMainWnd.obj
 0004:00000dec       $pdata$?catch$0@?0???0?$QList@VQString@@@@QEAA@AEBV0@@Z@4HA 0000000140047dec     AppMainWnd.obj
 0004:000000a8       $pdata$??1?$QList@VQString@@@@QEAA@XZ 00000001400470a8     AppMainWnd.obj
 0004:000000d8       $pdata$??4?$QList@VQString@@@@QEAAAEAV0@AEBV0@@Z 00000001400470d8     AppMainWnd.obj
 0004:00000204       $pdata$?append@?$QList@VQString@@@@QEAAXAEBVQString@@@Z 0000000140047204     AppMainWnd.obj
 0004:00000e4c       $pdata$?catch$0@?0??append@?$QList@VQString@@@@QEAAXAEBVQString@@@Z@4HA 0000000140047e4c     AppMainWnd.obj
 0004:00000e58       $pdata$?catch$1@?0??append@?$QList@VQString@@@@QEAAXAEBVQString@@@Z@4HA 0000000140047e58     AppMainWnd.obj
 0004:000002ac       $pdata$?detach_helper_grow@?$QList@VQString@@@@AEAAPEAUNode@1@HH@Z 00000001400472ac     AppMainWnd.obj
 0004:00000e70       $pdata$?catch$1@?0??detach_helper_grow@?$QList@VQString@@@@AEAAPEAUNode@1@HH@Z@4HA 0000000140047e70     AppMainWnd.obj
 0004:00000e7c       $pdata$?catch$0@?0??detach_helper_grow@?$QList@VQString@@@@AEAAPEAUNode@1@HH@Z@4HA 0000000140047e7c     AppMainWnd.obj
 0004:000002dc       $pdata$?node_copy@?$QList@VQString@@@@AEAAXPEAUNode@1@00@Z 00000001400472dc     AppMainWnd.obj
 0004:00000e88       $pdata$?catch$0@?0??node_copy@?$QList@VQString@@@@AEAAXPEAUNode@1@00@Z@4HA 0000000140047e88     AppMainWnd.obj
 0004:000002f4       $pdata$?node_destruct@?$QList@VQString@@@@AEAAXPEAUNode@1@0@Z 00000001400472f4     AppMainWnd.obj
 0004:00000114       $pdata$??_GQWidget@@UEAAPEAXI@Z 0000000140047114     AppMainWnd.obj
 0004:000000fc       $pdata$??_GQFrame@@UEAAPEAXI@Z 00000001400470fc     AppMainWnd.obj
 0004:00000108       $pdata$??_GQGridLayout@@UEAAPEAXI@Z 0000000140047108     AppMainWnd.obj
 0004:0000030c       $pdata$?setupUi@Ui_AppMainWndClass@@QEAAXPEAVQMainWindow@@@Z 000000014004730c     AppMainWnd.obj
 0004:00000ea0       $pdata$?dtor$14@?0??setupUi@Ui_AppMainWndClass@@QEAAXPEAVQMainWindow@@@Z@4HA 0000000140047ea0     AppMainWnd.obj
 0004:00000ea0       $pdata$?dtor$19@?0??setupUi@Ui_AppMainWndClass@@QEAAXPEAVQMainWindow@@@Z@4HA 0000000140047ea0     AppMainWnd.obj
 0004:00000ea0       $pdata$?dtor$4@?0??setupUi@Ui_edit_root@@QEAAXPEAVQWidget@@@Z@4HA 0000000140047ea0     ComparePage.obj
 0004:00000ea0       $pdata$?dtor$23@?0??setupUi@Ui_AppMainWndClass@@QEAAXPEAVQMainWindow@@@Z@4HA 0000000140047ea0     AppMainWnd.obj
 0004:00000ea0       $pdata$?dtor$2@?0??setupUi@Ui_AppMainWndClass@@QEAAXPEAVQMainWindow@@@Z@4HA 0000000140047ea0     AppMainWnd.obj
 0004:00000ea0       $pdata$?dtor$8@?0??setupUi@Ui_edit_root@@QEAAXPEAVQWidget@@@Z@4HA 0000000140047ea0     ComparePage.obj
 0004:00000ea0       $pdata$?dtor$7@?0??setupUi@Ui_AppMainWndClass@@QEAAXPEAVQMainWindow@@@Z@4HA 0000000140047ea0     AppMainWnd.obj
 0004:00000ea0       $pdata$?dtor$12@?0??setupUi@Ui_AppMainWndClass@@QEAAXPEAVQMainWindow@@@Z@4HA 0000000140047ea0     AppMainWnd.obj
 0004:00000eac       $pdata$?dtor$10@?0??setupUi@Ui_edit_root@@QEAAXPEAVQWidget@@@Z@4HA 0000000140047eac     ComparePage.obj
 0004:00000eac       $pdata$?dtor$17@?0??setupUi@Ui_AppMainWndClass@@QEAAXPEAVQMainWindow@@@Z@4HA 0000000140047eac     AppMainWnd.obj
 0004:00000eac       $pdata$?dtor$25@?0??setupUi@Ui_AppMainWndClass@@QEAAXPEAVQMainWindow@@@Z@4HA 0000000140047eac     AppMainWnd.obj
 0004:00000eac       $pdata$?dtor$21@?0??setupUi@Ui_AppMainWndClass@@QEAAXPEAVQMainWindow@@@Z@4HA 0000000140047eac     AppMainWnd.obj
 0004:00000eac       $pdata$?dtor$10@?0??setupUi@Ui_AppMainWndClass@@QEAAXPEAVQMainWindow@@@Z@4HA 0000000140047eac     AppMainWnd.obj
 0004:00000eac       $pdata$?dtor$2@?0??setupUi@Ui_edit_root@@QEAAXPEAVQWidget@@@Z@4HA 0000000140047eac     ComparePage.obj
 0004:00000eac       $pdata$?dtor$6@?0??setupUi@Ui_edit_root@@QEAAXPEAVQWidget@@@Z@4HA 0000000140047eac     ComparePage.obj
 0004:00000eac       $pdata$?dtor$5@?0??setupUi@Ui_AppMainWndClass@@QEAAXPEAVQMainWindow@@@Z@4HA 0000000140047eac     AppMainWnd.obj
 0004:00000294       $pdata$?deallocate@?$allocator@U?$_Tree_node@U?$pair@$$CBHPEAVMyPanelBase@@@std@@PEAX@std@@@std@@QEAAXQEAU?$_Tree_node@U?$pair@$$CBHPEAVMyPanelBase@@@std@@PEAX@2@_K@Z 0000000140047294     AppMainWnd.obj
 0004:000001d4       $pdata$?_Buyheadnode@?$_Tree_comp_alloc@V?$_Tmap_traits@HPEAVMyPanelBase@@U?$less@H@std@@V?$allocator@U?$pair@$$CBHPEAVMyPanelBase@@@std@@@3@$0A@@std@@@std@@QEAAPEAU?$_Tree_node@U?$pair@$$CBHPEAVMyPanelBase@@@std@@PEAX@2@XZ 00000001400471d4     AppMainWnd.obj
 0004:00000e34       $pdata$?catch$0@?0??_Buyheadnode@?$_Tree_comp_alloc@V?$_Tmap_traits@HPEAVMyPanelBase@@U?$less@H@std@@V?$allocator@U?$pair@$$CBHPEAVMyPanelBase@@@std@@@3@$0A@@std@@@std@@QEAAPEAU?$_Tree_node@U?$pair@$$CBHPEAVMyPanelBase@@@std@@PEAX@2@XZ@4HA 0000000140047e34     AppMainWnd.obj
 0004:000001e0       $pdata$?_Buynode0@?$_Tree_comp_alloc@V?$_Tmap_traits@HPEAVMyPanelBase@@U?$less@H@std@@V?$allocator@U?$pair@$$CBHPEAVMyPanelBase@@@std@@@3@$0A@@std@@@std@@QEAAPEAU?$_Tree_node@U?$pair@$$CBHPEAVMyPanelBase@@@std@@PEAX@2@XZ 00000001400471e0     AppMainWnd.obj
 0004:00000e40       $pdata$?catch$0@?0??_Buynode0@?$_Tree_comp_alloc@V?$_Tmap_traits@HPEAVMyPanelBase@@U?$less@H@std@@V?$allocator@U?$pair@$$CBHPEAVMyPanelBase@@@std@@@3@$0A@@std@@@std@@QEAAPEAU?$_Tree_node@U?$pair@$$CBHPEAVMyPanelBase@@@std@@PEAX@2@XZ@4HA 0000000140047e40     AppMainWnd.obj
 0004:0000024c       $pdata$?clear@?$_Tree@V?$_Tmap_traits@HPEAVMyPanelBase@@U?$less@H@std@@V?$allocator@U?$pair@$$CBHPEAVMyPanelBase@@@std@@@3@$0A@@std@@@std@@QEAAXXZ 000000014004724c     AppMainWnd.obj
 0004:000001ec       $pdata$?_Erase@?$_Tree@V?$_Tmap_traits@HPEAVMyPanelBase@@U?$less@H@std@@V?$allocator@U?$pair@$$CBHPEAVMyPanelBase@@@std@@@3@$0A@@std@@@std@@IEAAXPEAU?$_Tree_node@U?$pair@$$CBHPEAVMyPanelBase@@@std@@PEAX@2@@Z 00000001400471ec     AppMainWnd.obj
 0004:000000cc       $pdata$??1?$map@HPEAVMyPanelBase@@U?$less@H@std@@V?$allocator@U?$pair@$$CBHPEAVMyPanelBase@@@std@@@3@@std@@QEAA@XZ 00000001400470cc     AppMainWnd.obj
 0004:0000009c       $pdata$??0AppMainWnd@@QEAA@PEAVQWidget@@@Z 000000014004709c     AppMainWnd.obj
 0004:00000df8       $pdata$?dtor$5@?0???0AppMainWnd@@QEAA@PEAVQWidget@@@Z@4HA 0000000140047df8     AppMainWnd.obj
 0004:0000015c       $pdata$?InitUI@AppMainWnd@@QEAAXW4PAGE_TYPE@1@@Z 000000014004715c     AppMainWnd.obj
 0004:00000e28       $pdata$?dtor$0@?0??InitUI@AppMainWnd@@QEAAXW4PAGE_TYPE@1@@Z@4HA 0000000140047e28     AppMainWnd.obj
 0004:00000198       $pdata$?SwitchPage@AppMainWnd@@QEAAXW4PAGE_TYPE@1@@Z 0000000140047198     AppMainWnd.obj
 0004:000001a4       $pdata$0$?SwitchPage@AppMainWnd@@QEAAXW4PAGE_TYPE@1@@Z 00000001400471a4     AppMainWnd.obj
 0004:000001b0       $pdata$1$?SwitchPage@AppMainWnd@@QEAAXW4PAGE_TYPE@1@@Z 00000001400471b0     AppMainWnd.obj
 0004:00000120       $pdata$?ActivePage@AppMainWnd@@QEAAXW4PAGE_TYPE@1@_N@Z 0000000140047120     AppMainWnd.obj
 0004:00000e10       $pdata$?dtor$0@?0??ActivePage@AppMainWnd@@QEAAXW4PAGE_TYPE@1@_N@Z@4HA 0000000140047e10     AppMainWnd.obj
 0004:00000e1c       $pdata$?dtor$1@?0??ActivePage@AppMainWnd@@QEAAXW4PAGE_TYPE@1@_N@Z@4HA 0000000140047e1c     AppMainWnd.obj
 0004:0000018c       $pdata$?ShowTitleBar@AppMainWnd@@QEAAX_N@Z 000000014004718c     AppMainWnd.obj
 0004:00000174       $pdata$?RestoryAppMainWnd@AppMainWnd@@UEAAXXZ 0000000140047174     AppMainWnd.obj
 0004:00000144       $pdata$?DoCmdOpenFiles@AppMainWnd@@QEAAXVQStringList@@@Z 0000000140047144     AppMainWnd.obj
 0004:0000012c       $pdata$?DoAutoFitIn@AppMainWnd@@QEAAXXZ 000000014004712c     AppMainWnd.obj
 0004:00000180       $pdata$?ShowFileInfo@AppMainWnd@@QEAAXXZ 0000000140047180     AppMainWnd.obj
 0004:000001c8       $pdata$?UpdateHomePageWnd@AppMainWnd@@QEAAXPEAVQPoint@@@Z 00000001400471c8     AppMainWnd.obj
 0004:000001bc       $pdata$?UpdateComparePageWnd@AppMainWnd@@QEAAX_N@Z 00000001400471bc     AppMainWnd.obj
 0004:00000150       $pdata$?DoFileConvert@AppMainWnd@@QEAAXXZ 0000000140047150     AppMainWnd.obj
 0004:00000138       $pdata$?DoBatchFileConvert@AppMainWnd@@QEAAXXZ 0000000140047138     AppMainWnd.obj
 0004:00000168       $pdata$?OnFileSelected@AppMainWnd@@AEAAXVQStringList@@@Z 0000000140047168     AppMainWnd.obj
 0004:00000258       $pdata$?closeEvent@AppMainWnd@@MEAAXPEAVQCloseEvent@@@Z 0000000140047258     AppMainWnd.obj
 0004:00000264       $pdata$0$?closeEvent@AppMainWnd@@MEAAXPEAVQCloseEvent@@@Z 0000000140047264     AppMainWnd.obj
 0004:00000270       $pdata$1$?closeEvent@AppMainWnd@@MEAAXPEAVQCloseEvent@@@Z 0000000140047270     AppMainWnd.obj
 0004:0000027c       $pdata$2$?closeEvent@AppMainWnd@@MEAAXPEAVQCloseEvent@@@Z 000000014004727c     AppMainWnd.obj
 0004:00000288       $pdata$3$?closeEvent@AppMainWnd@@MEAAXPEAVQCloseEvent@@@Z 0000000140047288     AppMainWnd.obj
 0004:00000300       $pdata$?resizeEvent@AppMainWnd@@MEAAXPEAVQResizeEvent@@@Z 0000000140047300     AppMainWnd.obj
 0004:000002d0       $pdata$?keyPressEvent@AppMainWnd@@MEAAXPEAVQKeyEvent@@@Z 00000001400472d0     AppMainWnd.obj
 0004:000002b8       $pdata$?dragEnterEvent@AppMainWnd@@MEAAXPEAVQDragEnterEvent@@@Z 00000001400472b8     AppMainWnd.obj
 0004:000002c4       $pdata$?dropEvent@AppMainWnd@@MEAAXPEAVQDropEvent@@@Z 00000001400472c4     AppMainWnd.obj
 0004:00000318       $pdata$?showEvent@AppMainWnd@@MEAAXPEAVQShowEvent@@@Z 0000000140047318     AppMainWnd.obj
 0004:000000f0       $pdata$??_GAppMainWnd@@UEAAPEAXI@Z 00000001400470f0     AppMainWnd.obj
 0004:000000b4       $pdata$??1?$QList@VQUrl@@@@QEAA@XZ 00000001400470b4     AppMainWnd.obj
 0004:000002a0       $pdata$?detach_helper@?$QList@VQUrl@@@@AEAAXH@Z 00000001400472a0     AppMainWnd.obj
 0004:00000e64       $pdata$?catch$0@?0??detach_helper@?$QList@VQUrl@@@@AEAAXH@Z@4HA 0000000140047e64     AppMainWnd.obj
 0004:000002e8       $pdata$?node_copy@?$QList@VQUrl@@@@AEAAXPEAUNode@1@00@Z 00000001400472e8     AppMainWnd.obj
 0004:00000e94       $pdata$?catch$1@?0??node_copy@?$QList@VQUrl@@@@AEAAXPEAUNode@1@00@Z@4HA 0000000140047e94     AppMainWnd.obj
 0004:00000054       $pdata$??$_Buynode@U?$pair@W4PANEL_TYPE@ComparePage@@PEAVMyPanelBase@@@std@@@?$_Tree_comp_alloc@V?$_Tmap_traits@HPEAVMyPanelBase@@U?$less@H@std@@V?$allocator@U?$pair@$$CBHPEAVMyPanelBase@@@std@@@3@$0A@@std@@@std@@QEAAPEAU?$_Tree_node@U?$pair@$$CBHPEAVMyPanelBase@@@std@@PEAX@1@$$QEAU?$pair@W4PANEL_TYPE@ComparePage@@PEAVMyPanelBase@@@1@@Z 0000000140047054     ComparePage.obj
 0004:00000054       $pdata$??$_Buynode@U?$pair@W4PAGE_TYPE@AppMainWnd@@PEAVMyPanelBase@@@std@@@?$_Tree_comp_alloc@V?$_Tmap_traits@HPEAVMyPanelBase@@U?$less@H@std@@V?$allocator@U?$pair@$$CBHPEAVMyPanelBase@@@std@@@3@$0A@@std@@@std@@QEAAPEAU?$_Tree_node@U?$pair@$$CBHPEAVMyPanelBase@@@std@@PEAX@1@$$QEAU?$pair@W4PAGE_TYPE@AppMainWnd@@PEAVMyPanelBase@@@1@@Z 0000000140047054     AppMainWnd.obj
 0004:00000dd4       $pdata$?catch$0@?0???$_Buynode@U?$pair@W4PANEL_TYPE@ComparePage@@PEAVMyPanelBase@@@std@@@?$_Tree_comp_alloc@V?$_Tmap_traits@HPEAVMyPanelBase@@U?$less@H@std@@V?$allocator@U?$pair@$$CBHPEAVMyPanelBase@@@std@@@3@$0A@@std@@@std@@QEAAPEAU?$_Tree_node@U?$pair@$$CBHPEAVMyPanelBase@@@std@@PEAX@1@$$QEAU?$pair@W4PANEL_TYPE@ComparePage@@PEAVMyPanelBase@@@1@@Z@4HA 0000000140047dd4     ComparePage.obj
 0004:00000dd4       $pdata$?catch$0@?0???$_Buynode@U?$pair@W4PAGE_TYPE@AppMainWnd@@PEAVMyPanelBase@@@std@@@?$_Tree_comp_alloc@V?$_Tmap_traits@HPEAVMyPanelBase@@U?$less@H@std@@V?$allocator@U?$pair@$$CBHPEAVMyPanelBase@@@std@@@3@$0A@@std@@@std@@QEAAPEAU?$_Tree_node@U?$pair@$$CBHPEAVMyPanelBase@@@std@@PEAX@1@$$QEAU?$pair@W4PAGE_TYPE@AppMainWnd@@PEAVMyPanelBase@@@1@@Z@4HA 0000000140047dd4     AppMainWnd.obj
 0004:00000084       $pdata$??$_Insert_nohint@AEAU?$pair@$$CBHPEAVMyPanelBase@@@std@@PEAU?$_Tree_node@U?$pair@$$CBHPEAVMyPanelBase@@@std@@PEAX@2@@?$_Tree@V?$_Tmap_traits@HPEAVMyPanelBase@@U?$less@H@std@@V?$allocator@U?$pair@$$CBHPEAVMyPanelBase@@@std@@@3@$0A@@std@@@std@@IEAA?AU?$pair@V?$_Tree_iterator@V?$_Tree_val@U?$_Tree_simple_types@U?$pair@$$CBHPEAVMyPanelBase@@@std@@@std@@@std@@@std@@_N@1@_NAEAU?$pair@$$CBHPEAVMyPanelBase@@@1@PEAU?$_Tree_node@U?$pair@$$CBHPEAVMyPanelBase@@@std@@PEAX@1@@Z 0000000140047084     AppMainWnd.obj
 0004:00000de0       $pdata$?catch$0@?0???$_Insert_nohint@AEAU?$pair@$$CBHPEAVMyPanelBase@@@std@@PEAU?$_Tree_node@U?$pair@$$CBHPEAVMyPanelBase@@@std@@PEAX@2@@?$_Tree@V?$_Tmap_traits@HPEAVMyPanelBase@@U?$less@H@std@@V?$allocator@U?$pair@$$CBHPEAVMyPanelBase@@@std@@@3@$0A@@std@@@std@@IEAA?AU?$pair@V?$_Tree_iterator@V?$_Tree_val@U?$_Tree_simple_types@U?$pair@$$CBHPEAVMyPanelBase@@@std@@@std@@@std@@@std@@_N@1@_NAEAU?$pair@$$CBHPEAVMyPanelBase@@@1@PEAU?$_Tree_node@U?$pair@$$CBHPEAVMyPanelBase@@@std@@PEAX@1@@Z@4HA 0000000140047de0     AppMainWnd.obj
 0004:00000060       $pdata$??$_Insert_at@AEAU?$pair@$$CBHPEAVMyPanelBase@@@std@@PEAU?$_Tree_node@U?$pair@$$CBHPEAVMyPanelBase@@@std@@PEAX@2@@?$_Tree@V?$_Tmap_traits@HPEAVMyPanelBase@@U?$less@H@std@@V?$allocator@U?$pair@$$CBHPEAVMyPanelBase@@@std@@@3@$0A@@std@@@std@@IEAA?AV?$_Tree_iterator@V?$_Tree_val@U?$_Tree_simple_types@U?$pair@$$CBHPEAVMyPanelBase@@@std@@@std@@@std@@@1@_NPEAU?$_Tree_node@U?$pair@$$CBHPEAVMyPanelBase@@@std@@PEAX@1@AEAU?$pair@$$CBHPEAVMyPanelBase@@@1@1@Z 0000000140047060     AppMainWnd.obj
 0004:0000006c       $pdata$1$??$_Insert_at@AEAU?$pair@$$CBHPEAVMyPanelBase@@@std@@PEAU?$_Tree_node@U?$pair@$$CBHPEAVMyPanelBase@@@std@@PEAX@2@@?$_Tree@V?$_Tmap_traits@HPEAVMyPanelBase@@U?$less@H@std@@V?$allocator@U?$pair@$$CBHPEAVMyPanelBase@@@std@@@3@$0A@@std@@@std@@IEAA?AV?$_Tree_iterator@V?$_Tree_val@U?$_Tree_simple_types@U?$pair@$$CBHPEAVMyPanelBase@@@std@@@std@@@std@@@1@_NPEAU?$_Tree_node@U?$pair@$$CBHPEAVMyPanelBase@@@std@@PEAX@1@AEAU?$pair@$$CBHPEAVMyPanelBase@@@1@1@Z 000000014004706c     AppMainWnd.obj
 0004:00000078       $pdata$3$??$_Insert_at@AEAU?$pair@$$CBHPEAVMyPanelBase@@@std@@PEAU?$_Tree_node@U?$pair@$$CBHPEAVMyPanelBase@@@std@@PEAX@2@@?$_Tree@V?$_Tmap_traits@HPEAVMyPanelBase@@U?$less@H@std@@V?$allocator@U?$pair@$$CBHPEAVMyPanelBase@@@std@@@3@$0A@@std@@@std@@IEAA?AV?$_Tree_iterator@V?$_Tree_val@U?$_Tree_simple_types@U?$pair@$$CBHPEAVMyPanelBase@@@std@@@std@@@std@@@1@_NPEAU?$_Tree_node@U?$pair@$$CBHPEAVMyPanelBase@@@std@@PEAX@1@AEAU?$pair@$$CBHPEAVMyPanelBase@@@1@1@Z 0000000140047078     AppMainWnd.obj
 0004:0000033c       $pdata$??_GQPushButton@@UEAAPEAXI@Z 000000014004733c     DlgAbout.obj
 0004:00000348       $pdata$??_GQScrollArea@@UEAAPEAXI@Z 0000000140047348     DlgAbout.obj
 0004:00000354       $pdata$??_GQTextBrowser@@UEAAPEAXI@Z 0000000140047354     DlgAbout.obj
 0004:00000360       $pdata$?setupUi@Ui_Dialog_about@@QEAAXPEAVQDialog@@@Z 0000000140047360     DlgAbout.obj
 0004:00000eb8       $pdata$?dtor$6@?0??setupUi@Ui_Dialog_about@@QEAAXPEAVQDialog@@@Z@4HA 0000000140047eb8     DlgAbout.obj
 0004:00000eb8       $pdata$?dtor$4@?0??setupUi@Ui_Dialog_about@@QEAAXPEAVQDialog@@@Z@4HA 0000000140047eb8     DlgAbout.obj
 0004:00000eb8       $pdata$?dtor$2@?0??setupUi@Ui_Dialog_about@@QEAAXPEAVQDialog@@@Z@4HA 0000000140047eb8     DlgAbout.obj
 0004:00000eb8       $pdata$?dtor$8@?0??setupUi@Ui_Dialog_about@@QEAAXPEAVQDialog@@@Z@4HA 0000000140047eb8     DlgAbout.obj
 0004:00000324       $pdata$??0DlgAbout@@QEAA@PEAVQWidget@@V?$QFlags@W4WindowType@Qt@@@@@Z 0000000140047324     DlgAbout.obj
 0004:00000330       $pdata$??_GDlgAbout@@UEAAPEAXI@Z 0000000140047330     DlgAbout.obj
 0004:00000390       $pdata$??_GQVBoxLayout@@UEAAPEAXI@Z 0000000140047390     DlgHelp.obj
 0004:00000384       $pdata$??_GQLabel@@UEAAPEAXI@Z 0000000140047384     DlgHelp.obj
 0004:0000039c       $pdata$?setupUi@Ui_Dialog_setting@@QEAAXPEAVQDialog@@@Z 000000014004739c     DlgHelp.obj
 0004:00000ec4       $pdata$?dtor$3@?0??setupUi@Ui_maintoolbar_root@@QEAAXPEAVQWidget@@@Z@4HA 0000000140047ec4     MainToolbarPanel.obj
 0004:00000ec4       $pdata$?dtor$18@?0??setupUi@Ui_maintoolbar_root@@QEAAXPEAVQWidget@@@Z@4HA 0000000140047ec4     MainToolbarPanel.obj
 0004:00000ec4       $pdata$?dtor$21@?0??setupUi@Ui_Dialog_setting@@QEAAXPEAVQDialog@@@Z@4HA 0000000140047ec4     DlgHelp.obj
 0004:00000ec4       $pdata$?dtor$8@?0??setupUi@Ui_maintoolbar_root@@QEAAXPEAVQWidget@@@Z@4HA 0000000140047ec4     MainToolbarPanel.obj
 0004:00000ec4       $pdata$?dtor$8@?0??setupUi@Ui_Dialog_setting@@QEAAXPEAVQDialog@@@Z@4HA 0000000140047ec4     DlgHelp.obj
 0004:00000ec4       $pdata$?dtor$3@?0??setupUi@Ui_Dialog_setting@@QEAAXPEAVQDialog@@@Z@4HA 0000000140047ec4     DlgHelp.obj
 0004:00000ec4       $pdata$?dtor$26@?0??setupUi@Ui_Dialog_setting@@QEAAXPEAVQDialog@@@Z@4HA 0000000140047ec4     DlgHelp.obj
 0004:00000ed0       $pdata$?dtor$15@?0??setupUi@Ui_maintoolbar_root@@QEAAXPEAVQWidget@@@Z@4HA 0000000140047ed0     MainToolbarPanel.obj
 0004:00000ed0       $pdata$?dtor$10@?0??setupUi@Ui_maintoolbar_root@@QEAAXPEAVQWidget@@@Z@4HA 0000000140047ed0     MainToolbarPanel.obj
 0004:00000ed0       $pdata$?dtor$38@?0??setupUi@Ui_maintoolbar_root@@QEAAXPEAVQWidget@@@Z@4HA 0000000140047ed0     MainToolbarPanel.obj
 0004:00000ed0       $pdata$?dtor$16@?0??setupUi@Ui_maintoolbar_root@@QEAAXPEAVQWidget@@@Z@4HA 0000000140047ed0     MainToolbarPanel.obj
 0004:00000ed0       $pdata$?dtor$5@?0??setupUi@Ui_maintoolbar_root@@QEAAXPEAVQWidget@@@Z@4HA 0000000140047ed0     MainToolbarPanel.obj
 0004:00000ed0       $pdata$?dtor$20@?0??setupUi@Ui_maintoolbar_root@@QEAAXPEAVQWidget@@@Z@4HA 0000000140047ed0     MainToolbarPanel.obj
 0004:00000ed0       $pdata$?dtor$23@?0??setupUi@Ui_maintoolbar_root@@QEAAXPEAVQWidget@@@Z@4HA 0000000140047ed0     MainToolbarPanel.obj
 0004:00000ed0       $pdata$?dtor$5@?0??setupUi@Ui_Dialog_setting@@QEAAXPEAVQDialog@@@Z@4HA 0000000140047ed0     DlgHelp.obj
 0004:00000ed0       $pdata$?dtor$35@?0??setupUi@Ui_maintoolbar_root@@QEAAXPEAVQWidget@@@Z@4HA 0000000140047ed0     MainToolbarPanel.obj
 0004:00000ed0       $pdata$?dtor$26@?0??setupUi@Ui_maintoolbar_root@@QEAAXPEAVQWidget@@@Z@4HA 0000000140047ed0     MainToolbarPanel.obj
 0004:00000ed0       $pdata$?dtor$10@?0??setupUi@Ui_Dialog_setting@@QEAAXPEAVQDialog@@@Z@4HA 0000000140047ed0     DlgHelp.obj
 0004:00000ed0       $pdata$?dtor$15@?0??setupUi@Ui_Dialog_setting@@QEAAXPEAVQDialog@@@Z@4HA 0000000140047ed0     DlgHelp.obj
 0004:00000ed0       $pdata$?dtor$18@?0??setupUi@Ui_Dialog_setting@@QEAAXPEAVQDialog@@@Z@4HA 0000000140047ed0     DlgHelp.obj
 0004:00000ed0       $pdata$?dtor$29@?0??setupUi@Ui_maintoolbar_root@@QEAAXPEAVQWidget@@@Z@4HA 0000000140047ed0     MainToolbarPanel.obj
 0004:00000ed0       $pdata$?dtor$23@?0??setupUi@Ui_Dialog_setting@@QEAAXPEAVQDialog@@@Z@4HA 0000000140047ed0     DlgHelp.obj
 0004:00000ed0       $pdata$?dtor$32@?0??setupUi@Ui_maintoolbar_root@@QEAAXPEAVQWidget@@@Z@4HA 0000000140047ed0     MainToolbarPanel.obj
 0004:00000ed0       $pdata$?dtor$28@?0??setupUi@Ui_Dialog_setting@@QEAAXPEAVQDialog@@@Z@4HA 0000000140047ed0     DlgHelp.obj
 0004:00000ed0       $pdata$?dtor$32@?0??setupUi@Ui_Dialog_setting@@QEAAXPEAVQDialog@@@Z@4HA 0000000140047ed0     DlgHelp.obj
 0004:0000036c       $pdata$??0DlgHelp@@QEAA@PEAVQWidget@@V?$QFlags@W4WindowType@Qt@@@@@Z 000000014004736c     DlgHelp.obj
 0004:00000378       $pdata$??_GDlgHelp@@UEAAPEAXI@Z 0000000140047378     DlgHelp.obj
 0004:0000042c       $pdata$?setupUi@Ui_edit_root@@QEAAXPEAVQWidget@@@Z 000000014004742c     ComparePage.obj
 0004:000003a8       $pdata$??0ComparePage@@QEAA@PEAVAppMainWnd@@HPEAVQWidget@@@Z 00000001400473a8     ComparePage.obj
 0004:000003d8       $pdata$?Init@ComparePage@@UEAAXXZ 00000001400473d8     ComparePage.obj
 0004:00000edc       $pdata$?dtor$0@?0??Init@CompareViewPanel@@UEAAXXZ@4HA 0000000140047edc     CompareViewPanel.obj
 0004:00000edc       $pdata$?dtor$0@?0??Init@HomePage@@UEAAXXZ@4HA 0000000140047edc     HomePage.obj
 0004:00000edc       $pdata$?dtor$0@?0??Init@ComparePage@@UEAAXXZ@4HA 0000000140047edc     ComparePage.obj
 0004:00000edc       $pdata$?dtor$0@?0??Init@TitleBar@@UEAAXXZ@4HA 0000000140047edc     TitleBar.obj
 0004:00000408       $pdata$?UnInit@ComparePage@@UEAAXXZ 0000000140047408     ComparePage.obj
 0004:00000414       $pdata$0$?UnInit@ComparePage@@UEAAXXZ 0000000140047414     ComparePage.obj
 0004:00000420       $pdata$1$?UnInit@ComparePage@@UEAAXXZ 0000000140047420     ComparePage.obj
 0004:000003f0       $pdata$?Show@ComparePage@@UEAAX_N@Z 00000001400473f0     ComparePage.obj
 0004:000003fc       $pdata$?ShowPanel@ComparePage@@QEAAXW4PANEL_TYPE@1@_N@Z 00000001400473fc     ComparePage.obj
 0004:00000ee8       $pdata$?dtor$0@?0??ShowPanel@ComparePage@@QEAAXW4PANEL_TYPE@1@_N@Z@4HA 0000000140047ee8     ComparePage.obj
 0004:00000ef4       $pdata$?dtor$1@?0??ShowPanel@ComparePage@@QEAAXW4PANEL_TYPE@1@_N@Z@4HA 0000000140047ef4     ComparePage.obj
 0004:000003e4       $pdata$?SetCompareFiles@ComparePage@@QEAAXVQStringList@@_N@Z 00000001400473e4     ComparePage.obj
 0004:000003cc       $pdata$?DoLoadPreFile@ComparePage@@QEAAXXZ 00000001400473cc     ComparePage.obj
 0004:000003c0       $pdata$?DoLoadNextFile@ComparePage@@QEAAXXZ 00000001400473c0     ComparePage.obj
 0004:000003b4       $pdata$??_GComparePage@@UEAAPEAXI@Z 00000001400473b4     ComparePage.obj
 0004:00000438       $pdata$??0FileBrowser@@QEAA@PEAVAppMainWnd@@@Z 0000000140047438     FileBrowser.obj
 0004:00000450       $pdata$?OpenFileDialog@FileBrowser@@QEAAXXZ 0000000140047450     FileBrowser.obj
 0004:00000444       $pdata$??_GFileBrowser@@UEAAPEAXI@Z 0000000140047444     FileBrowser.obj
 0004:0000048c       $pdata$??_GQSpacerItem@@UEAAPEAXI@Z 000000014004748c     HomePage.obj
 0004:00000474       $pdata$??_GQHBoxLayout@@UEAAPEAXI@Z 0000000140047474     HomePage.obj
 0004:00000480       $pdata$??_GQRadioButton@@UEAAPEAXI@Z 0000000140047480     HomePage.obj
 0004:000004e0       $pdata$?setupUi@Ui_home_root@@QEAAXPEAVQWidget@@@Z 00000001400474e0     HomePage.obj
 0004:00000f0c       $pdata$?dtor$22@?0??setupUi@Ui_home_root@@QEAAXPEAVQWidget@@@Z@4HA 0000000140047f0c     HomePage.obj
 0004:00000f0c       $pdata$?dtor$2@?0??setupUi@Ui_compare_root@@QEAAXPEAVQWidget@@@Z@4HA 0000000140047f0c     CompareViewPanel.obj
 0004:00000f0c       $pdata$?dtor$10@?0??setupUi@Ui_compare_root@@QEAAXPEAVQWidget@@@Z@4HA 0000000140047f0c     CompareViewPanel.obj
 0004:00000f0c       $pdata$?dtor$6@?0??setupUi@Ui_compare_root@@QEAAXPEAVQWidget@@@Z@4HA 0000000140047f0c     CompareViewPanel.obj
 0004:00000f0c       $pdata$?dtor$49@?0??setupUi@Ui_home_root@@QEAAXPEAVQWidget@@@Z@4HA 0000000140047f0c     HomePage.obj
 0004:00000f0c       $pdata$?dtor$3@?0??setupUi@Ui_home_root@@QEAAXPEAVQWidget@@@Z@4HA 0000000140047f0c     HomePage.obj
 0004:00000f0c       $pdata$?dtor$36@?0??setupUi@Ui_home_root@@QEAAXPEAVQWidget@@@Z@4HA 0000000140047f0c     HomePage.obj
 0004:00000f0c       $pdata$?dtor$38@?0??setupUi@Ui_home_root@@QEAAXPEAVQWidget@@@Z@4HA 0000000140047f0c     HomePage.obj
 0004:00000f0c       $pdata$?dtor$7@?0??setupUi@Ui_home_root@@QEAAXPEAVQWidget@@@Z@4HA 0000000140047f0c     HomePage.obj
 0004:00000f18       $pdata$?dtor$16@?0??setupUi@Ui_compare_root@@QEAAXPEAVQWidget@@@Z@4HA 0000000140047f18     CompareViewPanel.obj
 0004:00000f18       $pdata$?dtor$40@?0??setupUi@Ui_home_root@@QEAAXPEAVQWidget@@@Z@4HA 0000000140047f18     HomePage.obj
 0004:00000f18       $pdata$?dtor$5@?0??setupUi@Ui_home_root@@QEAAXPEAVQWidget@@@Z@4HA 0000000140047f18     HomePage.obj
 0004:00000f18       $pdata$?dtor$34@?0??setupUi@Ui_home_root@@QEAAXPEAVQWidget@@@Z@4HA 0000000140047f18     HomePage.obj
 0004:00000f18       $pdata$?dtor$31@?0??setupUi@Ui_home_root@@QEAAXPEAVQWidget@@@Z@4HA 0000000140047f18     HomePage.obj
 0004:00000f18       $pdata$?dtor$45@?0??setupUi@Ui_home_root@@QEAAXPEAVQWidget@@@Z@4HA 0000000140047f18     HomePage.obj
 0004:00000f18       $pdata$?dtor$9@?0??setupUi@Ui_home_root@@QEAAXPEAVQWidget@@@Z@4HA 0000000140047f18     HomePage.obj
 0004:00000f18       $pdata$?dtor$27@?0??setupUi@Ui_home_root@@QEAAXPEAVQWidget@@@Z@4HA 0000000140047f18     HomePage.obj
 0004:00000f18       $pdata$?dtor$10@?0??setupUi@Ui_home_root@@QEAAXPEAVQWidget@@@Z@4HA 0000000140047f18     HomePage.obj
 0004:00000f18       $pdata$?dtor$26@?0??setupUi@Ui_home_root@@QEAAXPEAVQWidget@@@Z@4HA 0000000140047f18     HomePage.obj
 0004:00000f18       $pdata$?dtor$25@?0??setupUi@Ui_home_root@@QEAAXPEAVQWidget@@@Z@4HA 0000000140047f18     HomePage.obj
 0004:00000f18       $pdata$?dtor$24@?0??setupUi@Ui_home_root@@QEAAXPEAVQWidget@@@Z@4HA 0000000140047f18     HomePage.obj
 0004:00000f18       $pdata$?dtor$46@?0??setupUi@Ui_home_root@@QEAAXPEAVQWidget@@@Z@4HA 0000000140047f18     HomePage.obj
 0004:00000f18       $pdata$?dtor$15@?0??setupUi@Ui_home_root@@QEAAXPEAVQWidget@@@Z@4HA 0000000140047f18     HomePage.obj
 0004:00000f18       $pdata$?dtor$18@?0??setupUi@Ui_home_root@@QEAAXPEAVQWidget@@@Z@4HA 0000000140047f18     HomePage.obj
 0004:00000f18       $pdata$?dtor$15@?0??setupUi@Ui_compare_root@@QEAAXPEAVQWidget@@@Z@4HA 0000000140047f18     CompareViewPanel.obj
 0004:00000f18       $pdata$?dtor$51@?0??setupUi@Ui_home_root@@QEAAXPEAVQWidget@@@Z@4HA 0000000140047f18     HomePage.obj
 0004:00000f18       $pdata$?dtor$12@?0??setupUi@Ui_compare_root@@QEAAXPEAVQWidget@@@Z@4HA 0000000140047f18     CompareViewPanel.obj
 0004:00000f18       $pdata$?dtor$47@?0??setupUi@Ui_home_root@@QEAAXPEAVQWidget@@@Z@4HA 0000000140047f18     HomePage.obj
 0004:00000f18       $pdata$?dtor$19@?0??setupUi@Ui_home_root@@QEAAXPEAVQWidget@@@Z@4HA 0000000140047f18     HomePage.obj
 0004:00000f18       $pdata$?dtor$8@?0??setupUi@Ui_compare_root@@QEAAXPEAVQWidget@@@Z@4HA 0000000140047f18     CompareViewPanel.obj
 0004:00000f18       $pdata$?dtor$54@?0??setupUi@Ui_home_root@@QEAAXPEAVQWidget@@@Z@4HA 0000000140047f18     HomePage.obj
 0004:00000f18       $pdata$?dtor$28@?0??setupUi@Ui_home_root@@QEAAXPEAVQWidget@@@Z@4HA 0000000140047f18     HomePage.obj
 0004:00000f18       $pdata$?dtor$4@?0??setupUi@Ui_compare_root@@QEAAXPEAVQWidget@@@Z@4HA 0000000140047f18     CompareViewPanel.obj
 0004:000004d4       $pdata$?retranslateUi@Ui_home_root@@QEAAXPEAVQWidget@@@Z 00000001400474d4     HomePage.obj
 0004:0000045c       $pdata$??0HomePage@@QEAA@PEAVAppMainWnd@@HPEAVQWidget@@@Z 000000014004745c     HomePage.obj
 0004:00000498       $pdata$?Init@HomePage@@UEAAXXZ 0000000140047498     HomePage.obj
 0004:000004c8       $pdata$?UnInit@HomePage@@UEAAXXZ 00000001400474c8     HomePage.obj
 0004:000004b0       $pdata$?OnPanelResize@MainToolbarPanel@@MEAAXPEAVQResizeEvent@@@Z 00000001400474b0     MainToolbarPanel.obj
 0004:000004b0       $pdata$?OnPanelResize@HomePage@@UEAAXPEAVQResizeEvent@@@Z 00000001400474b0     HomePage.obj
 0004:000004b0       $pdata$?OnPanelResize@TitleBar@@UEAAXPEAVQResizeEvent@@@Z 00000001400474b0     TitleBar.obj
 0004:000004bc       $pdata$?OnVideoModeToggled@HomePage@@AEAAXXZ 00000001400474bc     HomePage.obj
 0004:000004a4       $pdata$?OnBtnHelp@HomePage@@AEAAX_N@Z 00000001400474a4     HomePage.obj
 0004:00000f00       $pdata$?dtor$1@?0??OnBtnHelp@HomePage@@AEAAX_N@Z@4HA 0000000140047f00     HomePage.obj
 0004:00000468       $pdata$??_GHomePage@@UEAAPEAXI@Z 0000000140047468     HomePage.obj
 0004:000006c0       $pdata$sprintf             00000001400476c0     CompareViewPanel.obj
 0004:000004f8       $pdata$??4?$QList@VQString@@@@QEAAAEAV0@$$QEAV0@@Z 00000001400474f8     CompareViewPanel.obj
 0004:000006a8       $pdata$?clear@?$QList@VQString@@@@QEAAXXZ 00000001400476a8     CompareViewPanel.obj
 0004:0000051c       $pdata$??_GAISFReferenceInter@ARC_AISF@@UEAAPEAXI@Z 000000014004751c     CompareViewPanel.obj
 0004:0000051c       $pdata$??_GIAISFCompareViewCallback@ARC_AISF@@UEAAPEAXI@Z 000000014004751c     CompareViewPanel.obj
 0004:00000510       $pdata$??_GAISFReferenceImp@@UEAAPEAXI@Z 0000000140047510     CompareViewPanel.obj
 0004:000006b4       $pdata$?setupUi@Ui_compare_root@@QEAAXPEAVQWidget@@@Z 00000001400476b4     CompareViewPanel.obj
 0004:000005f4       $pdata$?OnCompareViewDraw@MyCompareViewCallback@@UEAAHPEAUAISFCV_CompareViewDrawParam@ARC_AISF@@@Z 00000001400475f4     CompareViewPanel.obj
 0004:00000600       $pdata$1$?OnCompareViewDraw@MyCompareViewCallback@@UEAAHPEAUAISFCV_CompareViewDrawParam@ARC_AISF@@@Z 0000000140047600     CompareViewPanel.obj
 0004:0000060c       $pdata$2$?OnCompareViewDraw@MyCompareViewCallback@@UEAAHPEAUAISFCV_CompareViewDrawParam@ARC_AISF@@@Z 000000014004760c     CompareViewPanel.obj
 0004:00000558       $pdata$?DoSingleImgViewInit@MyCompareViewCallback@@UEAAHPEAVQWidget@@W4AISFCV_COMPAREVIEW_INDEX@ARC_AISF@@@Z 0000000140047558     CompareViewPanel.obj
 0004:00000564       $pdata$?DoSingleImgViewUnInit@MyCompareViewCallback@@UEAAHPEAVQWidget@@W4AISFCV_COMPAREVIEW_INDEX@ARC_AISF@@@Z 0000000140047564     CompareViewPanel.obj
 0004:00000570       $pdata$0$?DoSingleImgViewUnInit@MyCompareViewCallback@@UEAAHPEAVQWidget@@W4AISFCV_COMPAREVIEW_INDEX@ARC_AISF@@@Z 0000000140047570     CompareViewPanel.obj
 0004:0000057c       $pdata$2$?DoSingleImgViewUnInit@MyCompareViewCallback@@UEAAHPEAVQWidget@@W4AISFCV_COMPAREVIEW_INDEX@ARC_AISF@@@Z 000000014004757c     CompareViewPanel.obj
 0004:00000588       $pdata$3$?DoSingleImgViewUnInit@MyCompareViewCallback@@UEAAHPEAVQWidget@@W4AISFCV_COMPAREVIEW_INDEX@ARC_AISF@@@Z 0000000140047588     CompareViewPanel.obj
 0004:00000594       $pdata$4$?DoSingleImgViewUnInit@MyCompareViewCallback@@UEAAHPEAVQWidget@@W4AISFCV_COMPAREVIEW_INDEX@ARC_AISF@@@Z 0000000140047594     CompareViewPanel.obj
 0004:00000618       $pdata$?Release@MyCompareViewCallback@@UEAAHXZ 0000000140047618     CompareViewPanel.obj
 0004:00000534       $pdata$??_GMyCompareViewCallback@@UEAAPEAXI@Z 0000000140047534     CompareViewPanel.obj
 0004:000004ec       $pdata$??0CompareViewPanel@@QEAA@PEAVAppMainWnd@@HPEAVQWidget@@@Z 00000001400474ec     CompareViewPanel.obj
 0004:000005ac       $pdata$?Init@CompareViewPanel@@UEAAXXZ 00000001400475ac     CompareViewPanel.obj
 0004:00000654       $pdata$?UnInit@CompareViewPanel@@UEAAXXZ 0000000140047654     CompareViewPanel.obj
 0004:0000063c       $pdata$?Show@CompareViewPanel@@UEAAX_N@Z 000000014004763c     CompareViewPanel.obj
 0004:00000630       $pdata$?SetCompareFiles@CompareViewPanel@@QEAAXVQStringList@@_N@Z 0000000140047630     CompareViewPanel.obj
 0004:0000054c       $pdata$?DoInitDrawWidget@CompareViewPanel@@QEAAXPEAVQWidget@@W4AISFCV_COMPAREVIEW_INDEX@ARC_AISF@@@Z 000000014004754c     CompareViewPanel.obj
 0004:00000f24       $pdata$?dtor$0@?0??DoInitDrawWidget@CompareViewPanel@@QEAAXPEAVQWidget@@W4AISFCV_COMPAREVIEW_INDEX@ARC_AISF@@@Z@4HA 0000000140047f24     CompareViewPanel.obj
 0004:00000f30       $pdata$?dtor$4@?0??DoInitDrawWidget@CompareViewPanel@@QEAAXPEAVQWidget@@W4AISFCV_COMPAREVIEW_INDEX@ARC_AISF@@@Z@4HA 0000000140047f30     CompareViewPanel.obj
 0004:00000624       $pdata$?ReleaseCompareView@CompareViewPanel@@AEAAXXZ 0000000140047624     CompareViewPanel.obj
 0004:00000648       $pdata$?ShowCompareView@CompareViewPanel@@AEAAX_N@Z 0000000140047648     CompareViewPanel.obj
 0004:0000069c       $pdata$?UpdateFileSwitchBtnStatus@CompareViewPanel@@AEAAXXZ 000000014004769c     CompareViewPanel.obj
 0004:000005a0       $pdata$?GetFileListbyPath@CompareViewPanel@@AEAAXPEAD@Z 00000001400475a0     CompareViewPanel.obj
 0004:00000540       $pdata$?DoDisplayFilebyIndex@CompareViewPanel@@AEAAXH@Z 0000000140047540     CompareViewPanel.obj
 0004:000005e8       $pdata$?OnBtnPre_clicked@CompareViewPanel@@QEAAX_N@Z 00000001400475e8     CompareViewPanel.obj
 0004:000005dc       $pdata$?OnBtnNext_clicked@CompareViewPanel@@QEAAX_N@Z 00000001400475dc     CompareViewPanel.obj
 0004:000005b8       $pdata$?OnAddRectEnd@CompareViewPanel@@IEAAXH@Z 00000001400475b8     CompareViewPanel.obj
 0004:000005c4       $pdata$0$?OnAddRectEnd@CompareViewPanel@@IEAAXH@Z 00000001400475c4     CompareViewPanel.obj
 0004:000005d0       $pdata$1$?OnAddRectEnd@CompareViewPanel@@IEAAXH@Z 00000001400475d0     CompareViewPanel.obj
 0004:00000660       $pdata$?UpdateDrawViewByViewIndex@CompareViewPanel@@AEAAXH@Z 0000000140047660     CompareViewPanel.obj
 0004:0000066c       $pdata$0$?UpdateDrawViewByViewIndex@CompareViewPanel@@AEAAXH@Z 000000014004766c     CompareViewPanel.obj
 0004:00000678       $pdata$1$?UpdateDrawViewByViewIndex@CompareViewPanel@@AEAAXH@Z 0000000140047678     CompareViewPanel.obj
 0004:00000684       $pdata$2$?UpdateDrawViewByViewIndex@CompareViewPanel@@AEAAXH@Z 0000000140047684     CompareViewPanel.obj
 0004:00000690       $pdata$3$?UpdateDrawViewByViewIndex@CompareViewPanel@@AEAAXH@Z 0000000140047690     CompareViewPanel.obj
 0004:00000504       $pdata$??_G?$MyAutoPtr@VAISFCompareView@ARC_AISF@@@@UEAAPEAXI@Z 0000000140047504     CompareViewPanel.obj
 0004:00000528       $pdata$??_GCompareViewPanel@@UEAAPEAXI@Z 0000000140047528     CompareViewPanel.obj
 0004:000006fc       $pdata$?GetLastInputPath@IniSetting@@SA?AVQString@@PEBD@Z 00000001400476fc     IniSetting.obj
 0004:000006f0       $pdata$?GetLastFilterType@IniSetting@@SAHPEBD@Z 00000001400476f0     IniSetting.obj
 0004:000006e4       $pdata$?GetImageExtFilter@IniSetting@@SA?AVQString@@W4SETTING_TYPE@1@@Z 00000001400476e4     IniSetting.obj
 0004:00000f60       $pdata$?dtor$9@?0??GetImageExtFilter@IniSetting@@SA?AVQString@@W4SETTING_TYPE@1@@Z@4HA 0000000140047f60     IniSetting.obj
 0004:00000f60       $pdata$?dtor$9@?0??GetVideoExtFilter@IniSetting@@SA?AVQString@@W4SETTING_TYPE@1@@Z@4HA 0000000140047f60     IniSetting.obj
 0004:00000f6c       $pdata$?dtor$10@?0??GetImageExtFilter@IniSetting@@SA?AVQString@@W4SETTING_TYPE@1@@Z@4HA 0000000140047f6c     IniSetting.obj
 0004:00000f6c       $pdata$?dtor$10@?0??GetVideoExtFilter@IniSetting@@SA?AVQString@@W4SETTING_TYPE@1@@Z@4HA 0000000140047f6c     IniSetting.obj
 0004:00000714       $pdata$?GetVideoExtFilter@IniSetting@@SA?AVQString@@W4SETTING_TYPE@1@@Z 0000000140047714     IniSetting.obj
 0004:000006cc       $pdata$?GetAppName@IniSetting@@SA?AVQString@@W4SETTING_TYPE@1@@Z 00000001400476cc     IniSetting.obj
 0004:00000720       $pdata$?IfShowDrawPanel@IniSetting@@SAHW4SETTING_TYPE@1@@Z 0000000140047720     IniSetting.obj
 0004:00000708       $pdata$?GetUserConfigFile@IniSetting@@CA?AVQString@@PEBD@Z 0000000140047708     IniSetting.obj
 0004:00000f78       $pdata$?dtor$1@?0??GetUserConfigFile@IniSetting@@CA?AVQString@@PEBD@Z@4HA 0000000140047f78     IniSetting.obj
 0004:00000f84       $pdata$?dtor$6@?0??GetUserConfigFile@IniSetting@@CA?AVQString@@PEBD@Z@4HA 0000000140047f84     IniSetting.obj
 0004:00000f90       $pdata$?dtor$8@?0??GetUserConfigFile@IniSetting@@CA?AVQString@@PEBD@Z@4HA 0000000140047f90     IniSetting.obj
 0004:00000f9c       $pdata$?dtor$10@?0??GetUserConfigFile@IniSetting@@CA?AVQString@@PEBD@Z@4HA 0000000140047f9c     IniSetting.obj
 0004:00000fa8       $pdata$?dtor$12@?0??GetUserConfigFile@IniSetting@@CA?AVQString@@PEBD@Z@4HA 0000000140047fa8     IniSetting.obj
 0004:000006d8       $pdata$?GetAppSetFile@IniSetting@@CA?AVQString@@W4SETTING_TYPE@1@@Z 00000001400476d8     IniSetting.obj
 0004:00000f3c       $pdata$?dtor$1@?0??GetAppSetFile@IniSetting@@CA?AVQString@@W4SETTING_TYPE@1@@Z@4HA 0000000140047f3c     IniSetting.obj
 0004:00000f48       $pdata$?dtor$4@?0??GetAppSetFile@IniSetting@@CA?AVQString@@W4SETTING_TYPE@1@@Z@4HA 0000000140047f48     IniSetting.obj
 0004:00000f54       $pdata$?dtor$6@?0??GetAppSetFile@IniSetting@@CA?AVQString@@W4SETTING_TYPE@1@@Z@4HA 0000000140047f54     IniSetting.obj
 0004:00000744       $pdata$??_GQCheckBox@@UEAAPEAXI@Z 0000000140047744     MainToolbarPanel.obj
 0004:000007bc       $pdata$?setupUi@Ui_maintoolbar_root@@QEAAXPEAVQWidget@@@Z 00000001400477bc     MainToolbarPanel.obj
 0004:000007b0       $pdata$?retranslateUi@Ui_maintoolbar_root@@QEAAXPEAVQWidget@@@Z 00000001400477b0     MainToolbarPanel.obj
 0004:0000072c       $pdata$??0MainToolbarPanel@@QEAA@PEAVAppMainWnd@@HPEAVQWidget@@@Z 000000014004772c     MainToolbarPanel.obj
 0004:00000750       $pdata$?Init@MainToolbarPanel@@UEAAXXZ 0000000140047750     MainToolbarPanel.obj
 0004:00000fb4       $pdata$?dtor$0@?0??Init@MainToolbarPanel@@UEAAXXZ@4HA 0000000140047fb4     MainToolbarPanel.obj
 0004:000007a4       $pdata$?OnPanelMouseDoubleClick@MainToolbarPanel@@MEAAXPEAVQMouseEvent@@@Z 00000001400477a4     MainToolbarPanel.obj
 0004:0000075c       $pdata$?OnChkFitIn@MainToolbarPanel@@QEAAX_N@Z 000000014004775c     MainToolbarPanel.obj
 0004:00000768       $pdata$0$?OnChkFitIn@MainToolbarPanel@@QEAAX_N@Z 0000000140047768     MainToolbarPanel.obj
 0004:00000774       $pdata$1$?OnChkFitIn@MainToolbarPanel@@QEAAX_N@Z 0000000140047774     MainToolbarPanel.obj
 0004:00000780       $pdata$?OnChkShowFileInfo@MainToolbarPanel@@QEAAX_N@Z 0000000140047780     MainToolbarPanel.obj
 0004:0000078c       $pdata$0$?OnChkShowFileInfo@MainToolbarPanel@@QEAAX_N@Z 000000014004778c     MainToolbarPanel.obj
 0004:00000798       $pdata$1$?OnChkShowFileInfo@MainToolbarPanel@@QEAAX_N@Z 0000000140047798     MainToolbarPanel.obj
 0004:00000738       $pdata$??_GMainToolbarPanel@@UEAAPEAXI@Z 0000000140047738     MainToolbarPanel.obj
 0004:000007c8       $pdata$?UnInit@MenuManager@@QEAAXXZ 00000001400477c8     MenuManager.obj
 0004:00000000       $pdata$??__EstrQssMenu@@YAXXZ 0000000140047000     MenuManager.obj
 0004:000007d4       $pdata$??0MyPanelBase@@QEAA@PEAVAppMainWnd@@HPEAVQWidget@@@Z 00000001400477d4     MyPanelBase.obj
 0004:000007ec       $pdata$?Init@MyPanelBase@@UEAAXXZ 00000001400477ec     MyPanelBase.obj
 0004:000007f8       $pdata$0$?Init@MyPanelBase@@UEAAXXZ 00000001400477f8     MyPanelBase.obj
 0004:00000804       $pdata$1$?Init@MyPanelBase@@UEAAXXZ 0000000140047804     MyPanelBase.obj
 0004:00000810       $pdata$?Show@MyPanelBase@@UEAAX_N@Z 0000000140047810     MyPanelBase.obj
 0004:000007e0       $pdata$??_GMyPanelBase@@UEAAPEAXI@Z 00000001400477e0     MyPanelBase.obj
 0004:0000081c       $pdata$??0MyWidget@@QEAA@PEAVQWidget@@V?$QFlags@W4WindowType@Qt@@@@@Z 000000014004781c     MyWidget.obj
 0004:0000087c       $pdata$?resizeEvent@MyWidget@@MEAAXPEAVQResizeEvent@@@Z 000000014004787c     MyWidget.obj
 0004:00000834       $pdata$?keyPressEvent@MyWidget@@MEAAXPEAVQKeyEvent@@@Z 0000000140047834     MyWidget.obj
 0004:00000840       $pdata$?keyReleaseEvent@MyWidget@@MEAAXPEAVQKeyEvent@@@Z 0000000140047840     MyWidget.obj
 0004:00000864       $pdata$?mousePressEvent@MyWidget@@MEAAXPEAVQMouseEvent@@@Z 0000000140047864     MyWidget.obj
 0004:00000858       $pdata$?mouseMoveEvent@MyWidget@@MEAAXPEAVQMouseEvent@@@Z 0000000140047858     MyWidget.obj
 0004:00000870       $pdata$?mouseReleaseEvent@MyWidget@@MEAAXPEAVQMouseEvent@@@Z 0000000140047870     MyWidget.obj
 0004:0000084c       $pdata$?mouseDoubleClickEvent@MyWidget@@MEAAXPEAVQMouseEvent@@@Z 000000014004784c     MyWidget.obj
 0004:00000888       $pdata$?wheelEvent@MyWidget@@MEAAXPEAVQWheelEvent@@@Z 0000000140047888     MyWidget.obj
 0004:00000828       $pdata$??_GMyWidget@@UEAAPEAXI@Z 0000000140047828     MyWidget.obj
 0004:00000894       $pdata$?SetWidgetBackColor@QTUICommon@@SAXPEAVQWidget@@AEBVQColor@@@Z 0000000140047894     QTUICommon.obj
 0004:000008a0       $pdata$??0MyDrawWidget@@QEAA@HPEAVQWidget@@V?$QFlags@W4WindowType@Qt@@@@@Z 00000001400478a0     MyDrawWidget.obj
 0004:000008b8       $pdata$?SetCurrentImgRect@MyDrawWidget@@QEAAXVQRect@@@Z 00000001400478b8     MyDrawWidget.obj
 0004:000008c4       $pdata$?SetUpdateViewRect@MyDrawWidget@@QEAAXVQRect@@@Z 00000001400478c4     MyDrawWidget.obj
 0004:000008f4       $pdata$?paintEvent@MyDrawWidget@@MEAAXPEAVQPaintEvent@@@Z 00000001400478f4     MyDrawWidget.obj
 0004:00000900       $pdata$?resizeEvent@MyDrawWidget@@MEAAXPEAVQResizeEvent@@@Z 0000000140047900     MyDrawWidget.obj
 0004:000008dc       $pdata$?mousePressEvent@MyDrawWidget@@MEAAXPEAVQMouseEvent@@@Z 00000001400478dc     MyDrawWidget.obj
 0004:000008d0       $pdata$?mouseMoveEvent@MyDrawWidget@@MEAAXPEAVQMouseEvent@@@Z 00000001400478d0     MyDrawWidget.obj
 0004:000008e8       $pdata$?mouseReleaseEvent@MyDrawWidget@@MEAAXPEAVQMouseEvent@@@Z 00000001400478e8     MyDrawWidget.obj
 0004:000008ac       $pdata$??_GMyDrawWidget@@UEAAPEAXI@Z 00000001400478ac     MyDrawWidget.obj
 0004:000009c0       $pdata$?setupUi@Ui_titlebar_root@@QEAAXPEAVQWidget@@@Z 00000001400479c0     TitleBar.obj
 0004:00000fcc       $pdata$?dtor$3@?0??setupUi@Ui_titlebar_root@@QEAAXPEAVQWidget@@@Z@4HA 0000000140047fcc     TitleBar.obj
 0004:00000fcc       $pdata$?dtor$14@?0??setupUi@Ui_titlebar_root@@QEAAXPEAVQWidget@@@Z@4HA 0000000140047fcc     TitleBar.obj
 0004:00000fd8       $pdata$?dtor$11@?0??setupUi@Ui_titlebar_root@@QEAAXPEAVQWidget@@@Z@4HA 0000000140047fd8     TitleBar.obj
 0004:00000fd8       $pdata$?dtor$19@?0??setupUi@Ui_titlebar_root@@QEAAXPEAVQWidget@@@Z@4HA 0000000140047fd8     TitleBar.obj
 0004:00000fd8       $pdata$?dtor$16@?0??setupUi@Ui_titlebar_root@@QEAAXPEAVQWidget@@@Z@4HA 0000000140047fd8     TitleBar.obj
 0004:00000fd8       $pdata$?dtor$6@?0??setupUi@Ui_titlebar_root@@QEAAXPEAVQWidget@@@Z@4HA 0000000140047fd8     TitleBar.obj
 0004:00000fd8       $pdata$?dtor$25@?0??setupUi@Ui_titlebar_root@@QEAAXPEAVQWidget@@@Z@4HA 0000000140047fd8     TitleBar.obj
 0004:00000fd8       $pdata$?dtor$22@?0??setupUi@Ui_titlebar_root@@QEAAXPEAVQWidget@@@Z@4HA 0000000140047fd8     TitleBar.obj
 0004:00000fd8       $pdata$?dtor$12@?0??setupUi@Ui_titlebar_root@@QEAAXPEAVQWidget@@@Z@4HA 0000000140047fd8     TitleBar.obj
 0004:00000fd8       $pdata$?dtor$5@?0??setupUi@Ui_titlebar_root@@QEAAXPEAVQWidget@@@Z@4HA 0000000140047fd8     TitleBar.obj
 0004:000009b4       $pdata$?retranslateUi@Ui_titlebar_root@@QEAAXPEAVQWidget@@@Z 00000001400479b4     TitleBar.obj
 0004:0000090c       $pdata$??0TitleBar@@QEAA@PEAVAppMainWnd@@HPEAVQWidget@@@Z 000000014004790c     TitleBar.obj
 0004:00000924       $pdata$?Init@TitleBar@@UEAAXXZ 0000000140047924     TitleBar.obj
 0004:0000099c       $pdata$?UnInit@TitleBar@@UEAAXXZ 000000014004799c     TitleBar.obj
 0004:00000990       $pdata$?Show@TitleBar@@UEAAX_N@Z 0000000140047990     TitleBar.obj
 0004:0000096c       $pdata$?OnPanelMousePress@TitleBar@@UEAAXPEAVQMouseEvent@@@Z 000000014004796c     TitleBar.obj
 0004:00000978       $pdata$0$?OnPanelMousePress@TitleBar@@UEAAXPEAVQMouseEvent@@@Z 0000000140047978     TitleBar.obj
 0004:00000984       $pdata$1$?OnPanelMousePress@TitleBar@@UEAAXPEAVQMouseEvent@@@Z 0000000140047984     TitleBar.obj
 0004:00000960       $pdata$?OnPanelMouseMove@TitleBar@@UEAAXPEAVQMouseEvent@@@Z 0000000140047960     TitleBar.obj
 0004:00000954       $pdata$?OnPanelMouseDoubleClick@TitleBar@@UEAAXPEAVQMouseEvent@@@Z 0000000140047954     TitleBar.obj
 0004:000009a8       $pdata$?UpdateTitleBar@TitleBar@@QEAAXXZ 00000001400479a8     TitleBar.obj
 0004:0000093c       $pdata$?OnMaxWndClicked@TitleBar@@AEAAX_N@Z 000000014004793c     TitleBar.obj
 0004:00000948       $pdata$?OnMinWndClicked@TitleBar@@AEAAX_N@Z 0000000140047948     TitleBar.obj
 0004:00000930       $pdata$?OnAboutClicked@TitleBar@@AEAAX_N@Z 0000000140047930     TitleBar.obj
 0004:00000fc0       $pdata$?dtor$0@?0??OnAboutClicked@TitleBar@@AEAAX_N@Z@4HA 0000000140047fc0     TitleBar.obj
 0004:00000918       $pdata$??_GTitleBar@@UEAAPEAXI@Z 0000000140047918     TitleBar.obj
 0004:00000a20       $pdata$?detach_helper@?$QList@VQString@@@@AEAAXH@Z 0000000140047a20     main.obj
 0004:00000fe4       $pdata$?catch$0@?0??detach_helper@?$QList@VQString@@@@AEAAXH@Z@4HA 0000000140047fe4     main.obj
 0004:000009cc       $pdata$?ExceptionFilter@CrashDump@@SAJPEAU_EXCEPTION_POINTERS@@@Z 00000001400479cc     main.obj
 0004:000009d8       $pdata$1$?ExceptionFilter@CrashDump@@SAJPEAU_EXCEPTION_POINTERS@@@Z 00000001400479d8     main.obj
 0004:000009e4       $pdata$2$?ExceptionFilter@CrashDump@@SAJPEAU_EXCEPTION_POINTERS@@@Z 00000001400479e4     main.obj
 0004:000009f0       $pdata$4$?ExceptionFilter@CrashDump@@SAJPEAU_EXCEPTION_POINTERS@@@Z 00000001400479f0     main.obj
 0004:000009fc       $pdata$5$?ExceptionFilter@CrashDump@@SAJPEAU_EXCEPTION_POINTERS@@@Z 00000001400479fc     main.obj
 0004:00000a08       $pdata$6$?ExceptionFilter@CrashDump@@SAJPEAU_EXCEPTION_POINTERS@@@Z 0000000140047a08     main.obj
 0004:00000a14       $pdata$7$?ExceptionFilter@CrashDump@@SAJPEAU_EXCEPTION_POINTERS@@@Z 0000000140047a14     main.obj
 0004:00000a2c       $pdata$main                0000000140047a2c     main.obj
 0004:00000ff0       $pdata$main$dtor$3         0000000140047ff0     main.obj
 0004:00000ffc       $pdata$main$dtor$5         0000000140047ffc     main.obj
 0004:00001008       $pdata$main$dtor$9         0000000140048008     main.obj
 0004:0000000c       $pdata$??__Edummy@?A0x7ab48115@@YAXXZ 000000014004700c     qrc_appmainwnd.obj
 0004:0000102c       $pdata$??__Fdummy@?A0x7ab48115@@YAXXZ 000000014004802c     qrc_appmainwnd.obj
 0004:00000a38       $pdata$?qt_metacall@MainToolbarPanel@@UEAAHW4Call@QMetaObject@@HPEAPEAX@Z 0000000140047a38     moc_MainToolbarPanel.obj
 0004:00000a50       $pdata$?qt_metacall@MyDrawWidget@@UEAAHW4Call@QMetaObject@@HPEAPEAX@Z 0000000140047a50     moc_MyDrawWidget.obj
 0004:00000a5c       $pdata$?qt_static_metacall@MyDrawWidget@@CAXPEAVQObject@@W4Call@QMetaObject@@HPEAPEAX@Z 0000000140047a5c     moc_MyDrawWidget.obj
 0004:00000a44       $pdata$?AddRectEnd@MyDrawWidget@@QEAAXH@Z 0000000140047a44     moc_MyDrawWidget.obj
 0004:00000a68       $pdata$?qt_metacall@AppMainWnd@@UEAAHW4Call@QMetaObject@@HPEAPEAX@Z 0000000140047a68     moc_AppMainWnd.obj
 0004:00000a74       $pdata$?qt_static_metacall@AppMainWnd@@CAXPEAVQObject@@W4Call@QMetaObject@@HPEAPEAX@Z 0000000140047a74     moc_AppMainWnd.obj
 0004:00000a80       $pdata$?qt_metacall@DlgHelp@@UEAAHW4Call@QMetaObject@@HPEAPEAX@Z 0000000140047a80     moc_DlgHelp.obj
 0004:00000a8c       $pdata$?qt_metacall@CompareViewPanel@@UEAAHW4Call@QMetaObject@@HPEAPEAX@Z 0000000140047a8c     moc_CompareViewPanel.obj
 0004:00000ad4       $pdata$?qt_static_metacall@MyLabel@@CAXPEAVQObject@@W4Call@QMetaObject@@HPEAPEAX@Z 0000000140047ad4     moc_MyLabel.obj
 0004:00000ac8       $pdata$?onResize@MyLabel@@QEAAXPEAVQResizeEvent@@@Z 0000000140047ac8     moc_MyLabel.obj
 0004:00000ab0       $pdata$?onMousePressEvent@MyLabel@@QEAAXPEAVQMouseEvent@@@Z 0000000140047ab0     moc_MyLabel.obj
 0004:00000aa4       $pdata$?onMouseMoveEvent@MyLabel@@QEAAXPEAVQMouseEvent@@@Z 0000000140047aa4     moc_MyLabel.obj
 0004:00000abc       $pdata$?onMouseReleaseEvent@MyLabel@@QEAAXPEAVQMouseEvent@@@Z 0000000140047abc     moc_MyLabel.obj
 0004:00000a98       $pdata$?onMouseDoubleClickEvent@MyLabel@@QEAAXPEAVQMouseEvent@@@Z 0000000140047a98     moc_MyLabel.obj
 0004:00000ae0       $pdata$?qt_metacall@MyPanelBase@@UEAAHW4Call@QMetaObject@@HPEAPEAX@Z 0000000140047ae0     moc_MyPanelBase.obj
 0004:00000b4c       $pdata$?qt_metacall@MyWidget@@UEAAHW4Call@QMetaObject@@HPEAPEAX@Z 0000000140047b4c     moc_MyWidget.obj
 0004:00000b40       $pdata$?onResize@MyWidget@@QEAAXPEAVQResizeEvent@@@Z 0000000140047b40     moc_MyWidget.obj
 0004:00000b1c       $pdata$?onMousePressEvent@MyWidget@@QEAAXPEAVQMouseEvent@@@Z 0000000140047b1c     moc_MyWidget.obj
 0004:00000b10       $pdata$?onMouseMoveEvent@MyWidget@@QEAAXPEAVQMouseEvent@@@Z 0000000140047b10     moc_MyWidget.obj
 0004:00000b28       $pdata$?onMouseReleaseEvent@MyWidget@@QEAAXPEAVQMouseEvent@@@Z 0000000140047b28     moc_MyWidget.obj
 0004:00000b04       $pdata$?onMouseDoubleClickEvent@MyWidget@@QEAAXPEAVQMouseEvent@@@Z 0000000140047b04     moc_MyWidget.obj
 0004:00000b34       $pdata$?onMouseWheelEvent@MyWidget@@QEAAXPEAVQWheelEvent@@@Z 0000000140047b34     moc_MyWidget.obj
 0004:00000aec       $pdata$?onKeyPressEvent@MyWidget@@QEAAXPEAVQKeyEvent@@@Z 0000000140047aec     moc_MyWidget.obj
 0004:00000af8       $pdata$?onKeyReleaseEvent@MyWidget@@QEAAXPEAVQKeyEvent@@@Z 0000000140047af8     moc_MyWidget.obj
 0004:00000b64       $pdata$?qt_metacall@FileBrowser@@UEAAHW4Call@QMetaObject@@HPEAPEAX@Z 0000000140047b64     moc_FileBrowser.obj
 0004:00000b70       $pdata$?qt_static_metacall@FileBrowser@@CAXPEAVQObject@@W4Call@QMetaObject@@HPEAPEAX@Z 0000000140047b70     moc_FileBrowser.obj
 0004:00000b58       $pdata$?FileSelected@FileBrowser@@QEAAXVQStringList@@@Z 0000000140047b58     moc_FileBrowser.obj
 0004:00000b7c       $pdata$?qt_metacall@HomePage@@UEAAHW4Call@QMetaObject@@HPEAPEAX@Z 0000000140047b7c     moc_HomePage.obj
 0004:00000b94       $pdata$?qt_metacall@TitleBar@@UEAAHW4Call@QMetaObject@@HPEAPEAX@Z 0000000140047b94     moc_TitleBar.obj
 0004:00000b88       $pdata$?MaxWndClickedEvent@TitleBar@@QEAAX_N@Z 0000000140047b88     moc_TitleBar.obj
 0004:00000ba0       $pdata$??2@YAPEAX_K@Z      0000000140047ba0     MSVCRT:new_scalar.obj
 0004:00000bac       $pdata$__GSHandlerCheck_EH 0000000140047bac     MSVCRT:gshandlereh.obj
 0004:00000bc4       $pdata$??_Gtype_info@@UEAAPEAXI@Z 0000000140047bc4     MSVCRT:std_type_info_static.obj
 0004:00000bf4       $pdata$_Init_thread_header 0000000140047bf4     MSVCRT:thread_safe_statics.obj
 0004:00000be8       $pdata$_Init_thread_footer 0000000140047be8     MSVCRT:thread_safe_statics.obj
 0004:00000c0c       $pdata$_Init_thread_wait   0000000140047c0c     MSVCRT:thread_safe_statics.obj
 0004:00000c00       $pdata$_Init_thread_notify 0000000140047c00     MSVCRT:thread_safe_statics.obj
 0004:00000bdc       $pdata$?__scrt_uninitialize_thread_safe_statics@@YAXXZ 0000000140047bdc     MSVCRT:thread_safe_statics.obj
 0004:00000bd0       $pdata$?__scrt_initialize_thread_safe_statics@@YAHXZ 0000000140047bd0     MSVCRT:thread_safe_statics.obj
 0004:00000c24       $pdata$__GSHandlerCheckCommon 0000000140047c24     MSVCRT:gshandler.obj
 0004:00000c18       $pdata$__GSHandlerCheck    0000000140047c18     MSVCRT:gshandler.obj
 0004:00000c84       $pdata$atexit              0000000140047c84     MSVCRT:utility.obj
 0004:00000c78       $pdata$_onexit             0000000140047c78     MSVCRT:utility.obj
 0004:00000c54       $pdata$__scrt_is_nonwritable_in_current_image 0000000140047c54     MSVCRT:utility.obj
 0004:00001014       $pdata$__scrt_is_nonwritable_in_current_image$filt$0 0000000140048014     MSVCRT:utility.obj
 0004:00000c30       $pdata$__scrt_acquire_startup_lock 0000000140047c30     MSVCRT:utility.obj
 0004:00000c60       $pdata$__scrt_release_startup_lock 0000000140047c60     MSVCRT:utility.obj
 0004:00000c3c       $pdata$__scrt_initialize_crt 0000000140047c3c     MSVCRT:utility.obj
 0004:00000c6c       $pdata$__scrt_uninitialize_crt 0000000140047c6c     MSVCRT:utility.obj
 0004:00000c48       $pdata$__scrt_initialize_onexit_tables 0000000140047c48     MSVCRT:utility.obj
 0004:00000c90       $pdata$?pre_c_initialization@@YAHXZ 0000000140047c90     MSVCRT:exe_winmain.obj
 0004:00000c9c       $pdata$?post_pgo_initialization@@YAHXZ 0000000140047c9c     MSVCRT:exe_winmain.obj
 0004:00000ca8       $pdata$?pre_cpp_initialization@@YAXXZ 0000000140047ca8     MSVCRT:exe_winmain.obj
 0004:00000cb4       $pdata$?__scrt_common_main_seh@@YAHXZ 0000000140047cb4     MSVCRT:exe_winmain.obj
 0004:00001020       $pdata$?filt$0@?0??__scrt_common_main_seh@@YAHXZ@4HA 0000000140048020     MSVCRT:exe_winmain.obj
 0004:00000cc0       $pdata$WinMainCRTStartup   0000000140047cc0     MSVCRT:exe_winmain.obj
 0004:00000ce4       $pdata$??0exception@std@@QEAA@AEBV01@@Z 0000000140047ce4     MSVCRT:throw_bad_alloc.obj
 0004:00000cf0       $pdata$??_Gbad_alloc@std@@UEAAPEAXI@Z 0000000140047cf0     MSVCRT:throw_bad_alloc.obj
 0004:00000cf0       $pdata$??_Gexception@std@@UEAAPEAXI@Z 0000000140047cf0     MSVCRT:throw_bad_alloc.obj
 0004:00000cf0       $pdata$??_Gbad_array_new_length@std@@UEAAPEAXI@Z 0000000140047cf0     MSVCRT:throw_bad_alloc.obj
 0004:00000ccc       $pdata$??0bad_alloc@std@@QEAA@AEBV01@@Z 0000000140047ccc     MSVCRT:throw_bad_alloc.obj
 0004:00000cd8       $pdata$??0bad_array_new_length@std@@QEAA@AEBV01@@Z 0000000140047cd8     MSVCRT:throw_bad_alloc.obj
 0004:00000cfc       $pdata$?__scrt_throw_std_bad_alloc@@YAXXZ 0000000140047cfc     MSVCRT:throw_bad_alloc.obj
 0004:00000d08       $pdata$?__scrt_throw_std_bad_array_new_length@@YAXXZ 0000000140047d08     MSVCRT:throw_bad_alloc.obj
 0004:00000d20       $pdata$__report_gsfailure  0000000140047d20     MSVCRT:gs_report.obj
 0004:00000d2c       $pdata$capture_previous_context 0000000140047d2c     MSVCRT:gs_report.obj
 0004:00000d14       $pdata$__raise_securityfailure 0000000140047d14     MSVCRT:gs_report.obj
 0004:00000d44       $pdata$__scrt_get_show_window_mode 0000000140047d44     MSVCRT:utility_desktop.obj
 0004:00000d50       $pdata$__scrt_is_managed_app 0000000140047d50     MSVCRT:utility_desktop.obj
 0004:00000d38       $pdata$__scrt_fastfail     0000000140047d38     MSVCRT:utility_desktop.obj
 0004:00000d5c       $pdata$__scrt_unhandled_exception_filter 0000000140047d5c     MSVCRT:utility_desktop.obj
 0004:00000d68       $pdata$__isa_available_init 0000000140047d68     MSVCRT:cpu_disp.obj
 0004:00000d74       $pdata$__security_init_cookie 0000000140047d74     MSVCRT:gs_support.obj
 0004:00000d80       $pdata$__scrt_initialize_default_local_stdio_options 0000000140047d80     MSVCRT:default_local_stdio_options.obj
 0004:00000d8c       $pdata$_RTC_Initialize     0000000140047d8c     MSVCRT:initsect.obj
 0004:00000d98       $pdata$_RTC_Terminate      0000000140047d98     MSVCRT:initsect.obj
 0004:00000da4       $pdata$WinMain             0000000140047da4     qtmain:qtmain_win.obj
 0004:00000db0       $pdata$4$WinMain           0000000140047db0     qtmain:qtmain_win.obj
 0004:00000dbc       $pdata$5$WinMain           0000000140047dbc     qtmain:qtmain_win.obj
 0005:000003f0       $R000000                   00000001400493f0     ArcCompareView.res
 0005:00000748       $R000358                   0000000140049748     ArcCompareView.res
 0005:00000db0       $R0009C0                   0000000140049db0     ArcCompareView.res
 0005:00001098       $R000CA8                   000000014004a098     ArcCompareView.res
 0005:00001280       $R000E90                   000000014004a280     ArcCompareView.res
 0005:000013a8       $R000FB8                   000000014004a3a8     ArcCompareView.res
 0005:00002250       $R001E60                   000000014004b250     ArcCompareView.res
 0005:00002af8       $R002708                   000000014004baf8     ArcCompareView.res
 0005:000031c0       $R002DD0                   000000014004c1c0     ArcCompareView.res
 0005:00003728       $R003338                   000000014004c728     ArcCompareView.res
 0005:000057e8       $R0053F8                   000000014004e7e8     ArcCompareView.res
 0005:00016010       $R015C20                   000000014005f010     ArcCompareView.res
 0005:0001a238       $R019E48                   0000000140063238     ArcCompareView.res
 0005:0001c7e0       $R01C3F0                   00000001400657e0     ArcCompareView.res
 0005:0001d888       $R01D498                   0000000140066888     ArcCompareView.res
 0005:0001e210       $R01DE20                   0000000140067210     ArcCompareView.res
 0005:0001e678       $R01E288                   0000000140067678     ArcCompareView.res
 0005:0001e750       $R01E360                   0000000140067750     ArcCompareView.res
